 bloodfrontier_client

 Timestamp is 4703def5 (Wed Oct 03 11:27:01 2007)

 Preferred load address is 00400000

 Start         Length     Name                   Class
 0001:00000000 00073cfbH .text                   CODE
 0001:00073cfb 0000215eH .text$x                 CODE
 0001:00075e59 000047d8H .text$yc                CODE
 0001:0007a631 00000b14H .text$yd                CODE
 0002:00000000 00000530H .idata$5                DATA
 0002:00000530 00000004H .CRT$XCA                DATA
 0002:00000534 00000004H .CRT$XCAA               DATA
 0002:00000538 000008a8H .CRT$XCU                DATA
 0002:00000de0 00000004H .CRT$XCZ                DATA
 0002:00000de4 00000004H .CRT$XIA                DATA
 0002:00000de8 00000004H .CRT$XIAA               DATA
 0002:00000dec 00000004H .CRT$XIC                DATA
 0002:00000df0 00000004H .CRT$XIY                DATA
 0002:00000df4 00000004H .CRT$XIZ                DATA
 0002:00000e00 00009e50H .rdata                  DATA
 0002:0000ac50 00000067H .rdata$debug            DATA
 0002:0000acb8 00002e98H .rdata$r                DATA
 0002:0000db50 00000304H .rdata$sxdata           DATA
 0002:0000de54 00000004H .rtc$IAA                DATA
 0002:0000de58 00000004H .rtc$IZZ                DATA
 0002:0000de5c 00000004H .rtc$TAA                DATA
 0002:0000de60 00000004H .rtc$TZZ                DATA
 0002:0000de68 00002eacH .xdata$x                DATA
 0002:00010d14 000000f0H .idata$2                DATA
 0002:00010e04 00000014H .idata$3                DATA
 0002:00010e18 00000530H .idata$4                DATA
 0002:00011348 00001222H .idata$6                DATA
 0002:0001256a 00000000H .edata                  DATA
 0003:00000000 00044030H .data                   DATA
 0003:00044030 001728b4H .bss                    DATA
 0004:00000000 000000e4H .rsrc$01                DATA
 0004:000000f0 00000bb8H .rsrc$02                DATA

  Address         Publics by Value              Rva+Base       Lib:Object

 0000:00000000       __except_list              00000000     <absolute>
 0000:000000c1       ___safe_se_handler_count   000000c1     <absolute>
 0000:00009876       __fltused                  00009876     <absolute>
 0000:00009876       __ldused                   00009876     <absolute>
 0000:00000000       ___ImageBase               00400000     <linker-defined>
 0001:00000000       _cosf                      00401000 f i shadowmap.obj
 0001:0000001a       _sinf                      0040101a f i shadowmap.obj
 0001:00000034       _sqrtf                     00401034 f i shadowmap.obj
 0001:0000004e       ?formatstring@@YAXPADPBD0@Z 0040104e f i shadowmap.obj
 0001:0000006d       ??Rs_sprintf_f@@QAAXPBDZZ  0040106d f i shadowmap.obj
 0001:00000086       ?squaredlen@vec@@QBEMXZ    00401086 f i shadowmap.obj
 0001:000000ac       ?mul@vec@@QAEAAU1@M@Z      004010ac f i shadowmap.obj
 0001:000000cb       ?rotate_around_z@vec@@QAEXM@Z 004010cb f i shadowmap.obj
 0001:00000131       ??_H@YGXPAXIHP6EPAX0@Z@Z   00401131 f i shadowmap.obj
 0001:0000014a       ?set@Shader@@QAEXPAUSlot@@@Z 0040114a f i shadowmap.obj
 0001:0000018f       ?cleanshadowmap@@YAXXZ     0040118f f   shadowmap.obj
 0001:0000021b       ?var_fpshadowmap@@YAXXZ    0040121b f   shadowmap.obj
 0001:0000021b       ?var_shadowmapsize@@YAXXZ  0040121b f   shadowmap.obj
 0001:0000021b       ?var_shadowmapprecision@@YAXXZ 0040121b f   shadowmap.obj
 0001:00000220       ?createshadowmap@@YAXXZ    00401220 f   shadowmap.obj
 0001:0000049e       ?var_blursmsigma@@YAXXZ    0040149e f   shadowmap.obj
 0001:0000049e       ?var_blurshadowmap@@YAXXZ  0040149e f   shadowmap.obj
 0001:000004a3       ?setupblurkernel@@YAXXZ    004014a3 f   shadowmap.obj
 0001:00000577       ?pushshadowmap@@YAXXZ      00401577 f   shadowmap.obj
 0001:000006a7       ?adjustshadowmatrix@@YAXABUivec@@M@Z 004016a7 f   shadowmap.obj
 0001:0000072e       ?isshadowmapcaster@@YA_NABUvec@@M@Z 0040172e f   shadowmap.obj
 0001:0000085a       ?calcshadowmapbb@@YAXABUvec@@MMAAM111@Z 0040185a f   shadowmap.obj
 0001:00000a21       ?addshadowmapcaster@@YA_NABUvec@@MM@Z 00401a21 f   shadowmap.obj
 0001:00000d0a       ?isshadowmapreceiver@@YA_NPAUvtxarray@@@Z 00401d0a f   shadowmap.obj
 0001:00000fb3       ?rendershadowmapcasters@@YAXXZ 00401fb3 f   shadowmap.obj
 0001:0000108d       ?var_shadowmapangle@@YAXXZ 0040208d f   shadowmap.obj
 0001:000010d4       ?rendershadowmap@@YAXXZ    004020d4 f   shadowmap.obj
 0001:00001b44       ?viewshadowmap@@YAXXZ      00402b44 f   shadowmap.obj
 0001:00001ec9       ?create_ent@cubeloader@@QAEXAAUc_persistent_entity@1@@Z 00402ec9 f i cubeloader.obj
 0001:00002014       ?getcube@cubeloader@@QAEAAUcube@@HHH@Z 00403014 f i cubeloader.obj
 0001:00002055       ?neighbours@cubeloader@@QAEHAAUc_sqr@1@@Z 00403055 f i cubeloader.obj
 0001:0000208c       ?preprocess_cubes@cubeloader@@QAEXXZ 0040308c f i cubeloader.obj
 0001:0000210b       ?getfloorceil@cubeloader@@QAEHAAUc_sqr@1@AAH1@Z 0040310b f i cubeloader.obj
 0001:0000216c       ?boundingbox@cubeloader@@QAEXXZ 0040316c f i cubeloader.obj
 0001:00002214       ?hf@cubeloader@@QAEXHHHHHH@Z 00403214 f i cubeloader.obj
 0001:00002299       ?cornersolid@cubeloader@@QAE_NHPAUc_sqr@1@@Z 00403299 f i cubeloader.obj
 0001:000022b7       ?create_cubes@cubeloader@@QAEXXZ 004032b7 f i cubeloader.obj
 0001:00002638       ?load_cube_world@cubeloader@@QAEXPAD@Z 00403638 f i cubeloader.obj
 0001:00002ac1       ?importcube@@YAXPAD@Z      00403ac1 f   cubeloader.obj
 0001:00002af8       ??8vec@@QBE_NABU0@@Z       00403af8 f i lightmap.obj
 0001:00002b2a       ?iszero@vec@@QBE_NXZ       00403b2a f i lightmap.obj
 0001:00002b52       ?dot@vec@@QBEMABU1@@Z      00403b52 f i lightmap.obj
 0001:00002b72       ?div@vec@@QAEAAU1@M@Z      00403b72 f i lightmap.obj
 0001:00002b91       ?normalize@vec@@QAEAAU1@XZ 00403b91 f i lightmap.obj
 0001:00002bae       ?cross@vec@@QAEAAU1@ABU1@0@Z 00403bae f i lightmap.obj
 0001:00002bdd       ?orthonormalize@matrix@@QAEXXZ 00403bdd f i lightmap.obj
 0001:00002ccc       ??0bvec@@QAE@XZ            00403ccc f i normal.obj
 0001:00002ccc       ??0plane@@QAE@XZ           00403ccc f i lightmap.obj
 0001:00002ccf       ??0ivec@@QAE@HHHHH@Z       00403ccf f i lightmap.obj
 0001:00002d05       ??0bvec@@QAE@ABUvec@@@Z    00403d05 f i lightmap.obj
 0001:00002d49       ?tovec@vvec@@QBE?AUvec@@XZ 00403d49 f i lightmap.obj
 0001:00002da7       ?tovec@vvec@@QBE?AUvec@@HHH@Z 00403da7 f i lightmap.obj
 0001:00002dee       ??0PackNode@@QAE@GGGG@Z    00403dee f i lightmap.obj
 0001:00002e27       ?clear@PackNode@@QAEXXZ    00403e27 f i lightmap.obj
 0001:00002e5e       ??1PackNode@@QAE@XZ        00403e5e f i lightmap.obj
 0001:00002e63       ??0LightMap@@QAE@XZ        00403e63 f i lightmap.obj
 0001:00002ee6       ?boundbox@model@@QAEXHAAUvec@@0PAUmodelattach@@@Z 00403ee6 f i lightmap.obj
 0001:00002f6a       ?above@model@@QAEMH@Z      00403f6a f i lightmap.obj
 0001:00002f8f       ?var_lightprecision@@YAXXZ 00403f8f f   lightmap.obj
 0001:00002f9a       ?var_lighterror@@YAXXZ     00403f9a f   lightmap.obj
 0001:00002fa5       ?var_bumperror@@YAXXZ      00403fa5 f   lightmap.obj
 0001:00002fb0       ?var_lightlod@@YAXXZ       00403fb0 f   lightmap.obj
 0001:00002fbb       ?var_worldlod@@YAXXZ       00403fbb f   lightmap.obj
 0001:00002fc6       ?var_ambient@@YAXXZ        00403fc6 f   lightmap.obj
 0001:00002fd1       ?skylight@@YAXPAH00@Z      00403fd1 f   lightmap.obj
 0001:00002fff       ?check_calclight_canceled@@YAXXZ 00403fff f   lightmap.obj
 0001:0000303c       ?show_calclight_progress@@YAXXZ 0040403c f   lightmap.obj
 0001:0000321c       ?insert@PackNode@@QAE_NAAG0GG@Z 0040421c f   lightmap.obj
 0001:00003409       ?insert@LightMap@@QAE_NAAG0PAEGG@Z 00404409 f   lightmap.obj
 0001:00003491       ?insert_unlit@@YAXH@Z      00404491 f   lightmap.obj
 0001:0000353d       ?insert_lightmap@@YAXHAAG00@Z 0040453d f   lightmap.obj
 0001:00003789       ?pack_lightmap@@YAXHAAUsurfaceinfo@@@Z 00404789 f   lightmap.obj
 0001:00003850       ?generate_lumel@@YAXMABU?$vector@PBUextentity@@@@ABUvec@@1AAU2@HH@Z 00404850 f   lightmap.obj
 0001:00003d58       ?lumel_sample@@YA_NABUvec@@HH@Z 00404d58 f   lightmap.obj
 0001:00003f23       ?calcskylight@@YAXABUvec@@0MPAEH@Z 00404f23 f   lightmap.obj
 0001:000047e0       ?blurlightmap@@YAXH@Z      004057e0 f   lightmap.obj
 0001:00004946       ?generate_lightmap@@YA_NMHHABUvec@@PBUlerpvert@@H00@Z 00405946 f   lightmap.obj
 0001:000058ea       ?clear_lmids@@YAXPAUcube@@@Z 004068ea f   lightmap.obj
 0001:00005929       ??0lightcacheentry@@QAE@XZ 00406929 f i lightmap.obj
 0001:00005957       ??1lightcacheentry@@QAE@XZ 00406957 f i lightmap.obj
 0001:0000597d       ?var_lightcachesize@@YAXXZ 0040697d f   lightmap.obj
 0001:00005985       ?clearlightcache@@YAXH@Z   00406985 f   lightmap.obj
 0001:00005aec       ?checklightcache@@YAABU?$vector@H@@HH@Z 00406aec f   lightmap.obj
 0001:00005d6e       ?find_lights@@YA_NHHHHQAUplane@@H@Z 00406d6e f   lightmap.obj
 0001:00005e79       ?setup_surface@@YA_NQAUplane@@PBUvec@@11QAE@Z 00406e79 f   lightmap.obj
 0001:00006af8       ?setup_surfaces@@YAXAAUcube@@HHHH_N@Z 00407af8 f   lightmap.obj
 0001:000070a1       ?generate_lightmaps@@YAXPAUcube@@HHHH@Z 004080a1 f   lightmap.obj
 0001:00007163       ?resetlightmaps@@YAXXZ     00408163 f   lightmap.obj
 0001:000071bc       ?setlightmapquality@@YA_NH@Z 004081bc f   lightmap.obj
 0001:00007251       ?calclight@@YAXPAH@Z       00408251 f   lightmap.obj
 0001:00007420       ?patchlight@@YAXPAH@Z      00408420 f   lightmap.obj
 0001:000075e4       ?alloctexids@@YAXXZ        004085e4 f   lightmap.obj
 0001:00007683       ?clearlights@@YAXXZ        00408683 f   lightmap.obj
 0001:00007788       ?lightent@@YAXAAUextentity@@M@Z 00408788 f   lightmap.obj
 0001:0000781b       ?convert_lightmap@@YAXAAULightMap@@0@Z 0040881b f   lightmap.obj
 0001:000078de       ?var_fullbright@@YAXXZ     004088de f   lightmap.obj
 0001:000078de       ?var_convertlms@@YAXXZ     004088de f   lightmap.obj
 0001:00007a26       ?initlights@@YAXXZ         00408a26 f   lightmap.obj
 0001:00007c30       ?lightreaching@@YAXABUvec@@AAU1@1PAUextentity@@M@Z 00408c30 f   lightmap.obj
 0001:00008260       ?brightestlight@@YAPAUentity@@ABUvec@@0@Z 00409260 f   lightmap.obj
 0001:000084f2       ?brightencube@@YAXAAUcube@@@Z 004094f2 f   lightmap.obj
 0001:00008524       ?newsurfaces@@YAXAAUcube@@@Z 00409524 f   lightmap.obj
 0001:00008564       ?freesurfaces@@YAXAAUcube@@@Z 00409564 f   lightmap.obj
 0001:00008589       ?dumplms@@YAXXZ            00409589 f   lightmap.obj
 0001:00008696       ?add@?$vector@ULightMap@@@@QAEAAULightMap@@XZ 00409696 f i lightmap.obj
 0001:000086f9       ?setsize@?$vector@ULightMap@@@@QAEXH@Z 004096f9 f i lightmap.obj
 0001:0000873f       ?clear@?$hashtable@Ucompresskey@@Ucompressval@@@@QAEXXZ 0040973f f i lightmap.obj
 0001:0000878e       ?vrealloc@?$vector@ULightMap@@@@QAEXXZ 0040978e f i lightmap.obj
 0001:000087e1       ?find@?$hashtable@Ucompresskey@@Ucompressval@@@@QAEPAUchain@1@ABUcompresskey@@_N@Z 004097e1 f i lightmap.obj
 0001:00008884       ?insert@?$hashtable@Ucompresskey@@Ucompressval@@@@QAEPAUchain@1@ABUcompresskey@@I@Z 00409884 f i lightmap.obj
 0001:0000892b       ?ceil@@YAMM@Z              0040992b f i lightmap.obj
 0001:00008946       ?fabs@@YAMM@Z              00409946 f i lightmap.obj
 0001:00008960       ??9vec@@QBE_NABU0@@Z       00409960 f i normal.obj
 0001:00008992       ??8ivec@@QBE_NABU0@@Z      00409992 f i normal.obj
 0001:000089af       ??0nvec@@QAE@ABUvec@@@Z    004099af f i normal.obj
 0001:000089f4       ?tovec@nvec@@QBE?AUvec@@XZ 004099f4 f i normal.obj
 0001:00008a3b       ??0nkey@@QAE@ABUivec@@ABUvvec@@@Z 00409a3b f i normal.obj
 0001:00008a7f       ?var_lerpangle@@YAXXZ      00409a7f f   normal.obj
 0001:00008a8a       ?addnormal@@YAXABUivec@@HABUvvec@@ABUvec@@@Z 00409a8a f   normal.obj
 0001:00008be4       ?findnormal@@YA_NABUivec@@HABUvvec@@AAUvec@@H@Z 00409be4 f   normal.obj
 0001:00008ccd       ?show_calcnormals_progress@@YAXXZ 00409ccd f   normal.obj
 0001:00008d0f       ?addnormals@@YAXAAUcube@@ABUivec@@H@Z 00409d0f f   normal.obj
 0001:000090f3       ?calcnormals@@YAXXZ        0040a0f3 f   normal.obj
 0001:00009177       ?calclerpverts@@YAXABUvec@@PBU1@100PAUlerpvert@@AAH@Z 0040a177 f   normal.obj
 0001:000092b6       ?setlerpstep@@YAXMAAUlerpbounds@@@Z 0040a2b6 f   normal.obj
 0001:000093d8       ?initlerpbounds@@YAXPBUlerpvert@@HAAUlerpbounds@@1@Z 0040a3d8 f   normal.obj
 0001:000094b1       ?updatelerpbounds@@YAXMPBUlerpvert@@HAAUlerpbounds@@1@Z 0040a4b1 f   normal.obj
 0001:00009547       ?lerpnormal@@YAXMPBUlerpvert@@HAAUlerpbounds@@1AAUvec@@2@Z 0040a547 f   normal.obj
 0001:000096b0       ?newnormals@@YAXAAUcube@@@Z 0040a6b0 f   normal.obj
 0001:0000973e       ?freenormals@@YAXAAUcube@@@Z 0040a73e f   normal.obj
 0001:0000975b       ?add@?$vector@Unormal@@@@QAEAAUnormal@@ABU2@@Z 0040a75b f i normal.obj
 0001:00009792       ?clear@?$hashtable@Unkey@@Unval@@@@QAEXXZ 0040a792 f i normal.obj
 0001:0000980f       ??1chain@?$hashtable@Unkey@@Unval@@@@QAE@XZ 0040a80f f i normal.obj
 0001:00009833       ?vrealloc@?$vector@Unormal@@@@QAEXXZ 0040a833 f i normal.obj
 0001:00009879       ?find@?$hashtable@Unkey@@Unval@@@@QAEPAUchain@1@ABUnkey@@_N@Z 0040a879 f i normal.obj
 0001:000098c4       ?insert@?$hashtable@Unkey@@Unval@@@@QAEPAUchain@1@ABUnkey@@I@Z 0040a8c4 f i normal.obj
 0001:0000998b       ??0chain@?$hashtable@Unkey@@Unval@@@@QAE@XZ 0040a98b f i normal.obj
 0001:000099c4       ??8plane@@QBE_NABU0@@Z     0040a9c4 f i octa.obj
 0001:00009a05       ?toplane@plane@@QAE_NABUvec@@00@Z 0040aa05 f i octa.obj
 0001:00009aaa       ??0ivec@@QAE@HHHH@Z        0040aaaa f i octa.obj
 0001:00009ad9       ?mul@ivec@@QAEAAU1@H@Z     0040aad9 f i octa.obj
 0001:00009afb       ?cross@ivec@@QAEAAU1@ABU1@0@Z 0040aafb f i octa.obj
 0001:00009b34       ??0vvec@@QAE@HHH@Z         0040ab34 f i octa.obj
 0001:00009b63       ?newcubeext@@YAPAUcubeext@@AAUcube@@@Z 0040ab63 f   octa.obj
 0001:00009bb5       ?newcubes@@YAPAUcube@@I@Z  0040abb5 f   octa.obj
 0001:00009bfc       ?familysize@@YAHAAUcube@@@Z 0040abfc f   octa.obj
 0001:00009c2a       ?freeocta@@YAXPAUcube@@@Z  0040ac2a f   octa.obj
 0001:00009c60       ?discardchildren@@YAXAAUcube@@@Z 0040ac60 f   octa.obj
 0001:00009cd5       ?getcubevector@@YAXAAUcube@@HHHHAAUivec@@@Z 0040acd5 f   octa.obj
 0001:00009d41       ?setcubevector@@YAXAAUcube@@HHHHAAUivec@@@Z 0040ad41 f   octa.obj
 0001:00009de0       ?optiface@@YAXPAEAAUcube@@@Z 0040ade0 f   octa.obj
 0001:00009e0b       ?printcube@@YAXXZ          0040ae0b f   octa.obj
 0001:00009e76       ?isvalidcube@@YA_NAAUcube@@@Z 0040ae76 f   octa.obj
 0001:00009eeb       ?validatec@@YAXPAUcube@@H@Z 0040aeeb f   octa.obj
 0001:00009f80       ?lookupcube@@YAAAUcube@@HHHH@Z 0040af80 f   octa.obj
 0001:0000a025       ?neighbourcube@@YAAAUcube@@HHHHHH@Z 0040b025 f   octa.obj
 0001:0000a05e       ?octantrectangleoverlap@@YAEABUivec@@H00@Z 0040b05e f   octa.obj
 0001:0000a0be       ?getmippedtexture@@YAHAAUcube@@H@Z 0040b0be f   octa.obj
 0001:0000a1d4       ?forcemip@@YAXAAUcube@@@Z  0040b1d4 f   octa.obj
 0001:0000a2b5       ?midedge@@YAHABUivec@@0HHAA_N@Z 0040b2b5 f   octa.obj
 0001:0000a3df       ?subdividecube@@YA_NAAUcube@@_N1@Z 0040b3df f   octa.obj
 0001:0000a7f3       ?visibleorient@@YAHAAUcube@@H@Z 0040b7f3 f   octa.obj
 0001:0000a87d       ?remip@@YA_NAAUcube@@HHHH@Z 0040b87d f   octa.obj
 0001:0000ab40       ?mpremip@@YAX_N@Z          0040bb40 f   octa.obj
 0001:0000abf8       ?remip_@@YAXXZ             0040bbf8 f   octa.obj
 0001:0000ac09       ?edgelookup@@YAAAEAAUcube@@ABUivec@@H@Z 0040bc09 f   octa.obj
 0001:0000ac34       ?edgeval@@YAHAAUcube@@ABUivec@@HH@Z 0040bc34 f   octa.obj
 0001:0000ac50       ?genvertp@@YAXAAUcube@@AAUivec@@11AAUplane@@@Z 0040bc50 f   octa.obj
 0001:0000ad34       ?threeplaneintersect@@YA_NAAUplane@@00AAUvec@@@Z 0040bd34 f   octa.obj
 0001:0000ae4e       ?genedgespanvert@@YAXAAUivec@@AAUcube@@AAUvec@@@Z 0040be4e f   octa.obj
 0001:0000b062       ?edgespan2vectorcube@@YAXAAUcube@@@Z 0040c062 f   octa.obj
 0001:0000b1de       ?genvectorvert@@YAXABUivec@@AAUcube@@AAU1@@Z 0040c1de f   octa.obj
 0001:0000b215       ?touchingface@@YA_NAAUcube@@H@Z 0040c215 f   octa.obj
 0001:0000b23d       ?faceconvexity@@YAHAAUcube@@H@Z 0040c23d f   octa.obj
 0001:0000b30a       ?faceverts@@YAHAAUcube@@HH@Z 0040c30a f   octa.obj
 0001:0000b334       ?faceedges@@YAIAAUcube@@H@Z 0040c334 f   octa.obj
 0001:0000b35d       ?genfacevecs@@YAXAAUcube@@HABUivec@@H_NPAUfacevec@@@Z 0040c35d f   octa.obj
 0001:0000b43b       ?clipfacevecy@@YAHABUfacevec@@0HHHAAU1@@Z 0040c43b f   octa.obj
 0001:0000b489       ?clipfacevecx@@YAHABUfacevec@@0HHHAAU1@@Z 0040c489 f   octa.obj
 0001:0000b4d7       ?clipfacevec@@YAHABUfacevec@@0HHHPAU1@@Z 0040c4d7 f   octa.obj
 0001:0000b5a7       ?insideface@@YA_NPBUfacevec@@H0@Z 0040c5a7 f   octa.obj
 0001:0000b63c       ?clipfacevecs@@YAHPBUfacevec@@HHHPAU1@@Z 0040c63c f   octa.obj
 0001:0000b71f       ?occludesface@@YA_NAAUcube@@HABUivec@@H1HEEPBUfacevec@@@Z 0040c71f f   octa.obj
 0001:0000b8d9       ?visibleface@@YA_NAAUcube@@HHHHHEE_N@Z 0040c8d9 f   octa.obj
 0001:0000bae3       ?calcvert@@YAXAAUcube@@HHHHAAUvvec@@H_N@Z 0040cae3 f   octa.obj
 0001:0000bbe3       ?calcverts@@YAXAAUcube@@HHHHPAUvvec@@PA_NPAH_N@Z 0040cbe3 f   octa.obj
 0001:0000bc74       ?genclipplane@@YAHAAUcube@@HPAUvec@@PAUplane@@@Z 0040cc74 f   octa.obj
 0001:0000bd56       ?genclipplanes@@YAXAAUcube@@HHHHAAUclipplanes@@@Z 0040cd56 f   octa.obj
 0001:0000c111       ?mergefaces@@YAHHPAUcubeface@@H@Z 0040d111 f   octa.obj
 0001:0000c14e       ?mincubeface@@YAXAAUcube@@HABUivec@@HABUmergeinfo@@AAU3@@Z 0040d14e f   octa.obj
 0001:0000c471       ?mincubeface@@YA_NAAUcube@@HABUivec@@HAAUmergeinfo@@@Z 0040d471 f   octa.obj
 0001:0000c50d       ?gencubeface@@YA_NAAUcube@@HABUivec@@HAAU2@AAHAAUcubeface@@@Z 0040d50d f   octa.obj
 0001:0000c865       ?addmergeinfo@@YAXAAUcube@@HAAUcubeface@@@Z 0040d865 f   octa.obj
 0001:0000c975       ?freemergeinfo@@YAXAAUcube@@@Z 0040d975 f   octa.obj
 0001:0000c99c       ?genmergeinfo@@YAXPAUcube@@ABUivec@@H@Z 0040d99c f   octa.obj
 0001:0000cc72       ?genmergedverts@@YAXAAUcube@@HABUivec@@HABUmergeinfo@@PAUvvec@@PAUplane@@@Z 0040dc72 f   octa.obj
 0001:0000cec7       ?calcmergedsize@@YAHHABUivec@@HABUmergeinfo@@PBUvvec@@@Z 0040dec7 f   octa.obj
 0001:0000cfd1       ?invalidatemerges@@YAXAAUcube@@@Z 0040dfd1 f   octa.obj
 0001:0000d043       ?add@?$vector@Ucubeface@@@@QAEAAUcubeface@@ABU2@@Z 0040e043 f i octa.obj
 0001:0000d078       ??1chain@?$hashtable@Ucfkey@@Ucfval@@@@QAE@XZ 0040e078 f i octa.obj
 0001:0000d09c       ??1cfval@@QAE@XZ           0040e09c f i octa.obj
 0001:0000d0c0       ??1?$vector@D@@QAE@XZ      0040e0c0 f i octarender.obj
 0001:0000d0c0       ??1?$vector@Ucubeface@@@@QAE@XZ 0040e0c0 f i octa.obj
 0001:0000d0c0       ??1?$vector@G@@QAE@XZ      0040e0c0 f i octaedit.obj
 0001:0000d0c0       ??1?$vector@Umergedface@@@@QAE@XZ 0040e0c0 f i octarender.obj
 0001:0000d0c0       ??1?$vector@PAUShader@@@@QAE@XZ 0040e0c0 f i shader.obj
 0001:0000d0c0       ??1?$vector@Ucline@@@@QAE@XZ 0040e0c0 f i console.obj
 0001:0000d0c0       ??1?$vector@PAUvtxarray@@@@QAE@XZ 0040e0c0 f i octarender.obj
 0001:0000d0c0       ??1?$vector@PAUclientinfo@fpsserver@@@@QAE@XZ 0040e0c0 f i fps.obj
 0001:0000d0c0       ??1?$vector@Uaniminfo@vertmodel@@@@QAE@XZ 0040e0c0 f i rendermodel.obj
 0001:0000d0d4       ?find@?$hashtable@Ucfkey@@Ucfval@@@@QAEPAUchain@1@ABUcfkey@@_N@Z 0040e0d4 f i octa.obj
 0001:0000d163       ?insert@?$hashtable@Ucfkey@@Ucfval@@@@QAEPAUchain@1@ABUcfkey@@I@Z 0040e163 f i octa.obj
 0001:0000d215       ??0chain@?$hashtable@Ucfkey@@Ucfval@@@@QAE@XZ 0040e215 f i octa.obj
 0001:0000d23b       ??0?$vector@Ucubeface@@@@QAE@XZ 0040e23b f i octa.obj
 0001:0000d257       ?dist@vec@@QBEMABU1@AAU1@@Z 0040e257 f i octaedit.obj
 0001:0000d28a       ?rayintersect@plane@@QAE_NABUvec@@0AAM@Z 0040e28a f i octaedit.obj
 0001:0000d2d0       ??0ivec@@QAE@ABUvec@@@Z    0040e2d0 f i octaedit.obj
 0001:0000d2f2       ??8selinfo@@QBE_NABU0@@Z   0040e2f2 f i octaedit.obj
 0001:0000d327       ??1g3d_callback@@UAE@XZ    0040e327 f i octaedit.obj
 0001:0000d32e       ??_Eg3d_callback@@UAEPAXI@Z 0040e32e f i  CIL library: CIL module
 0001:0000d32e       ??_Gg3d_callback@@UAEPAXI@Z 0040e32e f i octaedit.obj
 0001:0000d34b       ??0block3@@QAE@ABUselinfo@@@Z 0040e34b f i octaedit.obj
 0001:0000d36d       ?boxs@@YAXHUvec@@ABU1@@Z   0040e36d f   octaedit.obj
 0001:0000d432       ?boxs3D@@YAXABUvec@@U1@H@Z 0040e432 f   octaedit.obj
 0001:0000d484       ?boxsgrid@@YAXHUvec@@0H@Z  0040e484 f   octaedit.obj
 0001:0000d5ee       ?var_dragging@@YAXXZ       0040e5ee f   octaedit.obj
 0001:0000d633       ?var_moving@@YAXXZ         0040e633 f   octaedit.obj
 0001:0000d694       ?cubecancel@@YAXXZ         0040e694 f   octaedit.obj
 0001:0000d6ad       ?cancelsel@@YAXXZ          0040e6ad f   octaedit.obj
 0001:0000d6b7       ?var_gridpower@@YAXXZ      0040e6b7 f   octaedit.obj
 0001:0000d6ea       ?toggleedit@@YAXXZ         0040e6ea f   octaedit.obj
 0001:0000d78c       ?noedit@@YA_N_N@Z          0040e78c f   octaedit.obj
 0001:0000d8d6       ?reorient@@YAXXZ           0040e8d6 f   octaedit.obj
 0001:0000d921       ?selextend@@YAXXZ          0040e921 f   octaedit.obj
 0001:0000d988       ?blockcube@@YAAAUcube@@HHHABUblock3@@H@Z 0040e988 f   octaedit.obj
 0001:0000d9ea       ??0cmd_havesel@@QAE@XZ     0040e9ea f i octaedit.obj
 0001:0000da65       ?run@cmd_havesel@@UAEXPAPAD@Z 0040ea65 f i octaedit.obj
 0001:0000da7e       ?countselchild@@YAXPAUcube@@ABUivec@@H@Z 0040ea7e f   octaedit.obj
 0001:0000db15       ?normalizelookupcube@@YAXHHH@Z 0040eb15 f   octaedit.obj
 0001:0000db88       ?updateselection@@YAXXZ    0040eb88 f   octaedit.obj
 0001:0000dc31       ?editmoveplane@@YAXABUvec@@0HMAAU1@1_N@Z 0040ec31 f   octaedit.obj
 0001:0000dce7       ?cursorupdate@@YAXXZ       0040ece7 f   octaedit.obj
 0001:0000e811       ?readychanges@@YAXAAUblock3@@PAUcube@@ABUivec@@H@Z 0040f811 f   octaedit.obj
 0001:0000e8fd       ?changed@@YAXABUblock3@@@Z 0040f8fd f   octaedit.obj
 0001:0000e9b4       ?copycube@@YA?AUcube@@AAU1@@Z 0040f9b4 f   octaedit.obj
 0001:0000ea40       ?pastecube@@YAXAAUcube@@0@Z 0040fa40 f   octaedit.obj
 0001:0000ea6a       ?blockcopy@@YAPAUblock3@@ABU1@H@Z 0040fa6a f   octaedit.obj
 0001:0000eb5c       ?freeblock@@YAXPAUblock3@@@Z 0040fb5c f   octaedit.obj
 0001:0000eb96       ?selgridmap@@YAPAHAAUselinfo@@@Z 0040fb96 f   octaedit.obj
 0001:0000ec91       ?freeundo@@YAXUundoblock@@@Z 0040fc91 f   octaedit.obj
 0001:0000ecc2       ?pasteundo@@YAXAAUundoblock@@@Z 0040fcc2 f   octaedit.obj
 0001:0000edac       ?pruneundos@@YAXH@Z        0040fdac f   octaedit.obj
 0001:0000eecb       ?initundocube@@YAXAAUundoblock@@AAUselinfo@@@Z 0040fecb f   octaedit.obj
 0001:0000eefd       ?addundo@@YAXAAUundoblock@@@Z 0040fefd f   octaedit.obj
 0001:0000ef1d       ?makeundo@@YAXXZ           0040ff1d f   octaedit.obj
 0001:0000ef95       ?swapundo@@YAXAAU?$vector@Uundoblock@@@@0PBD@Z 0040ff95 f   octaedit.obj
 0001:0000f113       ?editundo@@YAXXZ           00410113 f   octaedit.obj
 0001:0000f12b       ?editredo@@YAXXZ           0041012b f   octaedit.obj
 0001:0000f143       ?freeeditinfo@@YAXAAPAUeditinfo@@@Z 00410143 f   octaedit.obj
 0001:0000f163       ?mpcopy@@YAXAAPAUeditinfo@@AAUselinfo@@_N@Z 00410163 f   octaedit.obj
 0001:0000f256       ?mppaste@@YAXAAPAUeditinfo@@AAUselinfo@@_N@Z 00410256 f   octaedit.obj
 0001:0000f3ba       ?copy@@YAXXZ               004103ba f   octaedit.obj
 0001:0000f3da       ?pastehilite@@YAXXZ        004103da f   octaedit.obj
 0001:0000f401       ?paste@@YAXXZ              00410401 f   octaedit.obj
 0001:0000f423       ?clearbrush@@YAXXZ         00410423 f   octaedit.obj
 0001:0000f440       ?brushvert@@YAXPAH00@Z     00410440 f   octaedit.obj
 0001:0000f552       ??0cmd_addhtex@@QAE@XZ     00410552 f i octaedit.obj
 0001:0000f5cd       ?run@cmd_addhtex@@UAEXPAPAD@Z 004105cd f i octaedit.obj
 0001:0000f606       ??0cmd_hmapcancel@@QAE@XZ  00410606 f i octaedit.obj
 0001:0000f681       ?run@cmd_hmapcancel@@UAEXPAPAD@Z 00410681 f i octaedit.obj
 0001:0000f68b       ?isheightmap@@YA_NHH_NPAUcube@@@Z 0041068b f i octaedit.obj
 0001:0000f6d7       ?bitspread@hmap@@YAII@Z    004106d7 f i octaedit.obj
 0001:0000f703       ?getcube@hmap@@YAPAUcube@@Uivec@@H@Z 00410703 f i octaedit.obj
 0001:0000f7d9       ?getface@hmap@@YAIPAUcube@@H@Z 004107d9 f i octaedit.obj
 0001:0000f805       ?sethface@hmap@@YAXPAUcube@@I@Z 00410805 f i octaedit.obj
 0001:0000f867       ?pushside@hmap@@YAXAAII@Z  00410867 f i octaedit.obj
 0001:0000f8a3       ?hedit@hmap@@YAXHHHIH@Z    004108a3 f   octaedit.obj
 0001:0000ff2d       ?run@hmap@@YAXHH@Z         00410f2d f   octaedit.obj
 0001:000101da       ?pushedge@@YAXAAEHH@Z      004111da f   octaedit.obj
 0001:00010274       ?linkedpush@@YAXAAUcube@@HHHHH@Z 00411274 f   octaedit.obj
 0001:0001033b       ?mpeditface@@YAXHHAAUselinfo@@_N@Z 0041133b f   octaedit.obj
 0001:0001073a       ?editface@@YAXPAH0@Z       0041173a f   octaedit.obj
 0001:000107a7       ?pushsel@@YAXPAH@Z         004117a7 f   octaedit.obj
 0001:0001080e       ?mpdelcube@@YAXAAUselinfo@@_N@Z 0041180e f   octaedit.obj
 0001:00010919       ?delcube@@YAXXZ            00411919 f   octaedit.obj
 0001:00010935       ?tofronttex@@YAXXZ         00411935 f   octaedit.obj
 0001:00010960       ?edittexcube@@YAXAAUcube@@HHAA_N@Z 00411960 f   octaedit.obj
 0001:000109ec       ?mpedittex@@YAXHHAAUselinfo@@_N@Z 004119ec f   octaedit.obj
 0001:00010b43       ?filltexlist@@YAXXZ        00411b43 f   octaedit.obj
 0001:00010bca       ?edittex@@YAXH@Z           00411bca f   octaedit.obj
 0001:00010c16       ?edittex_@@YAXPAH@Z        00411c16 f   octaedit.obj
 0001:00010c69       ?gettex@@YAXXZ             00411c69 f   octaedit.obj
 0001:00010db3       ?replacetexcube@@YAXAAUcube@@HH@Z 00411db3 f   octaedit.obj
 0001:00010dfc       ?mpreplacetex@@YAXHHAAUselinfo@@_N@Z 00411dfc f   octaedit.obj
 0001:00010e48       ?replace@@YAXXZ            00411e48 f   octaedit.obj
 0001:00010e80       ?dflip@@YAII@Z             00411e80 f   octaedit.obj
 0001:00010ea5       ?mflip@@YAII@Z             00411ea5 f   octaedit.obj
 0001:00010ec4       ?flipcube@@YAXAAUcube@@H@Z 00411ec4 f   octaedit.obj
 0001:00010fb6       ?rotatequad@@YAXAAUcube@@000@Z 00411fb6 f   octaedit.obj
 0001:00010ff7       ?rotatecube@@YAXAAUcube@@H@Z 00411ff7 f   octaedit.obj
 0001:00011195       ?mpflip@@YAXAAUselinfo@@_N@Z 00412195 f   octaedit.obj
 0001:0001134b       ?flip@@YAXXZ               0041234b f   octaedit.obj
 0001:00011367       ?mprotate@@YAXHAAUselinfo@@_N@Z 00412367 f   octaedit.obj
 0001:000115f2       ?rotate@@YAXPAH@Z          004125f2 f   octaedit.obj
 0001:00011615       ?setmat@@YAXAAUcube@@E@Z   00412615 f   octaedit.obj
 0001:00011666       ?mpeditmat@@YAXHAAUselinfo@@_N@Z 00412666 f   octaedit.obj
 0001:00011766       ?editmat@@YAXPAD@Z         00412766 f   octaedit.obj
 0001:000117a3       ?gui@texturegui@@UAEXAAUg3d_gui@@_N@Z 004127a3 f i octaedit.obj
 0001:00011945       ?g3d_texturemenu@@YAXXZ    00412945 f   octaedit.obj
 0001:000119a9       ?showtexgui@@YAXPAH@Z      004129a9 f   octaedit.obj
 0001:00011a13       ?render_texture_panel@@YAXHH@Z 00412a13 f   octaedit.obj
 0001:00011d11       ??0?$vector@G@@QAE@XZ      00412d11 f i octaedit.obj
 0001:00011d2d       ?add@?$vector@G@@QAEAAGABG@Z 00412d2d f i octaedit.obj
 0001:00011d63       ?remove@?$vector@G@@QAEGH@Z 00412d63 f i octaedit.obj
 0001:00011d97       ?insert@?$vector@G@@QAEAAGHABG@Z 00412d97 f i octaedit.obj
 0001:00011de1       ??1?$tident@X@@UAE@XZ      00412de1 f i octaedit.obj
 0001:00011de8       ?add@?$vector@Uundoblock@@@@QAEAAUundoblock@@ABU2@@Z 00412de8 f i octaedit.obj
 0001:00011e1f       ??_E?$tident@X@@UAEPAXI@Z  00412e1f f i  CIL library: CIL module
 0001:00011e1f       ??_G?$tident@X@@UAEPAXI@Z  00412e1f f i octaedit.obj
 0001:00011e3c       ?vrealloc@?$vector@G@@QAEXXZ 00412e3c f i octaedit.obj
 0001:00011e7a       ?vrealloc@?$vector@Uundoblock@@@@QAEXXZ 00412e7a f i octaedit.obj
 0001:00011ec0       ??9svec@@QBE_NABU0@@Z      00412ec0 f i octarender.obj
 0001:00011ee3       ?toivec@vvec@@QBE?AUivec@@HHH@Z 00412ee3 f i octarender.obj
 0001:00011f4b       ?genverts@@YAXPAX@Z        00412f4b f   octarender.obj
 0001:0001212d       ?destroyvbo@@YAXI@Z        0041312d f   octarender.obj
 0001:00012151       ?genvbo@@YAXHPAXHPAPAUvtxarray@@H@Z 00413151 f   octarender.obj
 0001:00012211       ?flushvbo@@YAXH@Z          00413211 f   octarender.obj
 0001:00012264       ?addvbo@@YAPAXPAUvtxarray@@HPAXH@Z 00413264 f   octarender.obj
 0001:000123ac       ?access@vechash@@QAEHABUvvec@@FFABUbvec@@E@Z 004133ac f i octarender.obj
 0001:00012519       ??8sortkey@@QBE_NABU0@@Z   00413519 f i octarender.obj
 0001:0001253c       ?size@lodcollect@@QAEHXZ   0041353c f i octarender.obj
 0001:00012560       ?clear@lodcollect@@QAEXXZ  00413560 f i octarender.obj
 0001:000125db       ?remapunlit@lodcollect@@QAEXAAU?$vector@Usortkey@@@@@Z 004135db f i octarender.obj
 0001:00012850       ?optimize@lodcollect@@QAEXXZ 00413850 f i octarender.obj
 0001:000129e1       ?texsort@lodcollect@@SAHPBUsortkey@@0@Z 004139e1 f i octarender.obj
 0001:00012a45       ?setup@lodcollect@@QAEPADPAUvtxarray@@AAUlodlevel@@PAD@Z 00413a45 f i octarender.obj
 0001:00012d1e       ??0lodcollect@@QAE@XZ      00413d1e f i octarender.obj
 0001:00012dc8       ??1lodcollect@@QAE@XZ      00413dc8 f i octarender.obj
 0001:00012e46       ?var_lodsize@@YAXXZ        00413e46 f   octarender.obj
 0001:00012e51       ?addtriindexes@@YAHAAU?$vector@G@@QAH@Z 00413e51 f   octarender.obj
 0001:00012ef1       ?calcshadowmask@@YAHPAEPAUvvec@@@Z 00413ef1 f   octarender.obj
 0001:00013101       ?addcubeverts@@YAXHH_NPAUvvec@@GPAUsurfaceinfo@@PAUsurfacenormals@@G@Z 00414101 f   octarender.obj
 0001:000132e1       ?gencubeverts@@YAXAAUcube@@HHHHH_N@Z 004142e1 f   octarender.obj
 0001:000134fd       ?skyoccluded@@YA_NAAUcube@@H@Z 004144fd f   octarender.obj
 0001:0001352b       ?hasskyfaces@@YAHAAUcube@@HHHHQAH@Z 0041452b f   octarender.obj
 0001:000135f4       ?minskyface@@YAXAAUcube@@HABUivec@@HAAUmergeinfo@@@Z 004145f4 f   octarender.obj
 0001:0001368d       ?genskyfaces@@YAXAAUcube@@ABUivec@@H_N@Z 0041468d f   octarender.obj
 0001:00013802       ?addskyverts@@YAXABUivec@@H@Z 00414802 f   octarender.obj
 0001:00013979       ?newva@@YAPAUvtxarray@@HHHH@Z 00414979 f   octarender.obj
 0001:00013ceb       ?destroyva@@YAXPAUvtxarray@@_N@Z 00414ceb f   octarender.obj
 0001:00013e5b       ?vaclearc@@YAXPAUcube@@@Z  00414e5b f   octarender.obj
 0001:00013e9b       ?genmergedfaces@@YAXAAUcube@@ABUivec@@HH@Z 00414e9b f   octarender.obj
 0001:00014046       ?findmergedfaces@@YAXAAUcube@@ABUivec@@HHH@Z 00415046 f   octarender.obj
 0001:000140e6       ?addmergedverts@@YAXH@Z    004150e6 f   octarender.obj
 0001:000141b7       ?rendercube@@YAXAAUcube@@HHHHH@Z 004151b7 f   octarender.obj
 0001:00014399       ?calcvabb@@YAXHHHHAAUivec@@0@Z 00415399 f   octarender.obj
 0001:00014463       ?setva@@YAXAAUcube@@HHHHH@Z 00415463 f   octarender.obj
 0001:00014595       ?var_vacubemin@@YAXXZ      00415595 f   octarender.obj
 0001:00014595       ?var_vertwater@@YAXXZ      00415595 f   water.obj
 0001:00014595       ?var_floatvtx@@YAXXZ       00415595 f   octarender.obj
 0001:00014595       ?var_vacubemax@@YAXXZ      00415595 f   octarender.obj
 0001:00014595       ?var_vbosize@@YAXXZ        00415595 f   octarender.obj
 0001:00014595       ?var_vacubesize@@YAXXZ     00415595 f   octarender.obj
 0001:00014595       ?var_optmats@@YAXXZ        00415595 f   material.obj
 0001:0001459e       ?updateva@@YAHPAUcube@@HHHHH@Z 0041559e f   octarender.obj
 0001:0001489c       ?genlod@@YAXAAUcube@@H@Z   0041589c f   octarender.obj
 0001:00014963       ?octarender@@YAXXZ         00415963 f   octarender.obj
 0001:00014a26       ?precachetextures@@YAXAAUlodlevel@@@Z 00415a26 f   octarender.obj
 0001:00014a4f       ?precacheall@@YAXXZ        00415a4f f   octarender.obj
 0001:00014a89       ?allchanged@@YAX_N@Z       00415a89 f   octarender.obj
 0001:00014b5d       ?recalc@@YAXXZ             00415b5d f   octarender.obj
 0001:00014b66       ?add@?$vector@Ugrasstri@@@@QAEAAUgrasstri@@XZ 00415b66 f i octarender.obj
 0001:00014bae       ?move@?$vector@Ugrasstri@@@@QAEXAAU1@@Z 00415bae f i octarender.obj
 0001:00014c32       ??A?$hashtable@IUvboinfo@@@@QAEAAUvboinfo@@ABI@Z 00415c32 f i octarender.obj
 0001:00014c5e       ??0?$vector@D@@QAE@XZ      00415c5e f i octarender.obj
 0001:00014c78       ?reserve@?$vector@D@@QAE?AU?$databuf@D@@H@Z 00415c78 f i octarender.obj
 0001:00014c78       ?reserve@?$vector@E@@QAE?AU?$databuf@E@@H@Z 00415c78 f i fps.obj
 0001:00014ca2       ?removeobj@?$vector@PAUvtxarray@@@@QAEXABQAUvtxarray@@@Z 00415ca2 f i octarender.obj
 0001:00014ce5       ??1?$hashtable@Uivec@@H@@QAE@XZ 00415ce5 f i material.obj
 0001:00014ce5       ??1?$hashtable@Uedge@tristrip@@G@@QAE@XZ 00415ce5 f i rendermodel.obj
 0001:00014ce5       ??1?$hashtable@Usortkey@@Usortval@@@@QAE@XZ 00415ce5 f i octarender.obj
 0001:00014cf8       ?add@?$vector@Usortkey@@@@QAEAAUsortkey@@ABU2@@Z 00415cf8 f i octarender.obj
 0001:00014d2d       ?removeobj@?$vector@Usortkey@@@@QAEXABUsortkey@@@Z 00415d2d f i octarender.obj
 0001:00014dab       ??0?$vector@PAUoctaentities@@@@QAE@ABU0@@Z 00415dab f i octarender.obj
 0001:00014def       ??0?$vector@Umergedface@@@@QAE@XZ 00415def f i octarender.obj
 0001:00014e0e       ??1chain@?$hashtable@Usortkey@@Usortval@@@@QAE@XZ 00415e0e f i octarender.obj
 0001:00014e32       ??1sortval@@QAE@XZ         00415e32 f i octarender.obj
 0001:00014e63       ?vrealloc@?$vector@E@@QAEXXZ 00415e63 f i rendermodel.obj
 0001:00014e63       ?vrealloc@?$vector@D@@QAEXXZ 00415e63 f i octarender.obj
 0001:00014e9f       ?find@?$hashtable@Usortkey@@Usortval@@@@QAEPAUchain@1@ABUsortkey@@_N@Z 00415e9f f i octarender.obj
 0001:00014efd       ?vrealloc@?$vector@Usortkey@@@@QAEXXZ 00415efd f i octarender.obj
 0001:00014f43       ?vrealloc@?$vector@Umergedface@@@@QAEXXZ 00415f43 f i octarender.obj
 0001:00014f89       ?insert@?$hashtable@IUvboinfo@@@@QAEPAUchain@1@ABII@Z 00415f89 f i octarender.obj
 0001:0001500a       ?insert@?$hashtable@Usortkey@@Usortval@@@@QAEPAUchain@1@ABUsortkey@@I@Z 0041600a f i octarender.obj
 0001:000150ba       ??0chain@?$hashtable@Usortkey@@Usortval@@@@QAE@XZ 004160ba f i octarender.obj
 0001:000150f8       ?reject@vec@@QAE_NABU1@M@Z 004160f8 f i physics.obj
 0001:0001516f       ??0physent@@QAE@XZ         0041616f f i physics.obj
 0001:000151c7       ?reset@physent@@QAEXXZ     004161c7 f i physics.obj
 0001:00015202       ?normalize_yaw@dynent@@QAEXM@Z 00416202 f i physics.obj
 0001:00015254       ?setcubeclip@@YAXAAUcube@@HHHH@Z 00416254 f   physics.obj
 0001:00015376       ?freeclipplanes@@YAXAAUcube@@@Z 00416376 f   physics.obj
 0001:000153dc       ?pointincube@@YA_NABUclipplanes@@ABUvec@@@Z 004163dc f   physics.obj
 0001:00015491       ?raycubeintersect@@YA_NABUcube@@ABUvec@@1AAM@Z 00416491 f   physics.obj
 0001:0001590e       ?insideworld@@YA_NABUvec@@@Z 0041690e f   physics.obj
 0001:0001593f       ?raycube@@YAMABUvec@@0MHHPAUextentity@@@Z 0041693f f   physics.obj
 0001:00015f9f       ?shadowray@@YAMABUvec@@0MHPAUextentity@@@Z 00416f9f f   physics.obj
 0001:0001644e       ?rayent@@YAMABUvec@@AAU1@1MHHAAH2@Z 0041744e f   physics.obj
 0001:000164b8       ?raycubepos@@YAMABUvec@@AAU1@1MHH@Z 004174b8 f   physics.obj
 0001:00016515       ?raycubelos@@YA_NAAUvec@@00@Z 00417515 f   physics.obj
 0001:0001658a       ?rayfloor@@YAMABUvec@@AAU1@HM@Z 0041758a f   physics.obj
 0001:00016623       ?ellipsecollide@@YA_NPAUdynent@@ABUvec@@0@Z 00417623 f   physics.obj
 0001:000168c9       ?rectcollide@@YA_NPAUphysent@@ABUvec@@1MMMME_NM@Z 004178c9 f   physics.obj
 0001:00016c03       ??0dynentcacheentry@@QAE@XZ 00417c03 f i physics.obj
 0001:00016c3d       ??1dynentcacheentry@@QAE@XZ 00417c3d f i physics.obj
 0001:00016c6f       ?cleardynentcache@@YAXXZ   00417c6f f   physics.obj
 0001:00016ca4       ?var_dynentsize@@YAXXZ     00417ca4 f   physics.obj
 0001:00016ca9       ?checkdynentcache@@YAABU?$vector@PAUphysent@@@@HH@Z 00417ca9 f   physics.obj
 0001:00016dbe       ?updatedynentcache@@YAXPAUphysent@@@Z 00417dbe f   physics.obj
 0001:00016f05       ?overlapsdynent@@YA_NABUvec@@M@Z 00417f05 f   physics.obj
 0001:0001704b       ?plcollide@@YA_NPAUphysent@@ABUvec@@@Z 0041804b f   physics.obj
 0001:000171b5       ?cubecollide@@YA_NPAUphysent@@ABUvec@@MAAUcube@@HHHH@Z 004181b5 f   physics.obj
 0001:00017828       ?octacollide@@YA_NPAUphysent@@ABUvec@@MABUivec@@2PAUcube@@2H@Z 00418828 f   physics.obj
 0001:00017949       ?collide@@YA_NPAUphysent@@ABUvec@@M@Z 00418949 f   physics.obj
 0001:00017a11       ?slopegravity@@YAXMABUvec@@AAU1@@Z 00418a11 f   physics.obj
 0001:00017a4b       ?slideagainst@@YAXPAUphysent@@AAUvec@@ABU2@@Z 00418a4b f   physics.obj
 0001:00017b09       ?switchfloor@@YAXPAUphysent@@AAUvec@@_NABU2@@Z 00418b09 f   physics.obj
 0001:00017dd4       ?trystepup@@YA_NPAUphysent@@AAUvec@@M@Z 00418dd4 f   physics.obj
 0001:00017ed7       ?falling@@YAXPAUphysent@@AAUvec@@ABU2@@Z 00418ed7 f   physics.obj
 0001:00017f5c       ?landing@@YAXPAUphysent@@AAUvec@@ABU2@@Z 00418f5c f   physics.obj
 0001:00017fc5       ?findfloor@@YA_NPAUphysent@@_NABUvec@@AA_NAAU2@@Z 00418fc5 f   physics.obj
 0001:0001819d       ?move@@YA_NPAUphysent@@AAUvec@@@Z 0041919d f   physics.obj
 0001:000183e3       ?bounce@@YA_NPAUphysent@@MMM@Z 004193e3 f   physics.obj
 0001:000186b8       ?avoidcollision@@YAXPAUphysent@@ABUvec@@0M@Z 004196b8 f   physics.obj
 0001:00018850       ?dropenttofloor@@YAXPAUentity@@@Z 00419850 f   physics.obj
 0001:00018929       ?phystest@@YAXXZ           00419929 f   physics.obj
 0001:000189f7       ?vecfromyawpitch@@YAXMMHHAAUvec@@@Z 004199f7 f   physics.obj
 0001:00018ae0       ?vectoyawpitch@@YAXABUvec@@AAM1@Z 00419ae0 f   physics.obj
 0001:00018b3e       ?modifyvelocity@@YAXPAUphysent@@_N11H@Z 00419b3e f   physics.obj
 0001:00018f53       ?modifygravity@@YAXPAUphysent@@_NM@Z 00419f53 f   physics.obj
 0001:000190c5       ?moveplayer@@YA_NPAUphysent@@H_NH@Z 0041a0c5 f   physics.obj
 0001:000193a2       ?physicsframe@@YAXXZ       0041a3a2 f   physics.obj
 0001:000193db       ?updatephysstate@@YAXPAUphysent@@@Z 0041a3db f   physics.obj
 0001:00019589       ?intersect@@YA_NPAUphysent@@AAUvec@@1@Z 0041a589 f   physics.obj
 0001:000196e1       ??0cmd_backward@@QAE@XZ    0041a6e1 f i physics.obj
 0001:0001975c       ?run@cmd_backward@@UAEXPAPAD@Z 0041a75c f i physics.obj
 0001:00019783       ??0cmd_forward@@QAE@XZ     0041a783 f i physics.obj
 0001:000197fe       ?run@cmd_forward@@UAEXPAPAD@Z 0041a7fe f i physics.obj
 0001:00019824       ??_Ecmd_forward@@UAEPAXI@Z 0041a824 f i  CIL library: CIL module
 0001:00019824       ??_Ecmd_left@@UAEPAXI@Z    0041a824 f i  CIL library: CIL module
 0001:00019824       ??_Gcmd_insel@@UAEPAXI@Z   0041a824 f i world.obj
 0001:00019824       ??_Gcmd_attack@@UAEPAXI@Z  0041a824 f i physics.obj
 0001:00019824       ??_Ecmd_entget@@UAEPAXI@Z  0041a824 f i  CIL library: CIL module
 0001:00019824       ??_Ecmd_echo@@UAEPAXI@Z    0041a824 f i  CIL library: CIL module
 0001:00019824       ??_Gcmd_entget@@UAEPAXI@Z  0041a824 f i world.obj
 0001:00019824       ??_Gcmd_entselect@@UAEPAXI@Z 0041a824 f i world.obj
 0001:00019824       ??_Gcmd_entloop@@UAEPAXI@Z 0041a824 f i world.obj
 0001:00019824       ??_Gcmd_echo@@UAEPAXI@Z    0041a824 f i command.obj
 0001:00019824       ??_Gcmd_loop@@UAEPAXI@Z    0041a824 f i command.obj
 0001:00019824       ??_Ecmd_enthavesel@@UAEPAXI@Z 0041a824 f i  CIL library: CIL module
 0001:00019824       ??_Ecmd_backward@@UAEPAXI@Z 0041a824 f i  CIL library: CIL module
 0001:00019824       ??_Gcmd_havesel@@UAEPAXI@Z 0041a824 f i octaedit.obj
 0001:00019824       ??_Ecmd_hmapcancel@@UAEPAXI@Z 0041a824 f i  CIL library: CIL module
 0001:00019824       ??_Gcmd_backward@@UAEPAXI@Z 0041a824 f i physics.obj
 0001:00019824       ??_Ecmd_right@@UAEPAXI@Z   0041a824 f i  CIL library: CIL module
 0001:00019824       ??_Ecmd_loop@@UAEPAXI@Z    0041a824 f i  CIL library: CIL module
 0001:00019824       ??_Gcmd_while@@UAEPAXI@Z   0041a824 f i command.obj
 0001:00019824       ??_Ecmd_insel@@UAEPAXI@Z   0041a824 f i  CIL library: CIL module
 0001:00019824       ??_Ecmd_entselect@@UAEPAXI@Z 0041a824 f i  CIL library: CIL module
 0001:00019824       ??_Gcmd_enthavesel@@UAEPAXI@Z 0041a824 f i world.obj
 0001:00019824       ??_Gcmd_if@@UAEPAXI@Z      0041a824 f i command.obj
 0001:00019824       ??_Ecmd_centerprint@@UAEPAXI@Z 0041a824 f i  CIL library: CIL module
 0001:00019824       ??_Ecmd_if@@UAEPAXI@Z      0041a824 f i  CIL library: CIL module
 0001:00019824       ??_Gcmd_hmapcancel@@UAEPAXI@Z 0041a824 f i octaedit.obj
 0001:00019824       ??_Ecmd_attack@@UAEPAXI@Z  0041a824 f i  CIL library: CIL module
 0001:00019824       ??_Ecmd_addhtex@@UAEPAXI@Z 0041a824 f i  CIL library: CIL module
 0001:00019824       ??_Ecmd_entloop@@UAEPAXI@Z 0041a824 f i  CIL library: CIL module
 0001:00019824       ??_Ecmd_havesel@@UAEPAXI@Z 0041a824 f i  CIL library: CIL module
 0001:00019824       ??_Gcmd_forward@@UAEPAXI@Z 0041a824 f i physics.obj
 0001:00019824       ??_Gcmd_jump@@UAEPAXI@Z    0041a824 f i physics.obj
 0001:00019824       ??_Gcmd_addhtex@@UAEPAXI@Z 0041a824 f i octaedit.obj
 0001:00019824       ??_Ecmd_while@@UAEPAXI@Z   0041a824 f i  CIL library: CIL module
 0001:00019824       ??_Gcmd_left@@UAEPAXI@Z    0041a824 f i physics.obj
 0001:00019824       ??_Gcmd_right@@UAEPAXI@Z   0041a824 f i physics.obj
 0001:00019824       ??_Gcmd_centerprint@@UAEPAXI@Z 0041a824 f i console.obj
 0001:00019824       ??_Ecmd_jump@@UAEPAXI@Z    0041a824 f i  CIL library: CIL module
 0001:0001985d       ??0cmd_left@@QAE@XZ        0041a85d f i physics.obj
 0001:000198d8       ?run@cmd_left@@UAEXPAPAD@Z 0041a8d8 f i physics.obj
 0001:000198fe       ??0cmd_right@@QAE@XZ       0041a8fe f i physics.obj
 0001:00019979       ?run@cmd_right@@UAEXPAPAD@Z 0041a979 f i physics.obj
 0001:000199a0       ??0cmd_jump@@QAE@XZ        0041a9a0 f i physics.obj
 0001:00019a1b       ?run@cmd_jump@@UAEXPAPAD@Z 0041aa1b f i physics.obj
 0001:00019a3e       ??0cmd_attack@@QAE@XZ      0041aa3e f i physics.obj
 0001:00019ab9       ?run@cmd_attack@@UAEXPAPAD@Z 0041aab9 f i physics.obj
 0001:00019ad0       ?mousemove@@YAXHH@Z        0041aad0 f   physics.obj
 0001:00019ae7       ?entinmap@@YA_NPAUdynent@@_N@Z 0041aae7 f   physics.obj
 0001:00019c19       ?find@?$vector@H@@QAEHABH@Z 0041ac19 f i physics.obj
 0001:00019c3e       ?asin@@YAMM@Z              0041ac3e f i physics.obj
 0001:00019c58       ?atan2@@YAMMM@Z            0041ac58 f i physics.obj
 0001:00019c73       _atan2f                    0041ac73 f i physics.obj
 0001:00019c96       ?s_strncpy@@YAPADPADPBDI@Z 0041ac96 f i world.obj
 0001:00019cad       ?s_strcpy@@YAPADPADPBD@Z   0041acad f i world.obj
 0001:00019cca       ?s_strcat@@YAPADPADPBD@Z   0041acca f i world.obj
 0001:00019ceb       ?rotate@vec@@QAEXMABU1@@Z  0041aceb f i world.obj
 0001:00019d28       ?rotate@vec@@QAEXMMABU1@@Z 0041ad28 f i world.obj
 0001:00019df1       ?orthogonal@vec@@QAEXABU1@@Z 0041adf1 f i world.obj
 0001:00019e9b       ??0octaentities@@QAE@ABUivec@@H@Z 0041ae9b f i world.obj
 0001:00019f08       ?collisionbox@model@@QAEXHAAUvec@@0@Z 0041af08 f i world.obj
 0001:00019f61       ?getentboundingbox@@YA_NAAUextentity@@AAUivec@@1@Z 0041af61 f   world.obj
 0001:0001a07a       ?modifyoctaentity@@YAX_NHPAUcube@@ABUivec@@H22PAUvtxarray@@@Z 0041b07a f   world.obj
 0001:0001a573       ?freeoctaentities@@YAXAAUcube@@@Z 0041b573 f   world.obj
 0001:0001a63b       ?entitiesinoctanodes@@YAXXZ 0041b63b f   world.obj
 0001:0001a66b       ?entname@@YAPADAAUentity@@@Z 0041b66b f   world.obj
 0001:0001a6c6       ?noentedit@@YA_NXZ         0041b6c6 f   world.obj
 0001:0001a6ec       ?pointinsel@@YA_NAAUselinfo@@AAUvec@@@Z 0041b6ec f   world.obj
 0001:0001a793       ?entcancel@@YAXXZ          0041b793 f   world.obj
 0001:0001a7a5       ?entadd@@YAXH@Z            0041b7a5 f   world.obj
 0001:0001a7bc       ?initundoent@@YAXAAUundoblock@@@Z 0041b7bc f   world.obj
 0001:0001a871       ?makeundoent@@YAXXZ        0041b871 f   world.obj
 0001:0001a8c2       ?detachentity@@YAXAAUextentity@@@Z 0041b8c2 f   world.obj
 0001:0001a8d2       ?attachentity@@YAXAAUextentity@@@Z 0041b8d2 f   world.obj
 0001:0001a9bb       ?copyundoents@@YAXAAUundoblock@@0@Z 0041b9bb f   world.obj
 0001:0001aa15       ?pasteundoents@@YAXAAUundoblock@@@Z 0041ba15 f   world.obj
 0001:0001aad3       ?entflip@@YAXXZ            0041bad3 f   world.obj
 0001:0001ac60       ?entrotate@@YAXPAH@Z       0041bc60 f   world.obj
 0001:0001aef3       ?entselectionbox@@YAXABUentity@@AAUvec@@1@Z 0041bef3 f   world.obj
 0001:0001aff7       ?entdrag@@YAXABUvec@@@Z    0041bff7 f   world.obj
 0001:0001b36e       ?renderentradius@@YAXAAUextentity@@@Z 0041c36e f   world.obj
 0001:0001babd       ?renderentselection@@YAXABUvec@@0_N@Z 0041cabd f   world.obj
 0001:0001bd13       ?enttoggle@@YA_NH@Z        0041cd13 f   world.obj
 0001:0001bd52       ?hoveringonent@@YA_NHH@Z   0041cd52 f   world.obj
 0001:0001bda2       ?var_entmoving@@YAXXZ      0041cda2 f   world.obj
 0001:0001be12       ?entpush@@YAXPAH@Z         0041ce12 f   world.obj
 0001:0001c28a       ?entautoview@@YAXPAH@Z     0041d28a f   world.obj
 0001:0001c381       ?delent@@YAXXZ             0041d381 f   world.obj
 0001:0001c604       ?findtype@@YAHPAD@Z        0041d604 f   world.obj
 0001:0001c650       ?dropentity@@YA_NAAUentity@@H@Z 0041d650 f   world.obj
 0001:0001c804       ?dropent@@YAXXZ            0041d804 f   world.obj
 0001:0001ca9e       ?attachent@@YAXXZ          0041da9e f   world.obj
 0001:0001cd30       ?newentity@@YAPAUextentity@@_NABUvec@@HHHHH@Z 0041dd30 f   world.obj
 0001:0001cddc       ?newentity@@YAXHHHHH@Z     0041dddc f   world.obj
 0001:0001cea5       ?newent@@YAXPADPAH111@Z    0041dea5 f   world.obj
 0001:0001cee0       ?entcopy@@YAXXZ            0041dee0 f   world.obj
 0001:0001cf84       ?entpaste@@YAXXZ           0041df84 f   world.obj
 0001:0001d1db       ?entset@@YAXPADPAH111@Z    0041e1db f   world.obj
 0001:0001d53f       ??0cmd_enthavesel@@QAE@XZ  0041e53f f i world.obj
 0001:0001d5ba       ?run@cmd_enthavesel@@UAEXPAPAD@Z 0041e5ba f i world.obj
 0001:0001d604       ??0cmd_entselect@@QAE@XZ   0041e604 f i world.obj
 0001:0001d67f       ?run@cmd_entselect@@UAEXPAPAD@Z 0041e67f f i world.obj
 0001:0001d703       ??0cmd_entloop@@QAE@XZ     0041e703 f i world.obj
 0001:0001d77e       ?run@cmd_entloop@@UAEXPAPAD@Z 0041e77e f i world.obj
 0001:0001d939       ??0cmd_insel@@QAE@XZ       0041e939 f i world.obj
 0001:0001d9b4       ?run@cmd_insel@@UAEXPAPAD@Z 0041e9b4 f i world.obj
 0001:0001d9e2       ??0cmd_entget@@QAE@XZ      0041e9e2 f i world.obj
 0001:0001da5d       ?run@cmd_entget@@UAEXPAPAD@Z 0041ea5d f i world.obj
 0001:0001dad1       ?findentity@@YAHHH@Z       0041ead1 f   world.obj
 0001:0001db28       ?findplayerspawn@@YAXPAUdynent@@H@Z 0041eb28 f   world.obj
 0001:0001dc88       ?splitocta@@YAXPAUcube@@H@Z 0041ec88 f   world.obj
 0001:0001dcd5       ?resetmap@@YAXXZ           0041ecd5 f   world.obj
 0001:0001dd4a       ?emptymap@@YA_NH_N@Z       0041ed4a f   world.obj
 0001:0001deda       ?enlargemap@@YA_N_N@Z      0041eeda f   world.obj
 0001:0001df64       ?newmap@@YAXPAH@Z          0041ef64 f   world.obj
 0001:0001df8d       ?mapenlarge@@YAXXZ         0041ef8d f   world.obj
 0001:0001e013       ?mapname_@@YAXXZ           0041f013 f   world.obj
 0001:0001e026       ?mpeditent@@YAXHABUvec@@HHHHH_N@Z 0041f026 f   world.obj
 0001:0001e137       ?unlocktriggers@@YAXHHH@Z  0041f137 f   world.obj
 0001:0001e1e3       ?trigger@@YAXPAH0@Z        0041f1e3 f   world.obj
 0001:0001e205       ?doleveltrigger@@YAXHH@Z   0041f205 f   world.obj
 0001:0001e255       ?checktriggers@@YAXXZ      0041f255 f   world.obj
 0001:0001e54f       ?newentity@@YAXAAUvec@@HHHHH@Z 0041f54f f   world.obj
 0001:0001e609       ?removeobj@?$vector@H@@QAEXABH@Z 0041f609 f i world.obj
 0001:0001e632       ?add@?$vector@Uentity@@@@QAEAAUentity@@ABU2@@Z 0041f632 f i world.obj
 0001:0001e679       ?vrealloc@?$vector@Uentity@@@@QAEXXZ 0041f679 f i world.obj
 0001:0001e6c6       ?backup@@YAXPAD0@Z         0041f6c6 f   worldio.obj
 0001:0001e731       ?setnames@@YAXPBD0@Z       0041f731 f   worldio.obj
 0001:0001e8da       ?readushort@@YAGPAX@Z      0041f8da f   worldio.obj
 0001:0001e8f6       ?writeushort@@YAXPAXG@Z    0041f8f6 f   worldio.obj
 0001:0001e90b       ?savec@@YAXPAUcube@@PAX_N@Z 0041f90b f   worldio.obj
 0001:0001ec1a       ?loadc@@YAXPAXAAUcube@@@Z  0041fc1a f   worldio.obj
 0001:0001ef0e       ?loadchildren@@YAPAUcube@@PAX@Z 0041ff0e f   worldio.obj
 0001:0001ef40       ?save_world@@YAXPAD_N@Z    0041ff40 f   worldio.obj
 0001:0001f62d       ?swapXZ@@YAXPAUcube@@@Z    0042062d f   worldio.obj
 0001:0001f6e7       ?load_world@@YAXPBD0@Z     004206e7 f   worldio.obj
 0001:0002030b       ?savecurrentmap@@YAXXZ     0042130b f   worldio.obj
 0001:00020321       ?savemap@@YAXPAD@Z         00421321 f   worldio.obj
 0001:0002032f       ?writeobj@@YAXPAD@Z        0042132f f   worldio.obj
 0001:0002062f       ?add@?$vector@D@@QAEAADABD@Z 0042162f f i worldio.obj
 0001:0002062f       ?add@?$vector@E@@QAEAAEABE@Z 0042162f f i rendermodel.obj
 0001:0002065d       ?otherclients@@YA_N_N@Z    0042165d f   client.obj
 0001:0002068c       ?multiplayer@@YA_N_N@Z     0042168c f   client.obj
 0001:000206b3       ?setrate@@YAXH@Z           004216b3 f   client.obj
 0001:000206d5       ?var_rate@@YAXXZ           004216d5 f   client.obj
 0001:000206da       ?var_throttle_decel@@YAXXZ 004216da f   client.obj
 0001:000206da       ?var_throttle_interval@@YAXXZ 004216da f   client.obj
 0001:000206da       ?var_throttle_accel@@YAXXZ 004216da f   client.obj
 0001:000206df       ?throttle@@YAXXZ           004216df f   client.obj
 0001:000206fd       ?botabortconnect@@YAXPAUbot@@@Z 004216fd f   client.obj
 0001:00020728       ?botconnects@@YAXPAUbot@@PAD@Z 00421728 f   client.obj
 0001:000207e6       ?botdisconnect@@YAXPAUbot@@H@Z 004217e6 f   client.obj
 0001:00020896       ?botc2sinfo@@YAXPAUbot@@H@Z 00421896 f   client.obj
 0001:0002092f       ?botgets2c@@YAXPAUbot@@@Z  0042192f f   client.obj
 0001:00020ac1       ?botadd@@YAXXZ             00421ac1 f   client.obj
 0001:00020b66       ?abortconnect@@YAXXZ       00421b66 f   client.obj
 0001:00020ba4       ?connects@@YAXPAD@Z        00421ba4 f   client.obj
 0001:00020c8d       ?lanconnect@@YAXXZ         00421c8d f   client.obj
 0001:00020c96       ?disconnect@@YAXHH@Z       00421c96 f   client.obj
 0001:00020d4b       ?trydisconnect@@YAXXZ      00421d4b f   client.obj
 0001:00020d9a       ?sendpackettoserv@@YAXPAU_ENetPacket@@H@Z 00421d9a f   client.obj
 0001:00020dcc       ?c2sinfo@@YAXPAUdynent@@H@Z 00421dcc f   client.obj
 0001:00020eaf       ?neterr@@YAXPAD@Z          00421eaf f   client.obj
 0001:00020eca       ?localservertoclient@@YAXHPAEH@Z 00421eca f   client.obj
 0001:00020ef5       ?clientkeepalive@@YAXXZ    00421ef5 f   client.obj
 0001:00020f3b       ?connected@@YAXXZ          00421f3b f   client.obj
 0001:00020f4e       ?gets2c@@YAXXZ             00421f4e f   client.obj
 0001:000210e5       ?add@?$vector@PAUbot@@@@QAEAAPAUbot@@ABQAU2@@Z 004220e5 f i client.obj
 0001:00021128       ?vrealloc@?$vector@PAUbot@@@@QAEXXZ 00422128 f i client.obj
 0001:00021175       ?registergame@@YAXPADPAUigame@@@Z 00422175 f   server.obj
 0001:000211db       ?initgame@@YAXPAD@Z        004221db f   server.obj
 0001:000212da       ?putint@@YAXAAU?$databuf@E@@H@Z 004222da f   server.obj
 0001:00021367       ?getint@@YAHAAU?$databuf@E@@@Z 00422367 f   server.obj
 0001:000213cc       ?putuint@@YAXAAU?$databuf@E@@H@Z 004223cc f   server.obj
 0001:00021464       ?getuint@@YAHAAU?$databuf@E@@@Z 00422464 f   server.obj
 0001:000214cd       ?sendstring@@YAXPBDAAU?$databuf@E@@@Z 004224cd f   server.obj
 0001:000214ee       ?getstring@@YAXPADAAU?$databuf@E@@H@Z 004224ee f   server.obj
 0001:00021522       ?filtertext@@YAXPADPBD_NH@Z 00422522 f   server.obj
 0001:0002156a       ?sendfile@@YAXHHPAU_iobuf@@PBDZZ 0042256a f   server.obj
 0001:0002170c       ?getinfo@@YAPAXH@Z         0042270c f   server.obj
 0001:00021730       ?getclientip@@YAIH@Z       00422730 f   server.obj
 0001:00021754       ?sendpacket@@YAXHHPAU_ENetPacket@@H@Z 00422754 f   server.obj
 0001:000217e1       ?sendf@@YAXHHPBDZZ         004227e1 f   server.obj
 0001:00021971       ?disconnect_client@@YAXHH@Z 00422971 f   server.obj
 0001:00021a3b       ?process@@YAXPAU_ENetPacket@@HH@Z 00422a3b f   server.obj
 0001:00021a88       ?send_welcome@@YAXH@Z      00422a88 f   server.obj
 0001:00021af0       ?addclient@@YAAAUclient@@XZ 00422af0 f   server.obj
 0001:00021bdb       ?sendpongs@@YAXXZ          00422bdb f   server.obj
 0001:00021c8d       ?httpgetsend@@YAIAAU_ENetAddress@@PAD111PAU1@@Z 00422c8d f   server.obj
 0001:00021d34       ?httpgetreceive@@YA_NIAAUENetBuffer@@H@Z 00422d34 f   server.obj
 0001:00021d8c       ?stripheader@@YAPAEPAE@Z   00422d8c f   server.obj
 0001:00021db3       ?updatemasterserver@@YAXXZ 00422db3 f   server.obj
 0001:00021e60       ?checkmasterreply@@YAXXZ   00422e60 f   server.obj
 0001:00021e9f       ?retrieveservers@@YAPAEPAEH@Z 00422e9f f   server.obj
 0001:0002205c       ?serverslice@@YAXI@Z       0042305c f   server.obj
 0001:0002233a       ?localdisconnect@@YAXXZ    0042333a f   server.obj
 0001:000223aa       ?localconnect@@YAXXZ       004233aa f   server.obj
 0001:000223ce       ?initserver@@YAX_N@Z       004233ce f   server.obj
 0001:00022556       ?serveroption@@YA_NPAD@Z   00423556 f   server.obj
 0001:000225dc       ??0?$vector@H@@QAE@XZ      004235dc f i lightmap.obj
 0001:000225dc       ??0?$vector@PAUoctaentities@@@@QAE@XZ 004235dc f i octarender.obj
 0001:000225dc       ??0?$vector@PAUfpsent@@@@QAE@XZ 004235dc f i fps.obj
 0001:000225dc       ??0?$vector@PAD@@QAE@XZ    004235dc f i server.obj
 0001:000225f4       ?get@?$databuf@E@@QAEABEXZ 004235f4 f i server.obj
 0001:0002260f       ?put@?$databuf@E@@QAEXABE@Z 0042360f f i server.obj
 0001:00022629       ?put@?$databuf@E@@QAEXPBEH@Z 00423629 f i server.obj
 0001:00022667       ?find@?$hashtable@PADPAUigame@@@@QAEPAUchain@1@ABQAD_N@Z 00423667 f i server.obj
 0001:00022723       ?newstring@@YAPADPBDI@Z    00423723 f i serverbrowser.obj
 0001:0002273e       ?resolverloop@@YAHPAX@Z    0042373e f   serverbrowser.obj
 0001:00022869       ?resolverinit@@YAXXZ       00423869 f   serverbrowser.obj
 0001:00022920       ?resolverstop@@YAXAAUresolverthread@@@Z 00423920 f   serverbrowser.obj
 0001:0002295e       ?resolverclear@@YAXXZ      0042395e f   serverbrowser.obj
 0001:000229ca       ?resolverquery@@YAXPBD@Z   004239ca f   serverbrowser.obj
 0001:00022a0c       ?resolvercheck@@YA_NPAPBDPAU_ENetAddress@@@Z 00423a0c f   serverbrowser.obj
 0001:00022aa9       ?resolverwait@@YA_NPBDPAU_ENetAddress@@@Z 00423aa9 f   serverbrowser.obj
 0001:00022c63       ?connectthread@@YAHPAX@Z   00423c63 f   serverbrowser.obj
 0001:00022d1c       ?connectwithtimeout@@YAHIPADAAU_ENetAddress@@@Z 00423d1c f   serverbrowser.obj
 0001:00022e9d       ?addserver@@YAXPAD@Z       00423e9d f   serverbrowser.obj
 0001:00022f24       ?pingservers@@YAXXZ        00423f24 f   serverbrowser.obj
 0001:00022fef       ?checkresolver@@YAXXZ      00423fef f   serverbrowser.obj
 0001:000230c7       ?checkpings@@YAXXZ         004240c7 f   serverbrowser.obj
 0001:00023222       ?sicompare@@YAHPAUserverinfo@@0@Z 00424222 f   serverbrowser.obj
 0001:00023236       ?refreshservers@@YAXXZ     00424236 f   serverbrowser.obj
 0001:00023273       ?showservers@@YAPBDPAUg3d_gui@@@Z 00424273 f   serverbrowser.obj
 0001:000232b1       ?updatefrommaster@@YAXXZ   004242b1 f   serverbrowser.obj
 0001:00023349       ?writeservercfg@@YAXXZ     00424349 f   serverbrowser.obj
 0001:000233aa       ?add@?$vector@Userverinfo@@@@QAEAAUserverinfo@@XZ 004243aa f i serverbrowser.obj
 0001:0002341c       ?setsize@?$vector@Userverinfo@@@@QAEXH@Z 0042441c f i serverbrowser.obj
 0001:00023461       ?vrealloc@?$vector@Uresolverresult@@@@QAEXXZ 00424461 f i serverbrowser.obj
 0001:000234ae       ?vrealloc@?$vector@Userverinfo@@@@QAEXXZ 004244ae f i serverbrowser.obj
 0001:00023501       _enet_malloc               00424501 f   callbacks.obj
 0001:0002351d       _enet_host_create          0042451d f   host.obj
 0001:000236bf       _enet_host_destroy         004246bf f   host.obj
 0001:00023709       _enet_host_connect         00424709 f   host.obj
 0001:00023886       _enet_host_bandwidth_throttle 00424886 f   host.obj
 0001:00023b89       _enet_packet_create        00424b89 f   packet.obj
 0001:00023bde       _enet_packet_destroy       00424bde f   packet.obj
 0001:00023c02       _enet_packet_resize        00424c02 f   packet.obj
 0001:00023c42       _enet_peer_throttle_configure 00424c42 f   peer.obj
 0001:00023c99       _enet_peer_throttle        00424c99 f   peer.obj
 0001:00023cee       _enet_peer_send            00424cee f   peer.obj
 0001:00023e52       _enet_peer_receive         00424e52 f   peer.obj
 0001:00023f81       _enet_peer_reset_queues    00424f81 f   peer.obj
 0001:0002401e       _enet_peer_reset           0042501e f   peer.obj
 0001:000240f2       _enet_peer_disconnect      004250f2 f   peer.obj
 0001:0002417f       _enet_peer_queue_acknowledgement 0042517f f   peer.obj
 0001:000241b7       _enet_peer_queue_outgoing_command 004251b7 f   peer.obj
 0001:000242ac       _enet_peer_queue_incoming_command 004252ac f   peer.obj
 0001:00025c63       _enet_host_flush           00426c63 f   protocol.obj
 0001:00025c79       _enet_host_service         00426c79 f   protocol.obj
 0001:00025df5       _enet_initialize           00426df5 f   win32.obj
 0001:00025e3a       _enet_time_get             00426e3a f   win32.obj
 0001:00025e47       _enet_address_set_host     00426e47 f   win32.obj
 0001:00025e7a       _enet_address_get_host_ip  00426e7a f   win32.obj
 0001:00025ea0       _enet_socket_create        00426ea0 f   win32.obj
 0001:00025f23       _enet_socket_set_option    00426f23 f   win32.obj
 0001:00025f89       _enet_socket_connect       00426f89 f   win32.obj
 0001:00025fca       _enet_socket_send          00426fca f   win32.obj
 0001:0002603a       _enet_socket_receive       0042703a f   win32.obj
 0001:000260c0       _enet_socket_wait          004270c0 f   win32.obj
 0001:00026170       ??1g3d_gui@@UAE@XZ         00427170 f i 3dgui.obj
 0001:00026177       ??3@YAXPAX0@Z              00427177 f i lightmap.obj
 0001:00026177       ?poplist@g3d_gui@@UAEXXZ   00427177 f i 3dgui.obj
 0001:00026177       ?adddynlights@igameclient@@UAEXXZ 00427177 f i fps.obj
 0001:00026177       ?setupcamera@fpsclient@@UAEXXZ 00427177 f i fps.obj
 0001:00026177       ?endrender@model@@UAEXXZ   00427177 f i rendermodel.obj
 0001:00026177       ?pushlist@g3d_gui@@UAEXXZ  00427177 f i 3dgui.obj
 0001:00026177       ?intermission@servmode@fpsserver@@UAEXXZ 00427177 f i fps.obj
 0001:00026177       ?update@servmode@fpsserver@@UAEXXZ 00427177 f i fps.obj
 0001:00026177       ?intermission@duelservmode@fpsserver@@UAEXXZ 00427177 f i fps.obj
 0001:00026177       ?setupcamera@igameclient@@UAEXXZ 00427177 f i fps.obj
 0001:00026177       ?startrender@model@@UAEXXZ 00427177 f i rendermodel.obj
 0001:00026177       ?fixview@igameclient@@UAEXXZ 00427177 f i fps.obj
 0001:00026178       ??_Gg3d_gui@@UAEPAXI@Z     00427178 f i 3dgui.obj
 0001:00026178       ??_Eg3d_gui@@UAEPAXI@Z     00427178 f i  CIL library: CIL module
 0001:00026195       ?menukey@@YA_NH_NH@Z       00427195 f   3dgui.obj
 0001:00026330       ?g3d_movecursor@@YA_NHH@Z  00427330 f   3dgui.obj
 0001:000263cf       ?autotab@gui@@QAEXXZ       004273cf f i 3dgui.obj
 0001:0002642e       ?visible@gui@@QAE_NXZ      0042742e f i 3dgui.obj
 0001:00026451       ?tab@gui@@UAEXPBDH@Z       00427451 f i 3dgui.obj
 0001:000265e8       ?pushlist@gui@@UAEXXZ      004275e8 f i 3dgui.obj
 0001:0002669c       ?poplist@gui@@UAEXXZ       0042769c f i 3dgui.obj
 0001:00026724       ?text@gui@@UAEHPBDH0@Z     00427724 f i 3dgui.obj
 0001:00026746       ?button@gui@@UAEHPBDH0@Z   00427746 f i 3dgui.obj
 0001:00026768       ?title@gui@@UAEHPBDH0@Z    00427768 f i 3dgui.obj
 0001:0002678a       ?separator@gui@@UAEXXZ     0042778a f i 3dgui.obj
 0001:000267a3       ?progress@gui@@UAEXM@Z     004277a3 f i 3dgui.obj
 0001:000267ce       ?strut@gui@@UAEXH@Z        004277ce f i 3dgui.obj
 0001:0002680a       ?space@gui@@UAEXH@Z        0042780a f i 3dgui.obj
 0001:00026846       ?layout@gui@@QAEHHH@Z      00427846 f i 3dgui.obj
 0001:000268ce       ?ishit@gui@@QAE_NHHHH@Z    004278ce f i 3dgui.obj
 0001:0002694f       ?image@gui@@UAEHPBDM_N@Z   0042794f f i 3dgui.obj
 0001:000269fc       ?texture@gui@@UAEHPAUTexture@@M@Z 004279fc f i 3dgui.obj
 0001:00026a91       ?slider@gui@@UAEXAAHHHHPAD@Z 00427a91 f i 3dgui.obj
 0001:00026c47       ?field@gui@@UAEPADPADHH0@Z 00427c47 f i 3dgui.obj
 0001:00026fc7       ?rect_@gui@@QAEXMMMMH@Z    00427fc7 f i 3dgui.obj
 0001:000270a5       ?text_@gui@@QAEXPBDHHH_N@Z 004280a5 f i 3dgui.obj
 0001:000270f1       ?background@gui@@UAEXHHH@Z 004280f1 f i 3dgui.obj
 0001:000271f0       ?icon_@gui@@QAEXPAUTexture@@_N1HHH1@Z 004281f0 f i 3dgui.obj
 0001:0002753b       ?line_@gui@@QAEXHM@Z       0042853b f i 3dgui.obj
 0001:00027765       ?button_@gui@@QAEHPBDH0_N1@Z 00428765 f i 3dgui.obj
 0001:000278ce       ?skin_@gui@@QAEXHHHHHH@Z   004288ce f i 3dgui.obj
 0001:00027bc3       ?adjustscale@gui@@QAEXXZ   00428bc3 f i 3dgui.obj
 0001:00027cd3       ?start@gui@@UAEXHMPAH_N@Z  00428cd3 f i 3dgui.obj
 0001:00027e98       ?end@gui@@UAEXXZ           00428e98 f i 3dgui.obj
 0001:00028066       ?g3d_addgui@@YAXPAUg3d_callback@@AAUvec@@_N@Z 00429066 f   3dgui.obj
 0001:000280b8       ?g3d_sort@@YAHPAUgui@@0@Z  004290b8 f   3dgui.obj
 0001:000280db       ?g3d_windowhit@@YA_N_N0@Z  004290db f   3dgui.obj
 0001:00028112       ?g3d_render@@YAXXZ         00429112 f   3dgui.obj
 0001:000282f3       ?add@?$vector@Ugui@@@@QAEAAUgui@@XZ 004292f3 f i 3dgui.obj
 0001:00028362       ?setsize@?$vector@Ugui@@@@QAEXH@Z 00429362 f i 3dgui.obj
 0001:0002838a       ??_Ggui@@UAEPAXI@Z         0042938a f i 3dgui.obj
 0001:0002838a       ??_Egui@@UAEPAXI@Z         0042938a f i  CIL library: CIL module
 0001:000283c3       ?vrealloc@?$vector@Ulist@gui@@@@QAEXXZ 004293c3 f i 3dgui.obj
 0001:00028410       ?vrealloc@?$vector@Ugui@@@@QAEXXZ 00429410 f i 3dgui.obj
 0001:0002845d       ?triintersect@BIH@@SA_NAAUtri@1@ABUvec@@1MAAMH@Z 0042945d f   bih.obj
 0001:00028674       ?traverse@BIH@@QAE_NABUvec@@0MAAMH@Z 00429674 f   bih.obj
 0001:00028c58       ?build@BIH@@QAEXAAU?$vector@UBIHNode@@@@PAGHH@Z 00429c58 f   bih.obj
 0001:00029235       ??0BIH@@QAE@HPAUtri@0@@Z   0042a235 f   bih.obj
 0001:00029448       ?mmintersect@@YA_NABUextentity@@ABUvec@@1MHAAM@Z 0042a448 f   bih.obj
 0001:00029f66       ?collide@BIH@@QAE_NABUvec@@00MAAU2@@Z 0042af66 f   bih.obj
 0001:0002a219       ?rotatebb@@YAXAAUvec@@0H@Z 0042b219 f   bih.obj
 0001:0002a5d5       ?mmcollide@@YA_NPAUphysent@@ABUvec@@MAAUoctaentities@@AAU2@@Z 0042b5d5 f   bih.obj
 0001:0002a804       ?add@?$vector@PAUBIHNode@@@@QAEAAPAUBIHNode@@ABQAU2@@Z 0042b804 f i bih.obj
 0001:0002a847       ?vrealloc@?$vector@UBIHStack@@@@QAEXXZ 0042b847 f i bih.obj
 0001:0002a894       ?vrealloc@?$vector@PAUBIHNode@@@@QAEXXZ 0042b894 f i bih.obj
 0001:0002a8e1       _fmodf                     0042b8e1 f i grass.obj
 0001:0002a904       ?fmod@@YAMMM@Z             0042b904 f i grass.obj
 0001:0002a91f       ?var_grassgrid@@YAXXZ      0042b91f f   grass.obj
 0001:0002a96c       ?gengrasssample@@YAXPAUvtxarray@@ABUvec@@MMPAULightMap@@@Z 0042b96c f   grass.obj
 0001:0002aa35       ?gengrassheader@@YA_NPAUvtxarray@@PBUvec@@@Z 0042ba35 f   grass.obj
 0001:0002ab96       ?gengrasssamples@@YAXPAUvtxarray@@PBUvec@@PAMPAULightMap@@@Z 0042bb96 f   grass.obj
 0001:0002b2c1       ?gengrasssamples@@YAXPAUvtxarray@@@Z 0042c2c1 f   grass.obj
 0001:0002b4ba       ?loddist@@YAMABUvec@@@Z    0042c4ba f   grass.obj
 0001:0002b546       ?rendergrasssample@@YAXABUgrasssample@@ABUvec@@MHMH@Z 0042c546 f   grass.obj
 0001:0002ba74       ?rendergrasssamples@@YAXPAUvtxarray@@ABUvec@@@Z 0042ca74 f   grass.obj
 0001:0002be14       ?setupgrass@@YAXXZ         0042ce14 f   grass.obj
 0001:0002bec4       ?cleanupgrass@@YAXXZ       0042cec4 f   grass.obj
 0001:0002bf08       ?rendergrass@@YAXXZ        0042cf08 f   grass.obj
 0001:0002c038       ?add@?$vector@Ugrasssample@@@@QAEAAUgrasssample@@XZ 0042d038 f i grass.obj
 0001:0002c058       ?vrealloc@?$vector@Ugrasssample@@@@QAEXXZ 0042d058 f i grass.obj
 0001:0002c09e       ?compressfind@unionfind@@QAEHH@Z 0042d09e f i material.obj
 0001:0002c0bd       ?unite@unionfind@@QAEXHH@Z 0042d0bd f i material.obj
 0001:0002c18e       ??1QuadNode@@QAE@XZ        0042d18e f i material.obj
 0001:0002c1b8       ?insert@QuadNode@@QAEXHHH@Z 0042d1b8 f i material.obj
 0001:0002c2c9       ?genmatsurf@QuadNode@@QAEXEEHHHHAAPAUmaterialsurface@@@Z 0042d2c9 f i material.obj
 0001:0002c310       ?genmatsurfs@QuadNode@@QAEXEEHAAPAUmaterialsurface@@@Z 0042d310 f i material.obj
 0001:0002c3b3       ?renderwaterfall@@YAXAAUmaterialsurface@@PAUTexture@@MME@Z 0042d3b3 f   material.obj
 0001:0002c585       ?drawmaterial@@YAXHHHHHHM@Z 0042d585 f   material.obj
 0001:0002c671       ?findmaterial@@YAHPBD@Z    0042d671 f   material.obj
 0001:0002c69f       ?visiblematerial@@YAHAAUcube@@HHHHH@Z 0042d69f f   material.obj
 0001:0002c73b       ?genmatsurfs@@YAXAAUcube@@HHHHAAU?$vector@Umaterialsurface@@@@@Z 0042d73b f   material.obj
 0001:0002ca52       ?optimizematsurfs@@YAHPAUmaterialsurface@@H@Z 0042da52 f   material.obj
 0001:0002cc36       ?setupmaterials@@YAXXZ     0042dc36 f   material.obj
 0001:0002d2a8       ??1unionfind@@QAE@XZ       0042e2a8 f i material.obj
 0001:0002d2a8       ??1nval@@QAE@XZ            0042e2a8 f i normal.obj
 0001:0002d42a       ?sortmaterials@@YAXAAU?$vector@PAUmaterialsurface@@@@M_N@Z 0042e42a f   material.obj
 0001:0002d642       ?rendermatgrid@@YAXAAU?$vector@PAUmaterialsurface@@@@@Z 0042e642 f   material.obj
 0001:0002d6f2       ?drawglass@@YAXHHHHHHM@Z   0042e6f2 f   material.obj
 0001:0002d83d       ?rendermaterials@@YAXM_N@Z 0042e83d f   material.obj
 0001:0002e243       ??0?$hashtable@PADPAUigame@@@@QAE@H@Z 0042f243 f i server.obj
 0001:0002e243       ??0?$hashtable@PADU?$tident@X@@@@QAE@H@Z 0042f243 f i command.obj
 0001:0002e243       ??0?$hashtable@Uivec@@H@@QAE@H@Z 0042f243 f i material.obj
 0001:0002e284       ?rotate_around_x@vec@@QAEXM@Z 0042f284 f i rendergl.obj
 0001:0002e2eb       ?rotate_around_y@vec@@QAEXM@Z 0042f2eb f i rendergl.obj
 0001:0002e351       ?gl_init@@YAXHHHHH@Z       0042f351 f   rendergl.obj
 0001:0002ecf4       ?transplayer@@YAXXZ        0042fcf4 f   rendergl.obj
 0001:0002edc8       ?var_thirdpersonheight@@YAXXZ 0042fdc8 f   rendergl.obj
 0001:0002edc8       ?var_thirdpersonscale@@YAXXZ 0042fdc8 f   rendergl.obj
 0001:0002edc8       ?var_thirdpersondistance@@YAXXZ 0042fdc8 f   rendergl.obj
 0001:0002edc8       ?var_thirdperson@@YAXXZ    0042fdc8 f   rendergl.obj
 0001:0002edc8       ?var_thirdpersonstick@@YAXXZ 0042fdc8 f   rendergl.obj
 0001:0002edc8       ?var_fov@@YAXXZ            0042fdc8 f   rendergl.obj
 0001:0002edd6       ?isthirdperson@@YA_NXZ     0042fdd6 f   rendergl.obj
 0001:0002ee0d       ?project@@YAXMMH_N0@Z      0042fe0d f   rendergl.obj
 0001:0002ee9b       ?genclipmatrix@@YAXMMMMQAM@Z 0042fe9b f   rendergl.obj
 0001:0002efa8       ?setclipmatrix@@YAXQAM@Z   0042ffa8 f   rendergl.obj
 0001:0002efcf       ?undoclipmatrix@@YAXXZ     0042ffcf f   rendergl.obj
 0001:0002efec       ?setfogplane@@YAXMM_N@Z    0042ffec f   rendergl.obj
 0001:0002f089       ?drawreflection@@YAXM_N0@Z 00430089 f   rendergl.obj
 0001:0002f6e3       ?drawcubemap@@YAXHABUvec@@MM@Z 004306e3 f   rendergl.obj
 0001:0002f8c1       ?gl_drawframe@@YAXHH@Z     004308c1 f   rendergl.obj
 0001:0002fc93       ?loadcrosshair@@YAXPBD@Z   00430c93 f   rendergl.obj
 0001:0002fcc7       ?drawcrosshair@@YAXHH@Z    00430cc7 f   rendergl.obj
 0001:0002fef5       ?gl_drawhud@@YAXHHH@Z      00430ef5 f   rendergl.obj
 0001:00030379       ?renderprimitive@@YAX_N@Z  00431379 f   rendergl.obj
 0001:000303e3       ?renderline@@YAXAAUvec@@0MMM_N@Z 004313e3 f   rendergl.obj
 0001:0003052c       ?rendertris@@YAXAAUvec@@MMMMMM_N1@Z 0043152c f   rendergl.obj
 0001:00030916       ?renderlineloop@@YAXAAUvec@@MMMMHMMM_N@Z 00431916 f   rendergl.obj
 0001:00030acc       ?renderentdir@@YAXAAUvec@@MM_N@Z 00431acc f   rendergl.obj
 0001:00030be4       ?renderentradius@@YAXAAUvec@@MM_N@Z 00431be4 f   rendergl.obj
 0001:00030c8e       ?rendericon@@YA_NPBDHHHH@Z 00431c8e f   rendergl.obj
 0001:00030d47       ?getlos@@YA_NAAUvec@@0MMMMM@Z 00431d47 f   rendergl.obj
 0001:00030e5e       ?getsight@@YA_NPAUphysent@@AAUvec@@1MMM@Z 00431e5e f   rendergl.obj
 0001:00030eaf       ?titlecard@@YA_NHHH@Z      00431eaf f   rendergl.obj
 0001:00031034       ??9animstate@@QBE_NABU0@@Z 00432034 f i rendermodel.obj
 0001:0003107a       ??1model@@UAE@XZ           0043207a f i rendermodel.obj
 0001:000310bd       ?boundsphere@model@@QAEMHAAUvec@@PAUmodelattach@@@Z 004320bd f i rendermodel.obj
 0001:000310ea       ??_Gmodel@@UAEPAXI@Z       004320ea f i rendermodel.obj
 0001:000310ea       ??_Emodel@@UAEPAXI@Z       004320ea f i  CIL library: CIL module
 0001:00031106       ?link@triangle@tristrip@@QAE_NGG@Z 00432106 f i rendermodel.obj
 0001:00031146       ?addtriangles@tristrip@@QAEXPBGH@Z 00432146 f i rendermodel.obj
 0001:00031225       ?findconnectivity@tristrip@@QAEXXZ 00432225 f i rendermodel.obj
 0001:000314a4       ?removeconnectivity@tristrip@@QAEXG@Z 004324a4 f i rendermodel.obj
 0001:00031554       ?findedge@tristrip@@QAEHABUtriangle@1@0G@Z 00432554 f i rendermodel.obj
 0001:00031585       ?nexttriangle@tristrip@@QAEGAAUtriangle@1@AA_NGG@Z 00432585 f i rendermodel.obj
 0001:000316da       ?buildstrip@tristrip@@QAEXAAU?$vector@G@@_N1@Z 004326da f i rendermodel.obj
 0001:00031878       ?buildstrips@tristrip@@QAEXAAU?$vector@G@@_N1@Z 00432878 f i rendermodel.obj
 0001:000319cc       ?setframes@anpos@vertmodel@@QAEXABUanimstate@@@Z 004329cc f i rendermodel.obj
 0001:00031a8a       ??8anpos@vertmodel@@QBE_NABU01@@Z 00432a8a f i rendermodel.obj
 0001:00031ab5       ??9anpos@vertmodel@@QBE_NABU01@@Z 00432ab5 f i rendermodel.obj
 0001:00031ae0       ?envmapped@skin@vertmodel@@QAE_NXZ 00432ae0 f i rendermodel.obj
 0001:00031b16       ?normals@skin@vertmodel@@QAE_NXZ 00432b16 f i rendermodel.obj
 0001:00031b46       ?setuptmus@skin@vertmodel@@QAEXAAUanimstate@@_N@Z 00432b46 f i rendermodel.obj
 0001:00032104       ?setshader@skin@vertmodel@@QAEXAAUanimstate@@_N@Z 00433104 f i rendermodel.obj
 0001:00032476       ?bind@skin@vertmodel@@QAEXAAUanimstate@@@Z 00433476 f i rendermodel.obj
 0001:00032821       ??0mesh@vertmodel@@QAE@XZ  00433821 f i rendermodel.obj
 0001:0003284c       ??1mesh@vertmodel@@QAE@XZ  0043384c f i rendermodel.obj
 0001:000328d6       ?copy@mesh@vertmodel@@QAEPAU12@XZ 004338d6 f i rendermodel.obj
 0001:000329d3       ?calcbb@mesh@vertmodel@@QAEXHAAUvec@@0QAM@Z 004339d3 f i rendermodel.obj
 0001:00032a85       ?gentris@mesh@vertmodel@@QAEXHPAUTexture@@AAU?$vector@Utri@BIH@@@@QAM@Z 00433a85 f i rendermodel.obj
 0001:00032c4f       ?genstripbuf@mesh@vertmodel@@QAEXXZ 00433c4f f i rendermodel.obj
 0001:00032d7f       ?genvbo@mesh@vertmodel@@QAEHAAU?$vector@G@@HAAU?$vector@Uvvert@vertmodel@@@@_N@Z 00433d7f f i rendermodel.obj
 0001:00032f75       ?interpverts@mesh@vertmodel@@QAEXAAUanpos@2@PAU32@M_NPAXAAUskin@2@@Z 00433f75 f i rendermodel.obj
 0001:00033c2d       ?render@mesh@vertmodel@@QAEXAAUanimstate@@AAUanpos@2@PAU42@MAAUskin@2@PAUvbocacheentry@2@@Z 00434c2d f i rendermodel.obj
 0001:000342e5       ??0tag@vertmodel@@QAE@XZ   004352e5 f i rendermodel.obj
 0001:000342eb       ??1tag@vertmodel@@QAE@XZ   004352eb f i rendermodel.obj
 0001:00034300       ??0meshgroup@vertmodel@@QAE@XZ 00435300 f i rendermodel.obj
 0001:00034389       ??1meshgroup@vertmodel@@UAE@XZ 00435389 f i rendermodel.obj
 0001:0003447c       ?anyvert@meshgroup@vertmodel@@QAE?AUvec@@H@Z 0043547c f i rendermodel.obj
 0001:000344d3       ?copy@meshgroup@vertmodel@@QAEPAU12@XZ 004354d3 f i rendermodel.obj
 0001:0003463c       ?scaleverts@meshgroup@vertmodel@@QAEPAU12@MABUvec@@@Z 0043563c f i rendermodel.obj
 0001:000347b1       ?concattagtransform@meshgroup@vertmodel@@QAEXHHQAM0@Z 004357b1 f i rendermodel.obj
 0001:00034841       ?calctagmatrix@meshgroup@vertmodel@@QAEXHABUanpos@2@PBU32@MPAM@Z 00435841 f i rendermodel.obj
 0001:00034a61       ?genvbo@meshgroup@vertmodel@@QAEX_NAAUvbocacheentry@2@@Z 00435a61 f i rendermodel.obj
 0001:00034c59       ?bindvbo@meshgroup@vertmodel@@QAEXAAUanimstate@@AAUvbocacheentry@2@@Z 00435c59 f i rendermodel.obj
 0001:00034d2b       ?render@meshgroup@vertmodel@@QAEXAAUanimstate@@AAUanpos@2@PAU42@MAAU?$vector@Uskin@vertmodel@@@@@Z 00435d2b f i rendermodel.obj
 0001:000350e3       ??0part@vertmodel@@QAE@XZ  004360e3 f i rendermodel.obj
 0001:00035158       ??1part@vertmodel@@UAE@XZ  00436158 f i rendermodel.obj
 0001:000351d9       ?calcbb@part@vertmodel@@QAEXHAAUvec@@0QAM@Z 004361d9 f i rendermodel.obj
 0001:0003526f       ?gentris@part@vertmodel@@QAEXHAAU?$vector@Utri@BIH@@@@QAM@Z 0043626f f i rendermodel.obj
 0001:00035305       ?link@part@vertmodel@@QAE_NPAU12@PBDHH@Z 00436305 f i rendermodel.obj
 0001:000353f8       ?initskins@part@vertmodel@@QAEXPAUTexture@@0@Z 004363f8 f i rendermodel.obj
 0001:0003550f       ?getdefaultanim@part@vertmodel@@UAEXAAUanimstate@@HHPAUdynent@@@Z 0043650f f i rendermodel.obj
 0001:00035521       ?calcanimstate@part@vertmodel@@QAE_NHHMHPAUdynent@@AAUanimstate@@@Z 00436521 f i rendermodel.obj
 0001:0003578c       ?calcnormal@part@vertmodel@@QAEXPAMAAUvec@@@Z 0043678c f i rendermodel.obj
 0001:000357e9       ?calcvertex@part@vertmodel@@QAEXPAMAAUvec@@@Z 004367e9 f i rendermodel.obj
 0001:00035861       ?calcpitchaxis@part@vertmodel@@QAEMHMAAUvec@@00AAUplane@@@Z 00436861 f i rendermodel.obj
 0001:0003598a       ?render@part@vertmodel@@QAEXHHMHMABUvec@@PAUdynent@@00ABUplane@@@Z 0043698a f i rendermodel.obj
 0001:00035f4b       ?setanim@part@vertmodel@@QAEXHHHMH@Z 00436f4b f i rendermodel.obj
 0001:0003601f       ??0vertmodel@@QAE@PBD@Z    0043701f f i rendermodel.obj
 0001:000360d0       ??1vertmodel@@UAE@XZ       004370d0 f i rendermodel.obj
 0001:00036147       ?name@vertmodel@@UAEPADXZ  00437147 f i rendermodel.obj
 0001:0003614b       ?loadmeshes@vertmodel@@UAEPAUmeshgroup@1@PAD@Z 0043714b f i rendermodel.obj
 0001:00036150       ?sharemeshes@vertmodel@@QAEPAUmeshgroup@1@PAD@Z 00437150 f i rendermodel.obj
 0001:000361cc       ?gentris@vertmodel@@QAEXHAAU?$vector@Utri@BIH@@@@@Z 004371cc f i rendermodel.obj
 0001:00036217       ?setBIH@vertmodel@@UAEPAUBIH@@XZ 00437217 f i rendermodel.obj
 0001:000362ac       ?calcbb@vertmodel@@UAEXHAAUvec@@0@Z 004372ac f i rendermodel.obj
 0001:0003638d       ?link@vertmodel@@QAE_NPAUpart@1@PBDHH@Z 0043738d f i rendermodel.obj
 0001:000363c8       ?setskin@vertmodel@@UAEXH@Z 004373c8 f i rendermodel.obj
 0001:000363fe       ?envmapped@vertmodel@@UAE_NXZ 004373fe f i rendermodel.obj
 0001:0003645e       ?setshader@vertmodel@@UAEXPAUShader@@@Z 0043745e f i rendermodel.obj
 0001:000364a1       ?setenvmap@vertmodel@@UAEXMMPAUTexture@@@Z 004374a1 f i rendermodel.obj
 0001:00036504       ?setspec@vertmodel@@UAEXM@Z 00437504 f i rendermodel.obj
 0001:00036545       ?setambient@vertmodel@@UAEXM@Z 00437545 f i rendermodel.obj
 0001:00036586       ?setglow@vertmodel@@UAEXM@Z 00437586 f i rendermodel.obj
 0001:000365c7       ?setalphatest@vertmodel@@UAEXM@Z 004375c7 f i rendermodel.obj
 0001:00036608       ?setalphablend@vertmodel@@UAEX_N@Z 00437608 f i rendermodel.obj
 0001:0003664b       ?settranslucency@vertmodel@@UAEXM@Z 0043764b f i rendermodel.obj
 0001:0003668c       ?setfullbright@vertmodel@@UAEXM@Z 0043768c f i rendermodel.obj
 0001:000366cd       ?render@vertmodel@@UAEXHHMHMABUvec@@PAUdynent@@PAUmodelattach@@00ABUplane@@@Z 004376cd f i rendermodel.obj
 0001:000366d0       ?render@vertmodel@@UAEXHHMHABUvec@@MMPAUdynent@@PAUmodelattach@@00@Z 004376d0 f i rendermodel.obj
 0001:00036afe       ?startrender@vertmodel@@UAEXXZ 00437afe f i rendermodel.obj
 0001:00036bb4       ?disablemtc@vertmodel@@SAXXZ 00437bb4 f i rendermodel.obj
 0001:00036bdd       ?disabletc@vertmodel@@SAXXZ 00437bdd f i rendermodel.obj
 0001:00036c09       ?disablevbo@vertmodel@@SAXXZ 00437c09 f i rendermodel.obj
 0001:00036c44       ?disableglow@vertmodel@@SAXXZ 00437c44 f i rendermodel.obj
 0001:00036c8d       ?disableenvmap@vertmodel@@SAXXZ 00437c8d f i rendermodel.obj
 0001:00036cd8       ?endrender@vertmodel@@UAEXXZ 00437cd8 f i rendermodel.obj
 0001:00036d4c       ??1tristrip@@QAE@XZ        00437d4c f i rendermodel.obj
 0001:00036da5       ??_Gmeshgroup@vertmodel@@UAEPAXI@Z 00437da5 f i rendermodel.obj
 0001:00036da5       ??_Emeshgroup@vertmodel@@UAEPAXI@Z 00437da5 f i  CIL library: CIL module
 0001:00036dc1       ??_Gpart@vertmodel@@UAEPAXI@Z 00437dc1 f i rendermodel.obj
 0001:00036dc1       ??_Epart@vertmodel@@UAEPAXI@Z 00437dc1 f i  CIL library: CIL module
 0001:00036ddd       ??_Gvertmodel@@UAEPAXI@Z   00437ddd f i rendermodel.obj
 0001:00036ddd       ??_Evertmodel@@UAEPAXI@Z   00437ddd f i  CIL library: CIL module
 0001:00036dfa       ?localplayers@igameclient@@UAEHXZ 00437dfa f i fps.obj
 0001:00036dfa       ?numchannels@iclientcom@@UAEHXZ 00437dfa f i fps.obj
 0001:00036dfa       ?type@md2@@UAEHXZ          00437dfa f i rendermodel.obj
 0001:00036dfe       ?gentcverts@md2meshgroup@md2@@QAEXPAHAAU?$vector@Utcvert@vertmodel@@@@AAU?$vector@Utri@vertmodel@@@@@Z 00437dfe f i rendermodel.obj
 0001:0003706d       ?load@md2meshgroup@md2@@QAE_NPAD@Z 0043806d f i rendermodel.obj
 0001:000374a6       ?getdefaultanim@md2part@md2@@UAEXAAUanimstate@@HHPAUdynent@@@Z 004384a6 f i rendermodel.obj
 0001:00037502       ?render@md2@@UAEXHHMHMABUvec@@PAUdynent@@PAUmodelattach@@00ABUplane@@@Z 00438502 f i rendermodel.obj
 0001:000375c0       ?extendbb@md2@@UAEXHAAUvec@@0AAUmodelattach@@@Z 004385c0 f i rendermodel.obj
 0001:00037699       ?loadmeshes@md2@@UAEPAUmeshgroup@vertmodel@@PAD@Z 00438699 f i rendermodel.obj
 0001:00037708       ?load@md2@@UAE_NXZ         00438708 f i rendermodel.obj
 0001:00037907       ??_Gmd3@@UAEPAXI@Z         00438907 f i rendermodel.obj
 0001:00037907       ??_Emd3@@UAEPAXI@Z         00438907 f i  CIL library: CIL module
 0001:00037907       ??_Gmd2@@UAEPAXI@Z         00438907 f i rendermodel.obj
 0001:00037907       ??_Emd2@@UAEPAXI@Z         00438907 f i  CIL library: CIL module
 0001:00037940       ??_Gmd2part@md2@@UAEPAXI@Z 00438940 f i rendermodel.obj
 0001:00037940       ??_Emd2part@md2@@UAEPAXI@Z 00438940 f i  CIL library: CIL module
 0001:00037978       ?md2pitch@@YAXPAM000@Z     00438978 f   rendermodel.obj
 0001:000379f4       ?md2anim@@YAXPADPAH1PAM1@Z 004389f4 f   rendermodel.obj
 0001:00037abc       ?type@md3@@UAEHXZ          00438abc f i rendermodel.obj
 0001:00037ac0       ?load@md3meshgroup@md3@@QAE_NPAD@Z 00438ac0 f i rendermodel.obj
 0001:000380df       ?render@md3@@UAEXHHMHMABUvec@@PAUdynent@@PAUmodelattach@@00ABUplane@@@Z 004390df f i rendermodel.obj
 0001:000381e6       ?extendbb@md3@@UAEXHAAUvec@@0AAUmodelattach@@@Z 004391e6 f i rendermodel.obj
 0001:0003826a       ?loadmeshes@md3@@UAEPAUmeshgroup@vertmodel@@PAD@Z 0043926a f i rendermodel.obj
 0001:000382db       ?loaddefaultparts@md3@@UAE_NXZ 004392db f i rendermodel.obj
 0001:000383f4       ?load@md3@@UAE_NXZ         004393f4 f i rendermodel.obj
 0001:00038503       ??_Emd2meshgroup@md2@@UAEPAXI@Z 00439503 f i  CIL library: CIL module
 0001:00038503       ??_Gmd3meshgroup@md3@@UAEPAXI@Z 00439503 f i rendermodel.obj
 0001:00038503       ??_Emd3meshgroup@md3@@UAEPAXI@Z 00439503 f i  CIL library: CIL module
 0001:00038503       ??_Gmd2meshgroup@md2@@UAEPAXI@Z 00439503 f i rendermodel.obj
 0001:0003853b       ?md3load@@YAXPAD@Z         0043953b f   rendermodel.obj
 0001:0003862a       ?md3pitch@@YAXPAM000@Z     0043962a f   rendermodel.obj
 0001:000386a6       ?md3skin@@YAXPAD00PAM1@Z   004396a6 f   rendermodel.obj
 0001:000387de       ?md3spec@@YAXPADPAH@Z      004397de f   rendermodel.obj
 0001:00038887       ?md3ambient@@YAXPADPAH@Z   00439887 f   rendermodel.obj
 0001:00038934       ?md3glow@@YAXPADPAH@Z      00439934 f   rendermodel.obj
 0001:000389e1       ?md3alphatest@@YAXPADPAM@Z 004399e1 f   rendermodel.obj
 0001:00038ac0       ?md3alphablend@@YAXPADPAH@Z 00439ac0 f   rendermodel.obj
 0001:00038b4c       ?md3envmap@@YAXPAD0@Z      00439b4c f   rendermodel.obj
 0001:00038bdf       ?md3translucent@@YAXPADPAM@Z 00439bdf f   rendermodel.obj
 0001:00038c67       ?md3fullbright@@YAXPADPAM@Z 00439c67 f   rendermodel.obj
 0001:00038cef       ?md3shader@@YAXPAD0@Z      00439cef f   rendermodel.obj
 0001:00038d7a       ?md3scroll@@YAXPADPAM1@Z   00439d7a f   rendermodel.obj
 0001:00038e15       ?md3anim@@YAXPADPAH1PAM1@Z 00439e15 f   rendermodel.obj
 0001:00038edd       ?md3link@@YAXPAH0PAD@Z     00439edd f   rendermodel.obj
 0001:00038f52       ?mdlcullface@@YAXPAH@Z     00439f52 f   rendermodel.obj
 0001:00038f75       ?mdlcollide@@YAXPAH@Z      00439f75 f   rendermodel.obj
 0001:00038f98       ?mdltricollide@@YAXPAH@Z   00439f98 f   rendermodel.obj
 0001:00038fbb       ?mdlspec@@YAXPAH@Z         00439fbb f   rendermodel.obj
 0001:00039008       ?mdlambient@@YAXPAH@Z      0043a008 f   rendermodel.obj
 0001:00039059       ?mdlalphatest@@YAXPAM@Z    0043a059 f   rendermodel.obj
 0001:000390cc       ?mdlalphablend@@YAXPAH@Z   0043a0cc f   rendermodel.obj
 0001:000390f3       ?mdlglow@@YAXPAH@Z         0043a0f3 f   rendermodel.obj
 0001:00039144       ?mdlenvmap@@YAXPAH0PAD@Z   0043a144 f   rendermodel.obj
 0001:00039190       ?mdltranslucent@@YAXPAM@Z  0043a190 f   rendermodel.obj
 0001:000391b6       ?mdlfullbright@@YAXPAM@Z   0043a1b6 f   rendermodel.obj
 0001:000391dc       ?mdlshader@@YAXPAD@Z       0043a1dc f   rendermodel.obj
 0001:0003920a       ?mdlspin@@YAXPAM@Z         0043a20a f   rendermodel.obj
 0001:00039229       ?mdlscale@@YAXPAH@Z        0043a229 f   rendermodel.obj
 0001:00039274       ?mdltrans@@YAXPAM00@Z      0043a274 f   rendermodel.obj
 0001:000392b7       ?mdlshadow@@YAXPAH@Z       0043a2b7 f   rendermodel.obj
 0001:000392da       ?mdlbb@@YAXPAM00@Z         0043a2da f   rendermodel.obj
 0001:0003930b       ?mdlname@@YAXXZ            0043a30b f   rendermodel.obj
 0001:0003932e       ?mmodel@@YAXPADPAH@Z       0043a32e f   rendermodel.obj
 0001:00039378       ?mapmodelcompat@@YAXPAH00PAD1@Z 0043a378 f   rendermodel.obj
 0001:00039388       ?mapmodelreset@@YAXXZ      0043a388 f   rendermodel.obj
 0001:0003939a       ?getmminfo@@YAAAUmapmodelinfo@@H@Z 0043a39a f   rendermodel.obj
 0001:000393b6       ?loadmodel@@YAPAUmodel@@PBDH_N@Z 0043a3b6 f   rendermodel.obj
 0001:00039593       ?modeloccluded@@YA_NABUvec@@M@Z 0043a593 f   rendermodel.obj
 0001:00039611       ?render2dbox@@YAXAAUvec@@MMM@Z 0043a611 f   rendermodel.obj
 0001:000396c3       ?render3dbox@@YAXAAUvec@@MMMM@Z 0043a6c3 f   rendermodel.obj
 0001:000397d7       ?renderellipse@@YAXAAUvec@@MMM@Z 0043a7d7 f   rendermodel.obj
 0001:000398cb       ?setshadowmatrix@@YAXABUplane@@ABUvec@@@Z 0043a8cb f   rendermodel.obj
 0001:00039985       ?rendershadow@@YAXAAUvec@@PAUmodel@@HHABU1@U1@MMMMHPAUdynent@@HPAUmodelattach@@@Z 0043a985 f   rendermodel.obj
 0001:00039ebf       ?addbatchedmodel@@YAAAUbatchedmodel@@PAUmodel@@@Z 0043aebf f   rendermodel.obj
 0001:00039f8d       ?renderbatchedmodel@@YAXPAUmodel@@AAUbatchedmodel@@@Z 0043af8d f   rendermodel.obj
 0001:0003a140       ?endmodelbatches@@YAXXZ    0043b140 f   rendermodel.obj
 0001:0003a327       ?endmodelquery@@YAXXZ      0043b327 f   rendermodel.obj
 0001:0003a43a       ?rendermodelquery@@YAXPAUmodel@@PAUdynent@@ABUvec@@M@Z 0043b43a f   rendermodel.obj
 0001:0003a516       ?rendermodel@@YAXAAUvec@@0PBDHHHABU1@MMMHPAUdynent@@HPAUmodelattach@@@Z 0043b516 f   rendermodel.obj
 0001:0003acec       ?matchanim@@YA_NPBD0@Z     0043bcec f   rendermodel.obj
 0001:0003ad66       ?findanims@@YAXPBDAAU?$vector@H@@@Z 0043bd66 f   rendermodel.obj
 0001:0003ad9c       ?loadskin@@YAXPBD0AAPAUTexture@@1@Z 0043bd9c f   rendermodel.obj
 0001:0003b07a       ?interpolateorientation@@YAXPAUdynent@@AAM1@Z 0043c07a f   rendermodel.obj
 0001:0003b155       ?renderclient@@YAXPAUdynent@@PBDPAUmodelattach@@HHHHM@Z 0043c155 f   rendermodel.obj
 0001:0003b3ed       ?replacewithlast@?$vector@G@@QAEXABG@Z 0043c3ed f i rendermodel.obj
 0001:0003b42c       ??0?$vector@E@@QAE@XZ      0043c42c f i rendermodel.obj
 0001:0003b442       ?add@?$vector@PAUfpsent@@@@QAEAAPAUfpsent@@ABQAU2@@Z 0043c442 f i fps.obj
 0001:0003b442       ?add@?$vector@PAUnodeq@botcom@fpsclient@@@@QAEAAPAUnodeq@botcom@fpsclient@@ABQAU234@@Z 0043c442 f i fps.obj
 0001:0003b442       ?add@?$vector@PAUmaterialsurface@@@@QAEAAPAUmaterialsurface@@ABQAU2@@Z 0043c442 f i material.obj
 0001:0003b442       ?add@?$vector@PAUclientinfo@fpsserver@@@@QAEAAPAUclientinfo@fpsserver@@ABQAU23@@Z 0043c442 f i fps.obj
 0001:0003b442       ?add@?$vector@PAUmonster@monsterset@fpsclient@@@@QAEAAPAUmonster@monsterset@fpsclient@@ABQAU234@@Z 0043c442 f i fps.obj
 0001:0003b442       ?add@?$vector@PAUphysent@@@@QAEAAPAUphysent@@ABQAU2@@Z 0043c442 f i physics.obj
 0001:0003b442       ?add@?$vector@PAUvtxarray@@@@QAEAAPAUvtxarray@@ABQAU2@@Z 0043c442 f i octarender.obj
 0001:0003b442       ?add@?$vector@PAUoctaentities@@@@QAEAAPAUoctaentities@@ABQAU2@@Z 0043c442 f i octarender.obj
 0001:0003b442       ?add@?$vector@PAUpart@vertmodel@@@@QAEAAPAUpart@vertmodel@@ABQAU23@@Z 0043c442 f i rendermodel.obj
 0001:0003b442       ?add@?$vector@PBUextentity@@@@QAEAAPBUextentity@@ABQBU2@@Z 0043c442 f i lightmap.obj
 0001:0003b442       ?add@?$vector@PAD@@QAEAAPADABQAD@Z 0043c442 f i command.obj
 0001:0003b442       ?add@?$vector@PAUdynlight@@@@QAEAAPAUdynlight@@ABQAU2@@Z 0043c442 f i renderva.obj
 0001:0003b442       ?add@?$vector@PAUmesh@vertmodel@@@@QAEAAPAUmesh@vertmodel@@ABQAU23@@Z 0043c442 f i rendermodel.obj
 0001:0003b442       ?add@?$vector@PAUextentity@@@@QAEAAPAUextentity@@ABQAU2@@Z 0043c442 f i cubeloader.obj
 0001:0003b442       ?add@?$vector@PBD@@QAEAAPBDABQBD@Z 0043c442 f i serverbrowser.obj
 0001:0003b442       ?add@?$vector@H@@QAEAAHABH@Z 0043c442 f i lightmap.obj
 0001:0003b442       ?add@?$vector@PAUShader@@@@QAEAAPAUShader@@ABQAU2@@Z 0043c442 f i shader.obj
 0001:0003b476       ??0?$vector@Uaniminfo@vertmodel@@@@QAE@XZ 0043c476 f i rendermodel.obj
 0001:0003b495       ??0?$hashtable@PADPAUmeshgroup@vertmodel@@@@QAE@H@Z 0043c495 f i rendermodel.obj
 0001:0003b4ea       ?access@?$hashtable@PBDPAUmodel@@@@QAEPAPAUmodel@@ABQBDPBQAU2@@Z 0043c4ea f i rendermodel.obj
 0001:0003b552       ?add@?$vector@PAUmodelbatch@@@@QAEAAPAUmodelbatch@@ABQAU2@@Z 0043c552 f i rendermodel.obj
 0001:0003b595       ?find@?$hashtable@Uedge@tristrip@@G@@QAEPAUchain@1@ABUedge@tristrip@@_N@Z 0043c595 f i rendermodel.obj
 0001:0003b63a       ?vrealloc@?$vector@PAD@@QAEXXZ 0043c63a f i command.obj
 0001:0003b63a       ?vrealloc@?$vector@PAUbouncent@weaponstate@fpsclient@@@@QAEXXZ 0043c63a f i fps.obj
 0001:0003b63a       ?vrealloc@?$vector@PAUmesh@vertmodel@@@@QAEXXZ 0043c63a f i rendermodel.obj
 0001:0003b63a       ?vrealloc@?$vector@PAUShader@@@@QAEXXZ 0043c63a f i shader.obj
 0001:0003b63a       ?vrealloc@?$vector@PAUphysent@@@@QAEXXZ 0043c63a f i physics.obj
 0001:0003b63a       ?vrealloc@?$vector@PAUmaterialsurface@@@@QAEXXZ 0043c63a f i material.obj
 0001:0003b63a       ?vrealloc@?$vector@PAUpart@vertmodel@@@@QAEXXZ 0043c63a f i rendermodel.obj
 0001:0003b63a       ?vrealloc@?$vector@PAUvtxarray@@@@QAEXXZ 0043c63a f i octarender.obj
 0001:0003b63a       ?vrealloc@?$vector@PBUextentity@@@@QAEXXZ 0043c63a f i lightmap.obj
 0001:0003b63a       ?vrealloc@?$vector@PAUmonster@monsterset@fpsclient@@@@QAEXXZ 0043c63a f i fps.obj
 0001:0003b63a       ?vrealloc@?$vector@PAUextentity@@@@QAEXXZ 0043c63a f i cubeloader.obj
 0001:0003b63a       ?vrealloc@?$vector@PAUnodeq@botcom@fpsclient@@@@QAEXXZ 0043c63a f i fps.obj
 0001:0003b63a       ?vrealloc@?$vector@PAUjoymenuaction@@@@QAEXXZ 0043c63a f i joystick.obj
 0001:0003b63a       ?vrealloc@?$vector@PAUoctaentities@@@@QAEXXZ 0043c63a f i octarender.obj
 0001:0003b63a       ?vrealloc@?$vector@PAUfpsent@@@@QAEXXZ 0043c63a f i fps.obj
 0001:0003b63a       ?vrealloc@?$vector@PAUdynlight@@@@QAEXXZ 0043c63a f i renderva.obj
 0001:0003b63a       ?vrealloc@?$vector@PAUclientinfo@fpsserver@@@@QAEXXZ 0043c63a f i fps.obj
 0001:0003b63a       ?vrealloc@?$vector@PBD@@QAEXXZ 0043c63a f i serverbrowser.obj
 0001:0003b63a       ?vrealloc@?$vector@H@@QAEXXZ 0043c63a f i lightmap.obj
 0001:0003b63a       ?vrealloc@?$vector@PAUscoregroup@scoreboard@fpsclient@@@@QAEXXZ 0043c63a f i fps.obj
 0001:0003b680       ?find@?$hashtable@PADPAUmeshgroup@vertmodel@@@@QAEPAUchain@1@ABQAD_N@Z 0043c680 f i rendermodel.obj
 0001:0003b6df       ?find@?$hashtable@Uivec@@H@@QAEPAUchain@1@ABUivec@@_N@Z 0043c6df f i rendermodel.obj
 0001:0003b732       ?vrealloc@?$vector@Umapmodelinfo@@@@QAEXXZ 0043c732 f i rendermodel.obj
 0001:0003b785       ?vrealloc@?$vector@Ubatchedmodel@@@@QAEXXZ 0043c785 f i rendermodel.obj
 0001:0003b7cb       ?vrealloc@?$vector@PAUmodelbatch@@@@QAEXXZ 0043c7cb f i rendermodel.obj
 0001:0003b818       ?vrealloc@?$vector@Umodelattach@@@@QAEXXZ 0043c818 f i rendermodel.obj
 0001:0003b865       ?insert@?$hashtable@PADPAUmeshgroup@vertmodel@@@@QAEPAUchain@1@ABQADI@Z 0043c865 f i rendermodel.obj
 0001:0003b8e6       ?insert@?$hashtable@Uivec@@H@@QAEPAUchain@1@ABUivec@@I@Z 0043c8e6 f i rendermodel.obj
 0001:0003b972       ?insert@?$hashtable@PBDPAUmodel@@@@QAEPAUchain@1@ABQBDI@Z 0043c972 f i rendermodel.obj
 0001:0003b9f3       ??0vec@@QAE@MM@Z           0043c9f3 f i renderparticles.obj
 0001:0003d1b8       ?particleinit@@YAXXZ       0043e1b8 f   renderparticles.obj
 0001:0003d32d       ?clearparticles@@YAXXZ     0043e32d f   renderparticles.obj
 0001:0003d3a3       ?removetrackedparticles@@YAXPAUphysent@@@Z 0043e3a3 f   renderparticles.obj
 0001:0003d3f4       ?render_particles@@YAXH@Z  0043e3f4 f   renderparticles.obj
 0001:0003f3dc       ?regular_particle_splash@@YAXHHHABUvec@@H@Z 004403dc f   renderparticles.obj
 0001:0003f424       ?particle_splash@@YAXHHHABUvec@@@Z 00440424 f   renderparticles.obj
 0001:0003f456       ?particle_trail@@YAXHHABUvec@@0@Z 00440456 f   renderparticles.obj
 0001:0003f568       ?particle_text@@YAXABUvec@@PADHH@Z 00440568 f   renderparticles.obj
 0001:0003f5ed       ?particle_flare@@YAXABUvec@@0HHPAUphysent@@@Z 004405ed f   renderparticles.obj
 0001:0003f670       ?regularshape@@YAXHHHHHHABUvec@@@Z 00440670 f   renderparticles.obj
 0001:0003fcf3       ?entity_particles@@YAXXZ   00440cf3 f   renderparticles.obj
 0001:0003fe08       ?part_splash@@YAXHHHABUvec@@H@Z 00440e08 f   renderparticles.obj
 0001:0003ff08       ?part_spawn@@YAXABUvec@@0MEHHH@Z 00440f08 f   renderparticles.obj
 0001:0003fffc       ?loadsky@@YAXPADPAM@Z      00440ffc f   rendersky.obj
 0001:000400dd       ?draw_envbox_face@@YAXMMHHHMMHHHMMHHHMMHHHI@Z 004410dd f   rendersky.obj
 0001:00040185       ?draw_envbox@@YAXHM@Z      00441185 f   rendersky.obj
 0001:000403c5       ?drawskylimits@@YA_N_NM@Z  004413c5 f   rendersky.obj
 0001:00040422       ?drawskyoutline@@YAXXZ     00441422 f   rendersky.obj
 0001:000404d4       ?drawskybox@@YAXH_NM@Z     004414d4 f   rendersky.obj
 0001:000406f2       ?limitsky@@YA_NXZ          004416f2 f   rendersky.obj
 0001:00040736       ?newfont@@YAXPAD0PAH11111@Z 00441736 f   rendertext.obj
 0001:000407d2       ?fontchar@@YAXPAH000@Z     004417d2 f   rendertext.obj
 0001:0004083a       ?setfont@@YA_NPAD@Z        0044183a f   rendertext.obj
 0001:00040862       ?gettextres@@YAXAAH0@Z     00441862 f   rendertext.obj
 0001:000408a0       ?char_width@@YAHHH@Z       004418a0 f   rendertext.obj
 0001:000408f2       ?text_width@@YAHPBDH@Z     004418f2 f   rendertext.obj
 0001:00040924       ?draw_textf@@YAXPBDHHZZ    00441924 f   rendertext.obj
 0001:0004095d       ?draw_textx@@YAXPBDHHHHHHHZZ 0044195d f   rendertext.obj
 0001:000409bb       ?draw_text@@YAXPBDHHHHHH@Z 004419bb f   rendertext.obj
 0001:00040d88       ??1font@@QAE@XZ            00441d88 f i rendertext.obj
 0001:00040dbb       ?vrealloc@?$vector@Ucharinfo@font@@@@QAEXXZ 00441dbb f i rendertext.obj
 0001:00040dbb       ?vrealloc@?$vector@Uteamscore@fpsclient@@@@QAEXXZ 00441dbb f i fps.obj
 0001:00040dbb       ?vrealloc@?$vector@Uban@fpsserver@@@@QAEXXZ 00441dbb f i fps.obj
 0001:00040dbb       ?vrealloc@?$vector@Uteamscore@scoreboard@fpsclient@@@@QAEXXZ 00441dbb f i fps.obj
 0001:00040e01       ?find@?$hashtable@PADUfont@@@@QAEPAUchain@1@ABQAD_N@Z 00441e01 f i rendertext.obj
 0001:00040e60       ?insert@?$hashtable@PADUfont@@@@QAEPAUchain@1@ABQADI@Z 00441e60 f i rendertext.obj
 0001:00040f24       ??0chain@?$hashtable@PADUfont@@@@QAE@XZ 00441f24 f i rendertext.obj
 0001:00040f5e       ??1chain@?$hashtable@PADUfont@@@@QAE@XZ 00441f5e f i rendertext.obj
 0001:00040f82       ?variant@Shader@@QAEPAU1@HH@Z 00441f82 f i renderva.obj
 0001:00040fbd       ?drawvatris@@YAXPAUvtxarray@@HPBXGG@Z 00441fbd f   renderva.obj
 0001:00041006       ?isvisiblesphere@@YAHMABUvec@@@Z 00442006 f   renderva.obj
 0001:00041094       ?isvisiblecube@@YAHABUvec@@H@Z 00442094 f   renderva.obj
 0001:000410f9       ?vadist@@YAMPAUvtxarray@@ABUvec@@@Z 004420f9 f   renderva.obj
 0001:00041168       ?addvisibleva@@YAXPAUvtxarray@@@Z 00442168 f   renderva.obj
 0001:000411e2       ?findvisiblevas@@YAXAAU?$vector@PAUvtxarray@@@@_N@Z 004421e2 f   renderva.obj
 0001:0004128c       ?setvfcP@@YAXMMABUvec@@@Z  0044228c f   renderva.obj
 0001:00041488       ?reflectvfcP@@YAXM@Z       00442488 f   renderva.obj
 0001:000414db       ?restorevfcP@@YAXXZ        004424db f   renderva.obj
 0001:000414f0       ?visiblecubes@@YAXPAUcube@@HHHHHHH@Z 004424f0 f   renderva.obj
 0001:00041579       ?insideva@@YA_NPBUvtxarray@@ABUvec@@@Z 00442579 f   renderva.obj
 0001:0004161c       ?resetorigin@@YAXXZ        0044261c f   renderva.obj
 0001:0004163f       ?setorigin@@YAXPAUvtxarray@@_N@Z 0044263f f   renderva.obj
 0001:000416f0       ?newquery@@YAPAUoccludequery@@PAX@Z 004426f0 f   renderva.obj
 0001:00041745       ?checkquery@@YA_NPAUoccludequery@@_N@Z 00442745 f   renderva.obj
 0001:0004178d       ?drawbb@@YAXABUivec@@0ABUvec@@@Z 0044278d f   renderva.obj
 0001:00041852       ?findvisiblemms@@YAXABU?$vector@PAUextentity@@@@@Z 00442852 f   renderva.obj
 0001:000419d2       ?rendermapmodel@@YAXAAUextentity@@@Z 004429d2 f   renderva.obj
 0001:00041a80       ?renderreflectedmapmodels@@YAXM_N@Z 00442a80 f   renderva.obj
 0001:00041c98       ?rendermapmodels@@YAXXZ    00442c98 f   renderva.obj
 0001:00041ec6       ?bboccluded@@YA_NABUivec@@0PAUcube@@0H@Z 00442ec6 f   renderva.obj
 0001:00041f68       ?renderoutline@@YAXXZ      00442f68 f   renderva.obj
 0001:000421a2       ?rendershadowmapreceivers@@YAXXZ 004431a2 f   renderva.obj
 0001:000423fd       ?loadcaustics@@YAXXZ       004433fd f   renderva.obj
 0001:0004245b       ?rendercaustics@@YAXM_N@Z  0044345b f   renderva.obj
 0001:00042966       ?calcradius@dynlight@@QBEMXZ 00443966 f i renderva.obj
 0001:000429b0       ?intensity@dynlight@@QBEMXZ 004439b0 f i renderva.obj
 0001:000429f9       ?adddynlight@@YAXABUvec@@M0HH@Z 004439f9 f   renderva.obj
 0001:00042a8e       ?cleardynlights@@YAXXZ     00443a8e f   renderva.obj
 0001:00042b10       ?limitdynlights@@YAHXZ     00443b10 f   renderva.obj
 0001:00042c07       ?dynlightreaching@@YAXABUvec@@AAU1@1@Z 00443c07 f   renderva.obj
 0001:00042d24       ?setdynlights@@YAXPAUvtxarray@@@Z 00443d24 f   renderva.obj
 0001:00042f58       ?renderquery@@YAXAAUrenderstate@@PAUoccludequery@@PAUvtxarray@@@Z 00443f58 f   renderva.obj
 0001:00043150       ?renderva@@YAXAAUrenderstate@@PAUvtxarray@@AAUlodlevel@@H@Z 00444150 f   renderva.obj
 0001:00043f8b       ?setupTMUs@@YAXXZ          00444f8b f   renderva.obj
 0001:000441ae       ?cleanupTMU0@@YAXXZ        004451ae f   renderva.obj
 0001:0004423a       ?cleanupTMU1@@YAXXZ        0044523a f   renderva.obj
 0001:000442dc       ?rendergeommultipass@@YAXAAUrenderstate@@H@Z 004452dc f   renderva.obj
 0001:0004450f       ?rendergeom@@YAXXZ         0044550f f   renderva.obj
 0001:00044d67       ?findreflectedvas@@YAXAAU?$vector@PAUvtxarray@@@@M_N1@Z 00445d67 f   renderva.obj
 0001:00044eca       ?renderreflectedgeom@@YAXM_N@Z 00445eca f   renderva.obj
 0001:00044f28       ?renderskyva@@YAXPAUvtxarray@@AAUlodlevel@@_N@Z 00445f28 f   renderva.obj
 0001:00045048       ?renderreflectedskyvas@@YAHAAU?$vector@PAUvtxarray@@@@M_N@Z 00446048 f   renderva.obj
 0001:0004513b       ?rendersky@@YA_N_NM@Z      0044613b f   renderva.obj
 0001:00045229       ?insert@?$vector@Udynlight@@@@QAEAAUdynlight@@HABU2@@Z 00446229 f i renderva.obj
 0001:000452b4       ?insert@?$vector@PAUdynlight@@@@QAEAAPAUdynlight@@HABQAU2@@Z 004462b4 f i renderva.obj
 0001:00045303       ?vrealloc@?$vector@Udynlight@@@@QAEXXZ 00446303 f i renderva.obj
 0001:00045350       ??$dist_to_bb@Uivec@@@vec@@QBEMABUivec@@0@Z 00446350 f i renderva.obj
 0001:000453c6       ??0ShaderParamState@@QAE@XZ 004463c6 f i shader.obj
 0001:000453e6       ??0Shader@@QAE@XZ          004463e6 f i shader.obj
 0001:00045482       ??1Shader@@QAE@XZ          00446482 f i shader.obj
 0001:000454fc       ?lookupshaderbyname@@YAPAUShader@@PBD@Z 004464fc f   shader.obj
 0001:000458a2       ?checkglslsupport@@YA_NXZ  004468a2 f   shader.obj
 0001:00045a85       ?allocenvparams@Shader@@QAEXPAUSlot@@@Z 00446a85 f   shader.obj
 0001:00045c87       ?setenvparamf@@YAXPADHHMMMM@Z 00446c87 f   shader.obj
 0001:00045d0c       ?setenvparamfv@@YAXPADHHPBM@Z 00446d0c f   shader.obj
 0001:00045d66       ?flushenvparam@@YAXHH_N@Z  00446d66 f   shader.obj
 0001:00045e31       ?setlocalparamf@@YAXPADHHMMMM@Z 00446e31 f   shader.obj
 0001:00045e6f       ?setlocalparamfv@@YAXPADHHPBM@Z 00446e6f f   shader.obj
 0001:00045e92       ?flushenvparams@Shader@@QAEXPAUSlot@@@Z 00446e92 f   shader.obj
 0001:00045fb8       ?setslotparams@Shader@@QAEXAAUSlot@@@Z 00446fb8 f   shader.obj
 0001:00046215       ?bindprograms@Shader@@QAEXXZ 00447215 f   shader.obj
 0001:00046264       ?newshader@@YAPAUShader@@HPAD00PAU1@H@Z 00447264 f   shader.obj
 0001:00047414       ?shader@@YAXPAHPAD11@Z     00448414 f   shader.obj
 0001:00047552       ?setshader@@YAXPAD@Z       00448552 f   shader.obj
 0001:000475c0       ?findshaderparam@@YAPAUShaderParam@@AAUSlot@@PADHH@Z 004485c0 f   shader.obj
 0001:00047670       ?setslotshader@@YAXAAUSlot@@@Z 00448670 f   shader.obj
 0001:00047715       ?altshader@@YAXPAD0@Z      00448715 f   shader.obj
 0001:00047777       ?fastshader@@YAXPAD0PAH@Z  00448777 f   shader.obj
 0001:000477c1       ?isshaderdefined@@YAXPAD@Z 004487c1 f   shader.obj
 0001:000477da       ?isshadernative@@YAXPAD@Z  004487da f   shader.obj
 0001:00047800       ?setshaderparam@@YAXPADHHMMMM@Z 00448800 f   shader.obj
 0001:000478f3       ?setvertexparam@@YAXPAHPAM111@Z 004488f3 f   shader.obj
 0001:0004792f       ?setpixelparam@@YAXPAHPAM111@Z 0044892f f   shader.obj
 0001:0004796b       ?setuniformparam@@YAXPADPAM111@Z 0044896b f   shader.obj
 0001:00047a54       ?setfullscreenshader@@YAXPADPAH111@Z 00448a54 f   shader.obj
 0001:00047bb1       ?renderfsquad@@YAXHHPAUShader@@@Z 00448bb1 f   shader.obj
 0001:00047c79       ?renderfullscreenshader@@YAXHH@Z 00448c79 f   shader.obj
 0001:00047fab       ?parsetmufunc@@YAXAAUtmufunc@@PBD@Z 00448fab f   shader.obj
 0001:000480f9       ?committmufunc@@YAX_NAAUtmufunc@@1@Z 004490f9 f   shader.obj
 0001:000481c8       ?committmu@@YAXHAAUtmu@@@Z 004491c8 f   shader.obj
 0001:00048261       ?resettmu@@YAXH@Z          00449261 f   shader.obj
 0001:0004829c       ?colortmu@@YAXHMMMM@Z      0044929c f   shader.obj
 0001:000482df       ?setuptmu@@YAXHPBD0@Z      004492df f   shader.obj
 0001:00048357       ?inittmus@@YAXXZ           00449357 f   shader.obj
 0001:000483f9       ?add@?$vector@ULocalShaderParamState@@@@QAEAAULocalShaderParamState@@ABU2@@Z 004493f9 f i shader.obj
 0001:00048430       ?add@?$vector@ULocalShaderParamState@@@@QAEAAULocalShaderParamState@@XZ 00449430 f i shader.obj
 0001:0004848a       ??0?$vector@PAUvtxarray@@@@QAE@XZ 0044948a f i octarender.obj
 0001:0004848a       ??0?$vector@PAUShader@@@@QAE@XZ 0044948a f i shader.obj
 0001:0004848a       ??0?$vector@PAUclientinfo@fpsserver@@@@QAE@XZ 0044948a f i fps.obj
 0001:000484a6       ?add@?$vector@UShaderParam@@@@QAEAAUShaderParam@@ABU2@@Z 004494a6 f i shader.obj
 0001:000484dd       ?remove@?$hashtable@PBDUShader@@@@QAE_NABQBD@Z 004494dd f i shader.obj
 0001:00048581       ?put@?$vector@D@@QAEXPBDH@Z 00449581 f i shader.obj
 0001:000485d0       ?vrealloc@?$vector@ULocalShaderParamState@@@@QAEXXZ 004495d0 f i shader.obj
 0001:00048616       ?vrealloc@?$vector@UShaderParam@@@@QAEXXZ 00449616 f i shader.obj
 0001:00048616       ?vrealloc@?$vector@Ugrasstri@@@@QAEXXZ 00449616 f i octarender.obj
 0001:0004865c       ?find@?$hashtable@PBDUShader@@@@QAEPAUchain@1@ABQBD_N@Z 0044965c f i shader.obj
 0001:000486c1       ?insert@?$hashtable@PBDUShader@@@@QAEPAUchain@1@ABQBDI@Z 004496c1 f i shader.obj
 0001:00048793       ??0chain@?$hashtable@PBDUShader@@@@QAE@XZ 00449793 f i shader.obj
 0001:000487ba       ??1chain@?$hashtable@PBDUShader@@@@QAE@XZ 004497ba f i shader.obj
 0001:000487de       ?reset@Slot@@QAEXXZ        004497de f i texture.obj
 0001:00048814       ??0Slot@@QAE@XZ            00449814 f i texture.obj
 0001:00048878       ?texrotate@@YAPAUSDL_Surface@@PAU1@HH@Z 00449878 f   texture.obj
 0001:000489ed       ?texoffset@@YAPAUSDL_Surface@@PAU1@HH@Z 004499ed f   texture.obj
 0001:00048af0       ?texmad@@YAXPAUSDL_Surface@@ABUvec@@1@Z 00449af0 f   texture.obj
 0001:00048be2       ?texffmask@@YAPAUSDL_Surface@@PAU1@H@Z 00449be2 f   texture.obj
 0001:00048ca8       ?texdup@@YAXPAUSDL_Surface@@HH@Z 00449ca8 f   texture.obj
 0001:00048ceb       ?canhwmipmap@@YA_NI@Z      00449ceb f   texture.obj
 0001:00048d1f       ?compressedformat@@YAIIHH@Z 00449d1f f   texture.obj
 0001:00048d68       ?createtexture@@YAXHHHPAXH_NII@Z 00449d68 f   texture.obj
 0001:00049580       ?loadalphamask@@YAXPAUTexture@@@Z 0044a580 f   texture.obj
 0001:00049652       ?textureload@@YAPAUTexture@@PBDH_N1@Z 0044a652 f   texture.obj
 0001:00049850       ?cleangl@@YAXXZ            0044a850 f   texture.obj
 0001:000498e8       ?settexture@@YAXPBD@Z      0044a8e8 f   texture.obj
 0001:00049907       ??1Slot@@QAE@XZ            0044a907 f i texture.obj
 0001:00049955       ?texturereset@@YAXXZ       0044a955 f   texture.obj
 0001:00049961       ?materialreset@@YAXXZ      0044a961 f   texture.obj
 0001:00049979       ?texture@@YAXPAD0PAH11PAM@Z 0044a979 f   texture.obj
 0001:00049b54       ?autograss@@YAXPAD@Z       0044ab54 f   texture.obj
 0001:0004a15a       ?creatergbasurface@@YAPAUSDL_Surface@@PAU1@@Z 0044b15a f   texture.obj
 0001:0004a1b0       ?scalesurface@@YAPAUSDL_Surface@@PAU1@HH@Z 0044b1b0 f   texture.obj
 0001:0004a5cd       ?lookuptexture@@YAAAUSlot@@H_N@Z 0044b5cd f   texture.obj
 0001:0004a6d6       ?loadthumbnail@@YAPAUTexture@@AAUSlot@@@Z 0044b6d6 f   texture.obj
 0001:0004a7de       ?cubemapfromsky@@YAIH@Z    0044b7de f   texture.obj
 0001:0004a999       ?cubemaploadwildcard@@YAPAUTexture@@PBD_N1@Z 0044b999 f   texture.obj
 0001:0004adba       ?cubemapload@@YAPAUTexture@@PBD_N1@Z 0044bdba f   texture.obj
 0001:0004aea6       ?var_envmapsize@@YAXXZ     0044bea6 f   texture.obj
 0001:0004aeab       ?clearenvmaps@@YAXXZ       0044beab f   texture.obj
 0001:0004af06       ?genenvmap@@YAIABUvec@@H@Z 0044bf06 f   texture.obj
 0001:0004b2fb       ?initenvmaps@@YAXXZ        0044c2fb f   texture.obj
 0001:0004b3db       ?genenvmaps@@YAXXZ         0044c3db f   texture.obj
 0001:0004b470       ?closestenvmap@@YAGABUvec@@@Z 0044c470 f   texture.obj
 0001:0004b4ef       ?closestenvmap@@YAGHHHHH@Z 0044c4ef f   texture.obj
 0001:0004b563       ?lookupenvmap@@YAIG@Z      0044c563 f   texture.obj
 0001:0004b5a0       ?writetgaheader@@YAXPAU_iobuf@@PAUSDL_Surface@@H@Z 0044c5a0 f   texture.obj
 0001:0004b5e8       ?flipnormalmapy@@YAXPAD0@Z 0044c5e8 f   texture.obj
 0001:0004b6a2       ?mergenormalmaps@@YAXPAD0@Z 0044c6a2 f   texture.obj
 0001:0004b8e7       ?add@?$vector@USlot@@@@QAEAAUSlot@@XZ 0044c8e7 f i texture.obj
 0001:0004b945       ?setsize@?$vector@USlot@@@@QAEXH@Z 0044c945 f i texture.obj
 0001:0004b967       ?add@?$vector@Uenvmap@@@@QAEAAUenvmap@@XZ 0044c967 f i texture.obj
 0001:0004b9a8       ?vrealloc@?$vector@UTex@Slot@@@@QAEXXZ 0044c9a8 f i texture.obj
 0001:0004b9f4       ?find@?$hashtable@PADUTexture@@@@QAEPAUchain@1@ABQAD_N@Z 0044c9f4 f i texture.obj
 0001:0004ba53       ?vrealloc@?$vector@USlot@@@@QAEXXZ 0044ca53 f i texture.obj
 0001:0004baa0       ?vrealloc@?$vector@Uenvmap@@@@QAEXXZ 0044caa0 f i texture.obj
 0001:0004baed       ?insert@?$hashtable@PADUTexture@@@@QAEPAUchain@1@ABQADI@Z 0044caed f i texture.obj
 0001:0004bba4       ?vertwt@@YAXMMMM@Z         0044cba4 f i water.obj
 0001:0004bc5f       ?vertwtn@@YAXMMM@Z         0044cc5f f i water.obj
 0001:0004bcb9       ?vertwc@@YAXMMMM@Z         0044ccb9 f i water.obj
 0001:0004bd97       ?vertwcn@@YAXMMM@Z         0044cd97 f i water.obj
 0001:0004bdf5       ?vertwtc@@YAXMMMM@Z        0044cdf5 f i water.obj
 0001:0004bf07       ?vertwtcn@@YAXMMM@Z        0044cf07 f i water.obj
 0001:0004bf72       ?vertwmtc@@YAXMMMM@Z       0044cf72 f i water.obj
 0001:0004c0b4       ?vertwmtcn@@YAXMMM@Z       0044d0b4 f i water.obj
 0001:0004c146       ?vertl@@YAXMMMM@Z          0044d146 f i water.obj
 0001:0004c20b       ?vertln@@YAXMMM@Z          0044d20b f i water.obj
 0001:0004c26f       ?rendervertwater@@YAXIHHHIE@Z 0044d26f f   water.obj
 0001:0004c925       ?calcwatersubdiv@@YAIHHHI@Z 0044d925 f   water.obj
 0001:0004ca50       ?renderwaterlod@@YAIHHHIE@Z 0044da50 f   water.obj
 0001:0004cbe2       ?renderflatwater@@YAXHHHIIE@Z 0044dbe2 f   water.obj
 0001:0004cf90       ?renderlava@@YAXAAUmaterialsurface@@PAUTexture@@M@Z 0044df90 f   water.obj
 0001:0004d02c       ??0Reflection@@QAE@XZ      0044e02c f i water.obj
 0001:0004d078       ?getwatercolour@@YAXPAE@Z  0044e078 f   water.obj
 0001:0004d0af       ?watercolour@@YAXPAH00@Z   0044e0af f   water.obj
 0001:0004d0d1       ?getlavacolour@@YAXPAE@Z   0044e0d1 f   water.obj
 0001:0004d108       ?lavacolour@@YAXPAH00@Z    0044e108 f   water.obj
 0001:0004d12a       ?setprojtexmatrix@@YAXAAUReflection@@_N@Z 0044e12a f   water.obj
 0001:0004d1c7       ?setuprefractTMUs@@YAXXZ   0044e1c7 f   water.obj
 0001:0004d20b       ??1Reflection@@QAE@XZ      0044e20b f i water.obj
 0001:0004d23d       ?renderwaterff@@YAXXZ      0044e23d f   water.obj
 0001:0004d745       ?renderwater@@YAXXZ        0044e745 f   water.obj
 0001:0004deae       ?cleanreflections@@YAXXZ   0044eeae f   water.obj
 0001:0004df2e       ?var_waterreflect@@YAXXZ   0044ef2e f   water.obj
 0001:0004df2e       ?var_waterrefract@@YAXXZ   0044ef2e f   water.obj
 0001:0004df2e       ?var_reflectsize@@YAXXZ    0044ef2e f   water.obj
 0001:0004df33       ?invalidatereflections@@YAXXZ 0044ef33 f   water.obj
 0001:0004df4f       ?addreflection@@YAXAAUmaterialsurface@@@Z 0044ef4f f   water.obj
 0001:0004e35c       ?queryreflections@@YAXXZ   0044f35c f   water.obj
 0001:0004e5e2       ?maskreflection@@YAXAAUReflection@@M_N@Z 0044f5e2 f   water.obj
 0001:0004e7e5       ?drawreflections@@YAXXZ    0044f7e5 f   water.obj
 0001:0004eaf7       ?itoa@@YAXPADH@Z           0044faf7 f   command.obj
 0001:0004eb14       ?exchangestr@@YAPADPADPBD@Z 0044fb14 f   command.obj
 0001:0004eb33       ?clear_command@@YAXXZ      0044fb33 f   command.obj
 0001:0004ebc3       ?clearoverrides@@YAXXZ     0044fbc3 f   command.obj
 0001:0004ec39       ?pusha@@YAXPAD0@Z          0044fc39 f   command.obj
 0001:0004ed09       ?push@@YAXPAD0@Z           0044fd09 f   command.obj
 0001:0004ed29       ?pop@@YAXPAD@Z             0044fd29 f   command.obj
 0001:0004ed68       ?aliasa@@YAXPAD0@Z         0044fd68 f   command.obj
 0001:0004ee6e       ?alias@@YAXPAD0@Z          0044fe6e f   command.obj
 0001:0004ee91       ?variable@@YAHPADHHHPAHP6AXXZ_N@Z 0044fe91 f   command.obj
 0001:0004ef1b       ?setvar@@YAXPADH_N@Z       0044ff1b f   command.obj
 0001:0004ef49       ?getvar@@YAHPAD@Z          0044ff49 f   command.obj
 0001:0004ef68       ?identexists@@YA_NPAD@Z    0044ff68 f   command.obj
 0001:0004ef7b       ?getalias@@YAPBDPAD@Z      0044ff7b f   command.obj
 0001:0004ef9b       ?addcommand@@YA_NPADP6AXXZ0@Z 0044ff9b f   command.obj
 0001:0004f027       ?addident@@YAXPADPAU?$tident@X@@@Z 00450027 f   command.obj
 0001:0004f07c       ?parsemacro@@YAXAAPADHAAU?$vector@D@@@Z 0045007c f   command.obj
 0001:0004f134       ?parseexp@@YAPADAAPADH@Z   00450134 f   command.obj
 0001:0004f323       ?lookup@@YAPADPAD@Z        00450323 f   command.obj
 0001:0004f385       ?parseword@@YAPADAAPAD_N@Z 00450385 f   command.obj
 0001:0004f477       ?conc@@YAPADPAPADH_N@Z     00450477 f   command.obj
 0001:0004f4f7       ?executeret@@YAPADPAD_N@Z  004504f7 f   command.obj
 0001:0004fbaf       ?execute@@YAHPAD_N@Z       00450baf f   command.obj
 0001:0004fbe8       ?execfile@@YA_NPAD@Z       00450be8 f   command.obj
 0001:0004fc31       ?exec@@YAXPAD@Z            00450c31 f   command.obj
 0001:0004fc6d       ?writecfg@@YAXXZ           00450c6d f   command.obj
 0001:0004fdb6       ?intret@@YAXH@Z            00450db6 f   command.obj
 0001:0004fdef       ??0cmd_if@@QAE@XZ          00450def f i command.obj
 0001:0004fe6a       ?run@cmd_if@@UAEXPAPAD@Z   00450e6a f i command.obj
 0001:0004fe8f       ??0cmd_loop@@QAE@XZ        00450e8f f i command.obj
 0001:0004ff0a       ?run@cmd_loop@@UAEXPAPAD@Z 00450f0a f i command.obj
 0001:0004ff65       ??0cmd_while@@QAE@XZ       00450f65 f i command.obj
 0001:0004ffe0       ?run@cmd_while@@UAEXPAPAD@Z 00450fe0 f i command.obj
 0001:00050010       ?result@@YAXPBD@Z          00451010 f   command.obj
 0001:00050010       ?concat@@YAXPBD@Z          00451010 f   command.obj
 0001:0005002a       ?concatword@@YAXPAPADPAH@Z 0045102a f   command.obj
 0001:00050045       ?format@@YAXPAPADPAH@Z     00451045 f   command.obj
 0001:000500fd       ?explodelist@@YAXPADAAU?$vector@PAD@@@Z 004510fd f   command.obj
 0001:00050189       ?listlen@@YAXPAD@Z         00451189 f   command.obj
 0001:000501ee       ?at@@YAXPADPAH@Z           004511ee f   command.obj
 0001:000502aa       ?getalias_@@YAXPAD@Z       004512aa f   command.obj
 0001:000502bc       ?add@@YAXPAH0@Z            004512bc f   command.obj
 0001:000502d0       ?mul@@YAXPAH0@Z            004512d0 f   command.obj
 0001:000502e5       ?sub@@YAXPAH0@Z            004512e5 f   command.obj
 0001:000502f9       ?divi@@YAXPAH0@Z           004512f9 f   command.obj
 0001:00050318       ?mod@@YAXPAH0@Z            00451318 f   command.obj
 0001:00050337       ?equal@@YAXPAH0@Z          00451337 f   command.obj
 0001:00050350       ?nequal@@YAXPAH0@Z         00451350 f   command.obj
 0001:00050369       ?lt@@YAXPAH0@Z             00451369 f   command.obj
 0001:00050382       ?gt@@YAXPAH0@Z             00451382 f   command.obj
 0001:0005039b       ?lte@@YAXPAH0@Z            0045139b f   command.obj
 0001:000503b4       ?gte@@YAXPAH0@Z            004513b4 f   command.obj
 0001:000503cd       ?xora@@YAXPAH0@Z           004513cd f   command.obj
 0001:000503e1       ?nota@@YAXPAH@Z            004513e1 f   command.obj
 0001:000503f4       ?anda@@YAXPAD0@Z           004513f4 f   command.obj
 0001:00050425       ?ora@@YAXPAD0@Z            00451425 f   command.obj
 0001:00050451       ?rndn@@YAXPAH@Z            00451451 f   command.obj
 0001:00050472       ?strcmpa@@YAXPAD0@Z        00451472 f   command.obj
 0001:0005048e       ??0cmd_echo@@QAE@XZ        0045148e f i command.obj
 0001:00050509       ?run@cmd_echo@@UAEXPAPAD@Z 00451509 f i command.obj
 0001:0005051e       ?strstra@@YAXPAD0@Z        0045151e f   command.obj
 0001:00050543       ?addsleep@@YAXPAHPAD@Z     00451543 f   command.obj
 0001:0005059a       ?checksleep@@YAXH@Z        0045159a f   command.obj
 0001:000505fd       ?clearsleep@@YAX_N@Z       004515fd f   command.obj
 0001:0005066e       ?clearsleep_@@YAXPAH@Z     0045166e f   command.obj
 0001:0005068b       ?gameident@@YAXXZ          0045168b f   command.obj
 0001:0005069e       ?gamedefaultmap@@YAXXZ     0045169e f   command.obj
 0001:000506b1       ?maptitle@@YAXXZ           004516b1 f   command.obj
 0001:000506bd       ?gettime@@YAPADPAD@Z       004516bd f   command.obj
 0001:000506f8       ?gettime_@@YAXPAD@Z        004516f8 f   command.obj
 0001:0005070a       ?gameexec@@YA_NPAD_N@Z     0045170a f   command.obj
 0001:0005075a       ?gameopen@@YAPAU_iobuf@@PAD0@Z 0045175a f   command.obj
 0001:0005079f       ?gzgetint@@YAHPAX@Z        0045179f f   command.obj
 0001:000507ba       ?gzputint@@YAXPAXH@Z       004517ba f   command.obj
 0001:000507d5       ??0?$tident@X@@QAE@HPADHHHPAHPAX_N@Z 004517d5 f i command.obj
 0001:00050814       ?access@?$hashtable@PADU?$tident@X@@@@QAEPAU?$tident@X@@ABQADPBU2@@Z 00451814 f i command.obj
 0001:0005088f       ?clear@?$hashtable@PADU?$tident@X@@@@QAEXXZ 0045188f f i command.obj
 0001:00050903       ?add@?$vector@PAU?$vector@D@@@@QAEAAPAU?$vector@D@@ABQAU2@@Z 00451903 f i command.obj
 0001:00050946       ?remove@?$vector@Usleepcmd@@@@QAE?AUsleepcmd@@H@Z 00451946 f i command.obj
 0001:00050994       ??1chain@?$hashtable@PADU?$tident@X@@@@QAE@XZ 00451994 f i command.obj
 0001:000509b8       ?vrealloc@?$vector@PAU?$vector@D@@@@QAEXXZ 004519b8 f i command.obj
 0001:00050a05       ?vrealloc@?$vector@Usleepcmd@@@@QAEXXZ 00451a05 f i command.obj
 0001:00050a52       ?insert@?$hashtable@PADU?$tident@X@@@@QAEPAUchain@1@ABQADI@Z 00451a52 f i command.obj
 0001:00050aff       ??0chain@?$hashtable@PADU?$tident@X@@@@QAE@XZ 00451aff f i command.obj
 0001:00050b25       ??0cmd_centerprint@@QAE@XZ 00451b25 f i console.obj
 0001:00050ba0       ?run@cmd_centerprint@@UAEXPAPAD@Z 00451ba0 f i console.obj
 0001:00050bb8       ?setconskip@@YAXPAH@Z      00451bb8 f   console.obj
 0001:00050bce       ?conline@@YAXPBDHH@Z       00451bce f   console.obj
 0001:00050ddd       ?console@@YAXPBDHZZ        00451ddd f   console.obj
 0001:00050fb6       ?conoutf@@YAXPBDZZ         00451fb6 f   console.obj
 0001:00050fe7       ?toggleconsole@@YAXXZ      00451fe7 f   console.obj
 0001:00050ff7       ?rendercommand@@YAXHH@Z    00451ff7 f   console.obj
 0001:00051074       ?blendbox@@YAXHHHH_N@Z     00452074 f   console.obj
 0001:0005119c       ?renderconsole@@YAHHH@Z    0045219c f   console.obj
 0001:0005149b       ?keymap@@YAXPAD0@Z         0045249b f   console.obj
 0001:00051528       ?findbind@@YAPAUkeym@@PAD@Z 00452528 f   console.obj
 0001:0005156e       ?getbind@@YAXPAD@Z         0045256e f   console.obj
 0001:0005158e       ?geteditbind@@YAXPAD@Z     0045258e f   console.obj
 0001:000515ae       ?bindkey@@YAXPAD0_N@Z      004525ae f   console.obj
 0001:00051639       ?bindnorm@@YAXPAD0@Z       00452639 f   console.obj
 0001:0005164c       ?bindedit@@YAXPAD0@Z       0045264c f   console.obj
 0001:0005165f       ?saycommand@@YAXPAD@Z      0045265f f   console.obj
 0001:000516ce       ?mapmsg@@YAXPAD@Z          004526ce f   console.obj
 0001:000516ed       ?pasteconsole@@YAXXZ       004526ed f   console.obj
 0001:00051732       ?history@@YAXPAH@Z         00452732 f   console.obj
 0001:00051772       ?addreleaseaction@@YAPBDPBD@Z 00452772 f   console.obj
 0001:000517cd       ?onrelease@@YAXPAD@Z       004527cd f   console.obj
 0001:000517d2       ?keypress@@YAXH_NH@Z       004527d2 f   console.obj
 0001:00051c25       ?writebinds@@YAXPAU_iobuf@@@Z 00452c25 f   console.obj
 0001:00051c8c       ??0filesval@@QAE@HPBD0@Z   00452c8c f i console.obj
 0001:00051cf0       ?addcomplete@@YAXPADH00@Z  00452cf0 f   console.obj
 0001:00051e3e       ?addfilecomplete@@YAXPAD00@Z 00452e3e f   console.obj
 0001:00051e55       ?addlistcomplete@@YAXPAD0@Z 00452e55 f   console.obj
 0001:00051e6a       ?complete@@YAXPAD@Z        00452e6a f   console.obj
 0001:000520e2       ?writecompletions@@YAXPAU_iobuf@@@Z 004530e2 f   console.obj
 0001:00052155       ?getkeyaction@@YAPADPAD@Z  00453155 f   console.obj
 0001:000521d4       ??0?$vector@Ucline@@@@QAE@XZ 004531d4 f i console.obj
 0001:000521f0       ?setsize@?$vector@Ukeym@@@@QAEXH@Z 004531f0 f i console.obj
 0001:00052245       ?vrealloc@?$vector@Ukeym@@@@QAEXXZ 00453245 f i console.obj
 0001:00052292       ?vrealloc@?$vector@Ureleaseaction@@@@QAEXXZ 00453292 f i console.obj
 0001:000522df       ?find@?$hashtable@Ufileskey@@PAUfilesval@@@@QAEPAUchain@1@ABUfileskey@@_N@Z 004532df f i console.obj
 0001:00052364       ?find@?$hashtable@PADPAUfilesval@@@@QAEPAUchain@1@ABQAD_N@Z 00453364 f i console.obj
 0001:000523c3       ?insert@?$hashtable@Ufileskey@@PAUfilesval@@@@QAEPAUchain@1@ABUfileskey@@I@Z 004533c3 f i console.obj
 0001:00052466       ?insert@?$hashtable@PADPAUfilesval@@@@QAEPAUchain@1@ABQADI@Z 00453466 f i console.obj
 0001:000524e7       ?cleanup@@YAXXZ            004534e7 f   main.obj
 0001:00052580       ?quit@@YAXXZ               00453580 f   main.obj
 0001:000525ad       ?fatal@@YAXPAD0@Z          004535ad f   main.obj
 0001:00052609       ?initwarning@@YA_NXZ       00453609 f   main.obj
 0001:00052639       ?var_soundchans@@YAXXZ     00453639 f   sound.obj
 0001:00052639       ?var_stencilbits@@YAXXZ    00453639 f   main.obj
 0001:00052639       ?var_scr_w@@YAXXZ          00453639 f   main.obj
 0001:00052639       ?var_colorbits@@YAXXZ      00453639 f   main.obj
 0001:00052639       ?var_depthbits@@YAXXZ      00453639 f   main.obj
 0001:00052639       ?var_vsync@@YAXXZ          00453639 f   main.obj
 0001:00052639       ?var_shaderprecision@@YAXXZ 00453639 f   shader.obj
 0001:00052639       ?var_shaders@@YAXXZ        00453639 f   shader.obj
 0001:00052639       ?var_soundfreq@@YAXXZ      00453639 f   sound.obj
 0001:00052639       ?var_fsaa@@YAXXZ           00453639 f   main.obj
 0001:00052639       ?var_scr_h@@YAXXZ          00453639 f   main.obj
 0001:00052639       ?var_soundbufferlen@@YAXXZ 00453639 f   sound.obj
 0001:0005263e       ?writeinitcfg@@YAXXZ       0045363e f   main.obj
 0001:00052724       ?screenshot@@YAXPAD@Z      00453724 f   main.obj
 0001:0005285e       ?computescreen@@YAXPBDPAUTexture@@@Z 0045385e f   main.obj
 0001:00052ce5       ?show_out_of_renderloop_progress@@YAXMPBDM0I@Z 00453ce5 f   main.obj
 0001:00053015       ?screenres@@YAXPAH0@Z      00454015 f   main.obj
 0001:00053030       ?var_fullscreen@@YAXXZ     00454030 f   main.obj
 0001:00053067       ?var_gamma@@YAXXZ          00454067 f   main.obj
 0001:000530bd       ?keyrepeat@@YAX_N@Z        004540bd f   main.obj
 0001:000530d1       ?var_gamespeed@@YAXXZ      004540d1 f   main.obj
 0001:000530e8       ?var_paused@@YAXXZ         004540e8 f   main.obj
 0001:000530fc       ?limitfps@@YAXAAHH@Z       004540fc f   main.obj
 0001:00053144       ?stackdumper@@YAXIPAU_EXCEPTION_POINTERS@@@Z 00454144 f   main.obj
 0001:00053341       ?getfps@@YAXAAH00@Z        00454341 f   main.obj
 0001:000533d5       ?var_clockfix@@YAXXZ       004543d5 f   main.obj
 0001:000533d5       ?var_clockerror@@YAXXZ     004543d5 f   main.obj
 0001:000533ea       ?var_grabmouse@@YAXXZ      004543ea f   main.obj
 0001:0005341a       ?getmatvec@@YAHUvec@@@Z    0045441a f   main.obj
 0001:00053450       ?var_perffps@@YAXXZ        00454450 f   main.obj
 0001:00053464       ?var_perflimit@@YAXXZ      00454464 f   main.obj
 0001:00053478       ?perfset@@YAXH@Z           00454478 f   main.obj
 0001:000538d5       ?var_perf@@YAXXZ           004548d5 f   main.obj
 0001:000538da       ?perfcheck@@YAXXZ          004548da f   main.obj
 0001:000539dd       ?loadconfig@@YAX_N@Z       004549dd f   main.obj
 0001:00053a29       ?startgame@@YAX_NPAD1@Z    00454a29 f   main.obj
 0001:00053a98       ?updateframe@@YAX_N@Z      00454a98 f   main.obj
 0001:00053ea9       _SDL_main                  00454ea9 f   main.obj
 0001:00054791       ?menuinfrontofplayer@@YA?AUvec@@XZ 00455791 f   menus.obj
 0001:000547fb       ?cleargui@@YAHH@Z          004557fb f   menus.obj
 0001:00054872       ?cleargui_@@YAXPAH@Z       00455872 f   menus.obj
 0001:00054885       ?guibutton@@YAXPAD00@Z     00455885 f   menus.obj
 0001:00054928       ?guiimage@@YAXPAD0PAMPAH@Z 00455928 f   menus.obj
 0001:000549aa       ?guitext@@YAXPAD0@Z        004559aa f   menus.obj
 0001:000549df       ?guititle@@YAXPAD@Z        004559df f   menus.obj
 0001:000549fa       ?guitab@@YAXPAD@Z          004559fa f   menus.obj
 0001:00054a13       ?guibar@@YAXXZ             00455a13 f   menus.obj
 0001:00054b04       ?guislider@@YAXPADPAH10@Z  00455b04 f   menus.obj
 0001:00054bad       ?guilistslider@@YAXPAD00@Z 00455bad f   menus.obj
 0001:00054cd4       ?guicheckbox@@YAXPAD0PAH10@Z 00455cd4 f   menus.obj
 0001:00054d42       ?guiradio@@YAXPAD0PAH0@Z   00455d42 f   menus.obj
 0001:00054d99       ?guifield@@YAXPADPAH00@Z   00455d99 f   menus.obj
 0001:00054e3a       ?guilist@@YAXPAD@Z         00455e3a f   menus.obj
 0001:00054e62       ?newgui@@YAXPAD0@Z         00455e62 f   menus.obj
 0001:00054ed1       ?showgui@@YAXPAD@Z         00455ed1 f   menus.obj
 0001:00054fb9       ?guiservers@@YAXXZ         00455fb9 f   menus.obj
 0001:00055021       ?gui@mainmenucallback@@UAEXAAUg3d_gui@@_N@Z 00456021 f i menus.obj
 0001:000550a6       ??_Emainmenucallback@@UAEPAXI@Z 004560a6 f i  CIL library: CIL module
 0001:000550a6       ??_Gmainmenucallback@@UAEPAXI@Z 004560a6 f i menus.obj
 0001:000550a6       ??_Gtexturegui@@UAEPAXI@Z  004560a6 f i octaedit.obj
 0001:000550a6       ??_Etexturegui@@UAEPAXI@Z  004560a6 f i  CIL library: CIL module
 0001:000550df       ?menuprocess@@YAXXZ        004560df f   menus.obj
 0001:00055169       ?find@?$hashtable@PADPAD@@QAEPAUchain@1@ABQAD_N@Z 00456169 f i menus.obj
 0001:000551c8       ?insert@?$hashtable@PADPAD@@QAEPAUchain@1@ABQADI@Z 004561c8 f i menus.obj
 0001:00055249       ??1sample@@QAE@XZ          00456249 f i sound.obj
 0001:0005525a       ?var_musicvol@@YAXXZ       0045625a f   sound.obj
 0001:00055284       ?stopsound@@YAXXZ          00456284 f   sound.obj
 0001:000552d4       ?initsound@@YAXXZ          004562d4 f   sound.obj
 0001:0005531a       ?musicdone@@YAXXZ          0045631a f   sound.obj
 0001:00055361       ?music@@YAXPAD0@Z          00456361 f   sound.obj
 0001:00055444       ?addsound@@YAHPADHHAAU?$vector@Usoundslot@@@@@Z 00456444 f   sound.obj
 0001:000554c3       ?registersound@@YAXPADPAH@Z 004564c3 f   sound.obj
 0001:000554e3       ?mapsound@@YAXPADPAH1@Z    004564e3 f   sound.obj
 0001:00055518       ?clearmapsounds@@YAXXZ     00456518 f   sound.obj
 0001:00055583       ?checkmapsounds@@YAXXZ     00456583 f   sound.obj
 0001:000555f3       ?updatechanvol@@YAXHHPBUvec@@PAUextentity@@@Z 004565f3 f   sound.obj
 0001:0005576d       ?newsoundloc@@YAXHPBUvec@@PAUsoundslot@@PAUextentity@@@Z 0045676d f   sound.obj
 0001:00055841       ?updatevol@@YAXXZ          00456841 f   sound.obj
 0001:000558d5       ?playsound@@YAXHPBUvec@@PAUextentity@@@Z 004568d5 f   sound.obj
 0001:00055a6a       ?playsoundname@@YAXPADPBUvec@@H@Z 00456a6a f   sound.obj
 0001:00055ad8       ?sound@@YAXPAH@Z           00456ad8 f   sound.obj
 0001:00055aea       ?clear@?$hashtable@PADUsample@@@@QAEXXZ 00456aea f i sound.obj
 0001:00055b67       ??1chain@?$hashtable@PADUsample@@@@QAE@XZ 00456b67 f i sound.obj
 0001:00055b99       ?find@?$hashtable@PADUsample@@@@QAEPAUchain@1@ABQAD_N@Z 00456b99 f i sound.obj
 0001:00055bf8       ?vrealloc@?$vector@Uaniminfo@vertmodel@@@@QAEXXZ 00456bf8 f i rendermodel.obj
 0001:00055bf8       ?vrealloc@?$vector@Usoundslot@@@@QAEXXZ 00456bf8 f i sound.obj
 0001:00055c3e       ?insert@?$hashtable@PADUsample@@@@QAEPAUchain@1@ABQADI@Z 00456c3e f i sound.obj
 0001:00055d02       ??0chain@?$hashtable@PADUsample@@@@QAE@XZ 00456d02 f i sound.obj
 0001:00055d25       ?rayrectintersect@@YA_NABUvec@@000AAMAAH@Z 00456d25 f   geom.obj
 0001:00055e87       ?path@@YAPADPAD@Z          00456e87 f   tools.obj
 0001:00055f1f       ?parentdir@@YAPBDPBD@Z     00456f1f f   tools.obj
 0001:00055f63       ?fileexists@@YA_NPBD0@Z    00456f63 f   tools.obj
 0001:00055f92       ?createdir@@YA_NPBD@Z      00456f92 f   tools.obj
 0001:00055fee       ?findfile@@YAPBDPBD0@Z     00456fee f   tools.obj
 0001:00056103       ?openfile@@YAPAU_iobuf@@PBD0@Z 00457103 f   tools.obj
 0001:00056125       ?opengzfile@@YAPAXPBD0@Z   00457125 f   tools.obj
 0001:00056147       ?loadfile@@YAPADPBDPAH@Z   00457147 f   tools.obj
 0001:000561d5       ?listdir@@YA_NPBD0AAU?$vector@PAD@@@Z 004571d5 f   tools.obj
 0001:00056284       ?listfiles@@YAHPBD0AAU?$vector@PAD@@@Z 00457284 f   tools.obj
 0001:0005633c       ?reloadMT@@YAIXZ           0045733c f   tools.obj
 0001:00056470       ?randomMT@@YAIXZ           00457470 f   tools.obj
 0001:000564b2       ??0dynent@@QAE@XZ          004574b2 f i fps.obj
 0001:00056532       ?reset@dynent@@QAEXXZ      00457532 f i fps.obj
 0001:00056559       ?abovehead@dynent@@QAE?AUvec@@XZ 00457559 f i fps.obj
 0001:000565a2       ?textf@g3d_gui@@QAAHPBDH0ZZ 004575a2 f i fps.obj
 0001:000565d3       ??1icliententities@@UAE@XZ 004575d3 f i fps.obj
 0001:000565da       ?wantext@icliententities@@UAE_NXZ 004575da f i fps.obj
 0001:000565da       ?allowed@ibotcom@@UAE_NXZ  004575da f i fps.obj
 0001:000565da       ?envmapped@model@@UAE_NXZ  004575da f i rendermodel.obj
 0001:000565dd       ?attachent@icliententities@@UAE_NAAUextentity@@0@Z 004575dd f i fps.obj
 0001:000565dd       ?isext@icliententities@@UAE_NHH@Z 004575dd f i fps.obj
 0001:000565e2       ?writeext@icliententities@@UAEXAAPAXHHHAAUentity@@@Z 004575e2 f i fps.obj
 0001:000565e2       ?readext@icliententities@@UAEXAAPAXHHHAAUentity@@@Z 004575e2 f i fps.obj
 0001:000565e5       ?gethudcolour@igameclient@@UAE_NAAUvec@@@Z 004575e5 f i fps.obj
 0001:000565e5       ?mayattach@icliententities@@UAE_NAAUextentity@@@Z 004575e5 f i fps.obj
 0001:000565e5       ?clientoption@igameclient@@UAE_NPAD@Z 004575e5 f i fps.obj
 0001:000565e5       ?serveroption@igameserver@@UAE_NPAD@Z 004575e5 f i fps.obj
 0001:000565ea       ??_Eicliententities@@UAEPAXI@Z 004575ea f i  CIL library: CIL module
 0001:000565ea       ??_Gicliententities@@UAEPAXI@Z 004575ea f i fps.obj
 0001:00056607       ??1iclientcom@@UAE@XZ      00457607 f i fps.obj
 0001:0005660e       ??_Eiclientcom@@UAEPAXI@Z  0045760e f i  CIL library: CIL module
 0001:0005660e       ??_Giclientcom@@UAEPAXI@Z  0045760e f i fps.obj
 0001:0005662b       ??1ibotcom@@UAE@XZ         0045762b f i fps.obj
 0001:00056632       ?sendpacketclient@ibotcom@@UAEHPAUbot@@AAU?$databuf@E@@AA_N@Z 00457632 f i fps.obj
 0001:00056638       ??_Eibotcom@@UAEPAXI@Z     00457638 f i  CIL library: CIL module
 0001:00056638       ??_Gibotcom@@UAEPAXI@Z     00457638 f i fps.obj
 0001:00056655       ??1iphysics@@UAE@XZ        00457655 f i fps.obj
 0001:0005665c       ?slopez@iphysics@@UAEMPAUphysent@@@Z 0045765c f i fps.obj
 0001:0005665c       ?slopez@physics@fpsclient@@UAEMPAUphysent@@@Z 0045765c f i fps.obj
 0001:00056665       ?jumpvel@iphysics@@UAEMPAUphysent@@@Z 00457665 f i fps.obj
 0001:0005666e       ?gravity@iphysics@@UAEMPAUphysent@@@Z 0045766e f i fps.obj
 0001:00056677       ?speed@iphysics@@UAEMPAUphysent@@@Z 00457677 f i fps.obj
 0001:00056680       ?stepspeed@iphysics@@UAEMPAUphysent@@@Z 00457680 f i fps.obj
 0001:00056680       ?stepspeed@physics@fpsclient@@UAEMPAUphysent@@@Z 00457680 f i fps.obj
 0001:00056685       ?waterfric@physics@fpsclient@@UAEMPAUphysent@@@Z 00457685 f i fps.obj
 0001:00056685       ?waterfric@iphysics@@UAEMPAUphysent@@@Z 00457685 f i fps.obj
 0001:0005668e       ?floorfric@iphysics@@UAEMPAUphysent@@@Z 0045768e f i fps.obj
 0001:0005668e       ?floorfric@physics@fpsclient@@UAEMPAUphysent@@@Z 0045768e f i fps.obj
 0001:00056697       ?airfric@iphysics@@UAEMPAUphysent@@@Z 00457697 f i fps.obj
 0001:00056697       ?airfric@physics@fpsclient@@UAEMPAUphysent@@@Z 00457697 f i fps.obj
 0001:000566a0       ?movepitch@iphysics@@UAE_NPAUphysent@@@Z 004576a0 f i fps.obj
 0001:000566a0       ?allowmove@igameclient@@UAE_NPAUphysent@@@Z 004576a0 f i fps.obj
 0001:000566a5       ?entradius@icliententities@@UAEXAAUextentity@@AAM1AAUvec@@@Z 004576a5 f i fps.obj
 0001:000566a5       ?extendbb@model@@UAEXHAAUvec@@0AAUmodelattach@@@Z 004576a5 f i rendermodel.obj
 0001:000566a5       ?trigger@iphysics@@UAEXPAUphysent@@_NHH@Z 004576a5 f i fps.obj
 0001:000566a8       ?move@iphysics@@UAE_NPAUphysent@@H_NHH@Z 004576a8 f i fps.obj
 0001:000566f4       ??_Eiphysics@@UAEPAXI@Z    004576f4 f i  CIL library: CIL module
 0001:000566f4       ??_Giphysics@@UAEPAXI@Z    004576f4 f i fps.obj
 0001:00056711       ??1igameclient@@UAE@XZ     00457711 f i fps.obj
 0001:00056718       ?recomputecamera@igameclient@@UAEXXZ 00457718 f i fps.obj
 0001:00056818       ?findorientation@igameclient@@UAEXXZ 00457818 f i fps.obj
 0001:0005690f       ?fixcamerarange@igameclient@@UAEXXZ 0045790f f i fps.obj
 0001:00056990       ?mousemove@igameclient@@UAEXHH@Z 00457990 f i fps.obj
 0001:00056a1e       ?wantcrosshair@igameclient@@UAE_NXZ 00457a1e f i fps.obj
 0001:00056a40       ?gamethirdperson@igameclient@@UAE_NXZ 00457a40 f i fps.obj
 0001:00056a4b       ?feetpos@igameclient@@UAE?AUvec@@PAUphysent@@@Z 00457a4b f i fps.obj
 0001:00056a5f       ?menuevent@igameclient@@UAEXH@Z 00457a5f f i fps.obj
 0001:00056a81       ??_Gigameclient@@UAEPAXI@Z 00457a81 f i fps.obj
 0001:00056a81       ??_Eigameclient@@UAEPAXI@Z 00457a81 f i  CIL library: CIL module
 0001:00056a9e       ??1igameserver@@UAE@XZ     00457a9e f i fps.obj
 0001:00056aa5       ?servercompare@igameserver@@UAEHPAUserverinfo@@0@Z 00457aa5 f i fps.obj
 0001:00056abb       ?serverinfogui@igameserver@@UAEPBDPAUg3d_gui@@AAU?$vector@Userverinfo@@@@@Z 00457abb f i fps.obj
 0001:00056ac0       ?otherclients@iclientcom@@UAEHXZ 00457ac0 f i fps.obj
 0001:00056ac0       ?extraentinfosize@entities@fpsclient@@UAEHXZ 00457ac0 f i fps.obj
 0001:00056ac0       ?setBIH@model@@UAEPAUBIH@@XZ 00457ac0 f i rendermodel.obj
 0001:00056ac0       ?getmastertype@igameserver@@UAEHXZ 00457ac0 f i fps.obj
 0001:00056ac0       ?newclient@ibotcom@@UAEPAUdynent@@XZ 00457ac0 f i fps.obj
 0001:00056ac3       ?canload@igameserver@@UAE_NPADH@Z 00457ac3 f i fps.obj
 0001:00056add       ??_Eigameserver@@UAEPAXI@Z 00457add f i  CIL library: CIL module
 0001:00056add       ??_Gigameserver@@UAEPAXI@Z 00457add f i fps.obj
 0001:00056afa       ??1igame@@UAE@XZ           00457afa f i fps.obj
 0001:00056b01       ??_Gigame@@UAEPAXI@Z       00457b01 f i fps.obj
 0001:00056b01       ??_Eigame@@UAEPAXI@Z       00457b01 f i  CIL library: CIL module
 0001:00056b43       ?hasmaxammo@fpsstate@@QAE_NH@Z 00457b43 f i fps.obj
 0001:00056b6d       ?canpickup@fpsstate@@QAE_NH@Z 00457b6d f i fps.obj
 0001:00056bda       ?pickup@fpsstate@@QAEXH@Z  00457bda f i fps.obj
 0001:00056c84       ?respawn@fpsstate@@QAEXXZ  00457c84 f i fps.obj
 0001:00056cc7       ?spawnstate@fpsstate@@QAEXH@Z 00457cc7 f i fps.obj
 0001:00056e5f       ?dodamage@fpsstate@@QAEHH@Z 00457e5f f i fps.obj
 0001:00056e8a       ??0fpsent@@QAE@XZ          00457e8a f i fps.obj
 0001:00056f57       ??1fpsent@@QAE@XZ          00457f57 f i fps.obj
 0001:00056f94       ?damageroll@fpsent@@QAEXM@Z 00457f94 f i fps.obj
 0001:00056fe9       ?hitpush@fpsent@@QAEXHABUvec@@PAU1@H@Z 00457fe9 f i fps.obj
 0001:0005708b       ?respawn@fpsent@@QAEXXZ    0045808b f i fps.obj
 0001:000570f1       ??0botent@@QAE@XZ          004580f1 f i fps.obj
 0001:0005713e       ?isalive@gamestate@fpsserver@@QAE_NH@Z 0045813e f i fps.obj
 0001:00057162       ?respawn@gamestate@fpsserver@@QAEXXZ 00458162 f i fps.obj
 0001:00057197       ?save@savedscore@fpsserver@@QAEXAAUgamestate@2@@Z 00458197 f i fps.obj
 0001:000571c5       ??0clientinfo@fpsserver@@QAE@XZ 004581c5 f i fps.obj
 0001:0005726d       ?addevent@clientinfo@fpsserver@@QAEAATgameevent@2@XZ 0045826d f i fps.obj
 0001:000572a0       ?mapchange@clientinfo@fpsserver@@QAEXXZ 004582a0 f i fps.obj
 0001:00057308       ??1servmode@fpsserver@@UAE@XZ 00458308 f i fps.obj
 0001:0005730f       ?canspawn@servmode@fpsserver@@UAE_NPAUclientinfo@2@_N1@Z 0045830f f i fps.obj
 0001:00057314       ?crosshaircolor@igameclient@@UAEXAAM00@Z 00458314 f i fps.obj
 0001:00057314       ?initclient@servmode@fpsserver@@UAEXPAUclientinfo@2@AAU?$databuf@E@@_N@Z 00458314 f i fps.obj
 0001:00057314       ?recordpacket@igameserver@@UAEXHPAXH@Z 00458314 f i fps.obj
 0001:00057314       ?changeteam@duelservmode@fpsserver@@UAEXPAUclientinfo@2@PBD1@Z 00458314 f i fps.obj
 0001:00057314       ?changeteam@servmode@fpsserver@@UAEXPAUclientinfo@2@PBD1@Z 00458314 f i fps.obj
 0001:00057314       ?particletrack@igameclient@@UAEXPAUphysent@@AAUvec@@1@Z 00458314 f i fps.obj
 0001:00057314       ?setenvmap@model@@UAEXMMPAUTexture@@@Z 00458314 f i rendermodel.obj
 0001:00057314       ?lighteffects@igameclient@@UAEXPAUdynent@@AAUvec@@1@Z 00458314 f i fps.obj
 0001:00057314       ?moved@servmode@fpsserver@@UAEXPAUclientinfo@2@ABUvec@@1@Z 00458314 f i fps.obj
 0001:00057314       ?parsepacketclient@ibotcom@@UAEXPAUbot@@HAAU?$databuf@E@@@Z 00458314 f i fps.obj
 0001:00057314       ?moved@duelservmode@fpsserver@@UAEXPAUclientinfo@2@ABUvec@@1@Z 00458314 f i fps.obj
 0001:00057317       ?damage@servmode@fpsserver@@UAE_NPAUclientinfo@2@0HHABUvec@@@Z 00458317 f i fps.obj
 0001:0005731c       ?canspawn@arenaservmode@fpsserver@@UAE_NPAUclientinfo@2@_N1@Z 0045831c f i fps.obj
 0001:00057340       ?reset@arenaservmode@fpsserver@@UAEX_N@Z 00458340 f i fps.obj
 0001:00057347       ?update@arenaservmode@fpsserver@@UAEXXZ 00458347 f i fps.obj
 0001:000574af       ?enter@baseinfo@capturestate@fpsserver@@QAE_NPBD@Z 004584af f i fps.obj
 0001:000574f8       ?occupy@baseinfo@capturestate@fpsserver@@QAEHPBDH@Z 004584f8 f i fps.obj
 0001:0005758c       ?insidebase@capturestate@fpsclient@@QAE_NABUbaseinfo@12@ABUvec@@@Z 0045858c f i fps.obj
 0001:0005758c       ?insidebase@capturestate@fpsserver@@QAE_NABUbaseinfo@12@ABUvec@@@Z 0045858c f i fps.obj
 0001:000575f1       ??0captureservmode@fpsserver@@QAE@AAU1@@Z 004585f1 f i fps.obj
 0001:0005767e       ?reset@captureservmode@fpsserver@@UAEX_N@Z 0045867e f i fps.obj
 0001:000576a7       ?stealbase@captureservmode@fpsserver@@QAEXHPBD@Z 004586a7 f i fps.obj
 0001:0005773f       ?replenishammo@captureservmode@fpsserver@@QAEXPAUclientinfo@2@@Z 0045873f f i fps.obj
 0001:00057857       ?movebases@captureservmode@fpsserver@@QAEXPBDABUvec@@1@Z 00458857 f i fps.obj
 0001:00057961       ?leavebases@captureservmode@fpsserver@@QAEXPBDABUvec@@@Z 00458961 f i fps.obj
 0001:0005798c       ?enterbases@captureservmode@fpsserver@@QAEXPBDABUvec@@@Z 0045898c f i fps.obj
 0001:000579b7       ?addscore@captureservmode@fpsserver@@QAEXPBDH@Z 004589b7 f i fps.obj
 0001:000579ee       ?update@captureservmode@fpsserver@@UAEXXZ 004589ee f i fps.obj
 0001:00057b58       ?sendbaseinfo@captureservmode@fpsserver@@QAEXH@Z 00458b58 f i fps.obj
 0001:00057bac       ?sendbases@captureservmode@fpsserver@@QAEXXZ 00458bac f i fps.obj
 0001:00057c0d       ?initclient@captureservmode@fpsserver@@UAEXPAUclientinfo@2@AAU?$databuf@E@@_N@Z 00458c0d f i fps.obj
 0001:00057cee       ?endcheck@captureservmode@fpsserver@@QAEXXZ 00458cee f i fps.obj
 0001:00057d73       ?entergame@captureservmode@fpsserver@@UAEXPAUclientinfo@2@@Z 00458d73 f i fps.obj
 0001:00057d73       ?spawned@captureservmode@fpsserver@@UAEXPAUclientinfo@2@@Z 00458d73 f i fps.obj
 0001:00057d93       ?leavegame@captureservmode@fpsserver@@UAEXPAUclientinfo@2@@Z 00458d93 f i fps.obj
 0001:00057db3       ?died@captureservmode@fpsserver@@UAEXPAUclientinfo@2@0@Z 00458db3 f i fps.obj
 0001:00057dd3       ?moved@captureservmode@fpsserver@@UAEXPAUclientinfo@2@ABUvec@@1@Z 00458dd3 f i fps.obj
 0001:00057df6       ?changeteam@captureservmode@fpsserver@@UAEXPAUclientinfo@2@PBD1@Z 00458df6 f i fps.obj
 0001:00057e25       ?parsebases@captureservmode@fpsserver@@QAEXAAU?$databuf@E@@@Z 00458e25 f i fps.obj
 0001:00057f04       ?queue@duelservmode@fpsserver@@QAEXPAUclientinfo@2@_N1@Z 00458f04 f i fps.obj
 0001:00058024       ?initclient@duelservmode@fpsserver@@UAEXPAUclientinfo@2@AAU?$databuf@E@@_N@Z 00459024 f i fps.obj
 0001:00058034       ?entergame@duelservmode@fpsserver@@UAEXPAUclientinfo@2@@Z 00459034 f i fps.obj
 0001:00058044       ?leavegame@duelservmode@fpsserver@@UAEXPAUclientinfo@2@@Z 00459044 f i fps.obj
 0001:00058068       ?damage@duelservmode@fpsserver@@UAE_NPAUclientinfo@2@0HHABUvec@@@Z 00459068 f i fps.obj
 0001:00058072       ?canspawn@duelservmode@fpsserver@@UAE_NPAUclientinfo@2@_N1@Z 00459072 f i fps.obj
 0001:0005808b       ?died@duelservmode@fpsserver@@UAEXPAUclientinfo@2@0@Z 0045908b f i fps.obj
 0001:0005809b       ?update@duelservmode@fpsserver@@UAEXXZ 0045909b f i fps.obj
 0001:000584d3       ?reset@duelservmode@fpsserver@@UAEX_N@Z 004594d3 f i fps.obj
 0001:0005851f       ??0fpsserver@@QAE@XZ       0045951f f i fps.obj
 0001:00058a86       ?newinfo@fpsserver@@UAEPAXXZ 00459a86 f i fps.obj
 0001:00058ac1       ?deleteinfo@fpsserver@@UAEXPAX@Z 00459ac1 f i fps.obj
 0001:00058ad0       ?modestr@fpsserver@@SAPBDH@Z 00459ad0 f i fps.obj
 0001:00058aeb       ?sendservmsg@fpsserver@@UAEXPBD@Z 00459aeb f i fps.obj
 0001:00058b05       ?spawntime@fpsserver@@QAEHH@Z 00459b05 f i fps.obj
 0001:00058b7c       ?pickup@fpsserver@@QAE_NHH@Z 00459b7c f i fps.obj
 0001:00058c3c       ?vote@fpsserver@@QAEXPADHH@Z 00459c3c f i fps.obj
 0001:00058da8       ?autoteam@fpsserver@@QAEXXZ 00459da8 f i fps.obj
 0001:00059003       ?chooseworstteam@fpsserver@@QAEPBDPBD@Z 0045a003 f i fps.obj
 0001:0005912e       ?writedemo@fpsserver@@QAEXHPAXH@Z 0045a12e f i fps.obj
 0001:00059171       ?recordpacket@fpsserver@@UAEXHPAXH@Z 0045a171 f i fps.obj
 0001:0005918b       ?enddemorecord@fpsserver@@QAEXXZ 0045a18b f i fps.obj
 0001:00059351       ?setupdemorecord@fpsserver@@QAEXXZ 0045a351 f i fps.obj
 0001:000594fc       ?listdemos@fpsserver@@QAEXH@Z 0045a4fc f i fps.obj
 0001:0005959f       ?cleardemos@fpsserver@@QAEXH@Z 0045a59f f i fps.obj
 0001:0005965d       ?senddemo@fpsserver@@QAEXHH@Z 0045a65d f i fps.obj
 0001:000596ad       ?setupdemoplayback@fpsserver@@QAEXXZ 0045a6ad f i fps.obj
 0001:00059841       ?enddemoplayback@fpsserver@@QAEXXZ 0045a841 f i fps.obj
 0001:0005993e       ?readdemo@fpsserver@@QAEXXZ 0045a93e f i fps.obj
 0001:00059a29       ?changemap@fpsserver@@UAEXPBDH@Z 0045aa29 f i fps.obj
 0001:00059be7       ?findscore@fpsserver@@QAEAAUsavedscore@1@PAUclientinfo@1@_N@Z 0045abe7 f i fps.obj
 0001:00059d41       ?checkvotes@fpsserver@@QAEX_N@Z 0045ad41 f i fps.obj
 0001:00059f9d       ?nonspectators@fpsserver@@QAEHH@Z 0045af9d f i fps.obj
 0001:00059fd0       ?freecallback@fpsserver@@SAXPAU_ENetPacket@@@Z 0045afd0 f i fps.obj
 0001:00059fd9       ?cleanworldstate@fpsserver@@QAEXPAU_ENetPacket@@@Z 0045afd9 f i fps.obj
 0001:0005a05f       ?buildworldstate@fpsserver@@QAE_NXZ 0045b05f f i fps.obj
 0001:0005a479       ?sendpackets@fpsserver@@UAE_NXZ 0045b479 f i fps.obj
 0001:0005a4c0       ?parsepacket@fpsserver@@UAEXHH_NAAU?$databuf@E@@@Z 0045b4c0 f i fps.obj
 0001:0005bae4       ?welcomepacket@fpsserver@@UAEHAAU?$databuf@E@@H@Z 0045cae4 f i fps.obj
 0001:0005be98       ?checkintermission@fpsserver@@QAEXXZ 0045ce98 f i fps.obj
 0001:0005bf10       ?startintermission@fpsserver@@QAEXXZ 0045cf10 f i fps.obj
 0001:0005bf29       ?clearevent@fpsserver@@QAEXPAUclientinfo@1@@Z 0045cf29 f i fps.obj
 0001:0005bf99       ?spawnstate@fpsserver@@QAEXPAUclientinfo@1@@Z 0045cf99 f i fps.obj
 0001:0005c00d       ?sendspawn@fpsserver@@QAEXPAUclientinfo@1@@Z 0045d00d f i fps.obj
 0001:0005c065       ?dodamage@fpsserver@@QAEXPAUclientinfo@1@0HHABUvec@@@Z 0045d065 f i fps.obj
 0001:0005c2df       ?processevent@fpsserver@@QAEXPAUclientinfo@1@AAUexplodeevent@1@@Z 0045d2df f i fps.obj
 0001:0005c46e       ?processevent@fpsserver@@QAEXPAUclientinfo@1@AAUshotevent@1@@Z 0045d46e f i fps.obj
 0001:0005c6b6       ?processevents@fpsserver@@QAEXXZ 0045d6b6 f i fps.obj
 0001:0005c820       ?serverupdate@fpsserver@@UAEXHH@Z 0045d820 f i fps.obj
 0001:0005cb92       ?serveroption@fpsserver@@UAE_NPAD@Z 0045db92 f i fps.obj
 0001:0005cc31       ?serverinit@fpsserver@@UAEXXZ 0045dc31 f i fps.obj
 0001:0005cc4e       ?setmaster@fpsserver@@QAEXPAUclientinfo@1@_NPBD@Z 0045dc4e f i fps.obj
 0001:0005cdfe       ?localconnect@fpsserver@@UAEXH@Z 0045ddfe f i fps.obj
 0001:0005ce2f       ?localdisconnect@fpsserver@@UAEXH@Z 0045de2f f i fps.obj
 0001:0005ce6f       ?clientconnect@fpsserver@@UAEHHI@Z 0045de6f f i fps.obj
 0001:0005cf04       ?clientdisconnect@fpsserver@@UAEXH@Z 0045df04 f i fps.obj
 0001:0005cfcb       ?servername@fpsserver@@UAEPADXZ 0045dfcb f i fps.obj
 0001:0005cfd1       ?serverinfoport@fpsserver@@UAEHXZ 0045dfd1 f i fps.obj
 0001:0005cfed       ?serverport@fpsserver@@UAEHXZ 0045dfed f i fps.obj
 0001:0005d009       ?getdefaultmaster@fpsserver@@UAEPADXZ 0045e009 f i fps.obj
 0001:0005d028       ?serverinforeply@fpsserver@@UAEXAAU?$databuf@E@@@Z 0045e028 f i fps.obj
 0001:0005d091       ?serverstat@fpsserver@@QAEHPAUserverinfo@@@Z 0045e091 f i fps.obj
 0001:0005d0d7       ?serversortreset@fpsserver@@QAEXXZ 0045e0d7 f i fps.obj
 0001:0005d110       ?servercompare@fpsserver@@UAEHPAUserverinfo@@0@Z 0045e110 f i fps.obj
 0001:0005d3f8       ?serverinfogui@fpsserver@@UAEPBDPAUg3d_gui@@AAU?$vector@Userverinfo@@@@@Z 0045e3f8 f i fps.obj
 0001:0005d7e8       ?receivefile@fpsserver@@QAEXHPAEH@Z 0045e7e8 f i fps.obj
 0001:0005d89a       ?duplicatename@fpsserver@@QAE_NPAUclientinfo@1@PAD@Z 0045e89a f i fps.obj
 0001:0005d8e7       ?colorname@fpsserver@@QAEPADPAUclientinfo@1@PAD@Z 0045e8e7 f i fps.obj
 0001:0005d92c       ?gameident@fpsserver@@UAEPADXZ 0045e92c f i fps.obj
 0001:0005d94b       ?gamename@fpsserver@@UAEPADXZ 0045e94b f i fps.obj
 0001:0005d96a       ?gametitle@fpsserver@@UAEPADXZ 0045e96a f i fps.obj
 0001:0005d986       ?defaultmap@fpsserver@@UAEPADXZ 0045e986 f i fps.obj
 0001:0005d9a5       ?canload@fpsserver@@UAE_NPADH@Z 0045e9a5 f i fps.obj
 0001:0005d9e0       ?servsend@fpsserver@@QAAXHPBDZZ 0045e9e0 f i fps.obj
 0001:0005da16       ?servcmd@fpsserver@@QAEXPAUclientinfo@1@PAD_N@Z 0045ea16 f i fps.obj
 0001:0005da65       ?resetvars@fpsserver@@QAEXXZ 0045ea65 f i fps.obj
 0001:0005dac0       ?hasmode@fpsserver@@QAE_NPAUclientinfo@1@H@Z 0045eac0 f i fps.obj
 0001:0005db0e       ?servvar@fpsserver@@QAEXPAUclientinfo@1@PBDPAHHHPAD@Z 0045eb0e f i fps.obj
 0001:0005db91       ?setpowerup@fpsserver@@QAEXPAUclientinfo@1@PAD1@Z 0045eb91 f i fps.obj
 0001:0005de94       ?setspawnstate@fpsserver@@QAEXPAUclientinfo@1@PAD1@Z 0045ee94 f i fps.obj
 0001:0005e18c       ?scrsort@fpsserver@@SAHPAPBUscr@1@0@Z 0045f18c f i fps.obj
 0001:0005e1bc       ?scradd@fpsserver@@QAEXAAU?$vector@PAUscr@fpsserver@@@@PADH@Z 0045f1bc f i fps.obj
 0001:0005e28d       ?run@cmd_version@?1???0fpsserver@@QAE@XZ@UAEXPAPAD@Z 0045f28d f   fps.obj
 0001:0005e302       ?run@cmd_timelimit@?2???0fpsserver@@QAE@XZ@UAEXPAPAD@Z 0045f302 f   fps.obj
 0001:0005e393       ?run@cmd_fraglimit@?3???0fpsserver@@QAE@XZ@UAEXPAPAD@Z 0045f393 f   fps.obj
 0001:0005e40d       ?run@cmd_duelgame@?4???0fpsserver@@QAE@XZ@UAEXPAPAD@Z 0045f40d f   fps.obj
 0001:0005e487       ?run@cmd_damagescale@?5???0fpsserver@@QAE@XZ@UAEXPAPAD@Z 0045f487 f   fps.obj
 0001:0005e501       ?run@cmd_instakill@?6???0fpsserver@@QAE@XZ@UAEXPAPAD@Z 0045f501 f   fps.obj
 0001:0005e578       ?run@cmd_teamdamage@?7???0fpsserver@@QAE@XZ@UAEXPAPAD@Z 0045f578 f   fps.obj
 0001:0005e5ef       ?run@cmd_powerup@?8???0fpsserver@@QAE@XZ@UAEXPAPAD@Z 0045f5ef f   fps.obj
 0001:0005e65d       ?run@cmd_spawnstate@?9???0fpsserver@@QAE@XZ@UAEXPAPAD@Z 0045f65d f   fps.obj
 0001:0005e6cb       ??_Gservmode@fpsserver@@UAEPAXI@Z 0045f6cb f i fps.obj
 0001:0005e6cb       ??_Eservmode@fpsserver@@UAEPAXI@Z 0045f6cb f i  CIL library: CIL module
 0001:0005e6e8       ??_Earenaservmode@fpsserver@@UAEPAXI@Z 0045f6e8 f i  CIL library: CIL module
 0001:0005e6e8       ??_Garenaservmode@fpsserver@@UAEPAXI@Z 0045f6e8 f i fps.obj
 0001:0005e705       ??_Ecaptureservmode@fpsserver@@UAEPAXI@Z 0045f705 f i  CIL library: CIL module
 0001:0005e705       ??_Gcaptureservmode@fpsserver@@UAEPAXI@Z 0045f705 f i fps.obj
 0001:0005e722       ??1capturestate@fpsserver@@QAE@XZ 0045f722 f i fps.obj
 0001:0005e722       ??1capturestate@fpsclient@@QAE@XZ 0045f722 f i fps.obj
 0001:0005e76f       ??_Eduelservmode@fpsserver@@UAEPAXI@Z 0045f76f f i  CIL library: CIL module
 0001:0005e76f       ??_Gduelservmode@fpsserver@@UAEPAXI@Z 0045f76f f i fps.obj
 0001:0005e78c       ??_Efpsserver@@UAEPAXI@Z   0045f78c f i  CIL library: CIL module
 0001:0005e78c       ??_Gfpsserver@@UAEPAXI@Z   0045f78c f i fps.obj
 0001:0005e7a9       ??1arenaservmode@fpsserver@@UAE@XZ 0045f7a9 f i fps.obj
 0001:0005e7ce       ??1captureservmode@fpsserver@@UAE@XZ 0045f7ce f i fps.obj
 0001:0005e800       ??1duelservmode@fpsserver@@UAE@XZ 0045f800 f i fps.obj
 0001:0005e833       ??1cmd_powerup@?8???0fpsserver@@QAE@XZ@UAE@XZ 0045f833 f i fps.obj
 0001:0005e833       ??1cmd_instakill@?6???0fpsserver@@QAE@XZ@UAE@XZ 0045f833 f i fps.obj
 0001:0005e833       ??1cmd_fraglimit@?3???0fpsserver@@QAE@XZ@UAE@XZ 0045f833 f i fps.obj
 0001:0005e833       ??1cmd_damagescale@?5???0fpsserver@@QAE@XZ@UAE@XZ 0045f833 f i fps.obj
 0001:0005e833       ??1cmd_spawnstate@?9???0fpsserver@@QAE@XZ@UAE@XZ 0045f833 f i fps.obj
 0001:0005e833       ??1cmd_duelgame@?4???0fpsserver@@QAE@XZ@UAE@XZ 0045f833 f i fps.obj
 0001:0005e833       ??1cmd_teamdamage@?7???0fpsserver@@QAE@XZ@UAE@XZ 0045f833 f i fps.obj
 0001:0005e833       ??1cmd_version@?1???0fpsserver@@QAE@XZ@UAE@XZ 0045f833 f i fps.obj
 0001:0005e833       ??1cmd_timelimit@?2???0fpsserver@@QAE@XZ@UAE@XZ 0045f833 f i fps.obj
 0001:0005e858       ??_Gclientinfo@fpsserver@@QAEPAXI@Z 0045f858 f i fps.obj
 0001:0005e8bc       ??_Gworldstate@fpsserver@@QAEPAXI@Z 0045f8bc f i fps.obj
 0001:0005e8fa       ??_Ecmd_instakill@?6???0fpsserver@@QAE@XZ@UAEPAXI@Z 0045f8fa f i  CIL library: CIL module
 0001:0005e8fa       ??_Ecmd_timelimit@?2???0fpsserver@@QAE@XZ@UAEPAXI@Z 0045f8fa f i  CIL library: CIL module
 0001:0005e8fa       ??_Gcmd_teamdamage@?7???0fpsserver@@QAE@XZ@UAEPAXI@Z 0045f8fa f i fps.obj
 0001:0005e8fa       ??_Gcmd_fraglimit@?3???0fpsserver@@QAE@XZ@UAEPAXI@Z 0045f8fa f i fps.obj
 0001:0005e8fa       ??_Gcmd_timelimit@?2???0fpsserver@@QAE@XZ@UAEPAXI@Z 0045f8fa f i fps.obj
 0001:0005e8fa       ??_Ecmd_damagescale@?5???0fpsserver@@QAE@XZ@UAEPAXI@Z 0045f8fa f i  CIL library: CIL module
 0001:0005e8fa       ??_Gcmd_version@?1???0fpsserver@@QAE@XZ@UAEPAXI@Z 0045f8fa f i fps.obj
 0001:0005e8fa       ??_Ecmd_version@?1???0fpsserver@@QAE@XZ@UAEPAXI@Z 0045f8fa f i  CIL library: CIL module
 0001:0005e8fa       ??_Ecmd_teamdamage@?7???0fpsserver@@QAE@XZ@UAEPAXI@Z 0045f8fa f i  CIL library: CIL module
 0001:0005e8fa       ??_Gcmd_spawnstate@?9???0fpsserver@@QAE@XZ@UAEPAXI@Z 0045f8fa f i fps.obj
 0001:0005e8fa       ??_Ecmd_spawnstate@?9???0fpsserver@@QAE@XZ@UAEPAXI@Z 0045f8fa f i  CIL library: CIL module
 0001:0005e8fa       ??_Gcmd_duelgame@?4???0fpsserver@@QAE@XZ@UAEPAXI@Z 0045f8fa f i fps.obj
 0001:0005e8fa       ??_Gcmd_damagescale@?5???0fpsserver@@QAE@XZ@UAEPAXI@Z 0045f8fa f i fps.obj
 0001:0005e8fa       ??_Ecmd_fraglimit@?3???0fpsserver@@QAE@XZ@UAEPAXI@Z 0045f8fa f i  CIL library: CIL module
 0001:0005e8fa       ??_Gcmd_powerup@?8???0fpsserver@@QAE@XZ@UAEPAXI@Z 0045f8fa f i fps.obj
 0001:0005e8fa       ??_Gcmd_instakill@?6???0fpsserver@@QAE@XZ@UAEPAXI@Z 0045f8fa f i fps.obj
 0001:0005e8fa       ??_Ecmd_powerup@?8???0fpsserver@@QAE@XZ@UAEPAXI@Z 0045f8fa f i  CIL library: CIL module
 0001:0005e8fa       ??_Ecmd_duelgame@?4???0fpsserver@@QAE@XZ@UAEPAXI@Z 0045f8fa f i  CIL library: CIL module
 0001:0005e933       ??1fpsserver@@UAE@XZ       0045f933 f i fps.obj
 0001:0005ea3b       ??0weaponstate@fpsclient@@QAE@AAU1@@Z 0045fa3b f i fps.obj
 0001:0005ec0a       ?weaponswitch@weaponstate@fpsclient@@QAEXHHH@Z 0045fc0a f i fps.obj
 0001:0005eee8       ?offsetray@weaponstate@fpsclient@@QAEXAAUvec@@0H0@Z 0045fee8 f i fps.obj
 0001:0005f009       ?createrays@weaponstate@fpsclient@@QAEXAAUvec@@0@Z 00460009 f i fps.obj
 0001:0005f03e       ?newbouncer@weaponstate@fpsclient@@QAEXABUvec@@0_NPAUfpsent@@HHH@Z 0046003e f i fps.obj
 0001:0005f1fd       ?bounceupdate@weaponstate@fpsclient@@QAEXH@Z 004601fd f i fps.obj
 0001:0005f4b9       ?removebouncers@weaponstate@fpsclient@@QAEXPAUfpsent@@@Z 004604b9 f i fps.obj
 0001:0005f4fc       ?projreset@weaponstate@fpsclient@@QAEXXZ 004604fc f i fps.obj
 0001:0005f547       ?newprojectile@weaponstate@fpsclient@@QAEXABUvec@@0M_NPAUfpsent@@H@Z 00460547 f i fps.obj
 0001:0005f5fc       ?removeprojectiles@weaponstate@fpsclient@@QAEXPAUfpsent@@@Z 004605fc f i fps.obj
 0001:0005f642       ?damageeffect@weaponstate@fpsclient@@QAEXHPAUfpsent@@@Z 00460642 f i fps.obj
 0001:0005f6e2       ?spawnbouncer@weaponstate@fpsclient@@QAEXAAUvec@@0PAUfpsent@@H@Z 004606e2 f i fps.obj
 0001:0005f79c       ?superdamageeffect@weaponstate@fpsclient@@QAEXAAUvec@@PAUfpsent@@@Z 0046079c f i fps.obj
 0001:0005f7f5       ?hit@weaponstate@fpsclient@@QAEXHPAUfpsent@@0ABUvec@@HH@Z 004607f5 f i fps.obj
 0001:0005f922       ?hitpush@weaponstate@fpsclient@@QAEXHPAUfpsent@@0AAUvec@@1HH@Z 00460922 f i fps.obj
 0001:0005f971       ?radialeffect@weaponstate@fpsclient@@QAEXPAUfpsent@@AAUvec@@H0H@Z 00460971 f i fps.obj
 0001:0005fa0e       ?rocketdist@weaponstate@fpsclient@@QAEMPAUfpsent@@AAUvec@@ABU4@@Z 00460a0e f i fps.obj
 0001:0005fa69       ?wobeffect@weaponstate@fpsclient@@QAEXAAUvec@@H@Z 00460a69 f i fps.obj
 0001:0005fadb       ?explode@weaponstate@fpsclient@@QAEX_NPAUfpsent@@AAUvec@@PAUdynent@@HH@Z 00460adb f i fps.obj
 0001:0005fd00       ?splash@weaponstate@fpsclient@@QAEXAAUprojectile@12@AAUvec@@PAUdynent@@H@Z 00460d00 f i fps.obj
 0001:0005fd56       ?projdamage@weaponstate@fpsclient@@QAE_NPAUfpsent@@AAUprojectile@12@AAUvec@@H@Z 00460d56 f i fps.obj
 0001:0005fddd       ?moveprojectiles@weaponstate@fpsclient@@QAEXH@Z 00460ddd f i fps.obj
 0001:00060167       ?hudgunorigin@weaponstate@fpsclient@@QAE?AUvec@@HABU3@0PAUfpsent@@@Z 00461167 f i fps.obj
 0001:0006038c       ?shootv@weaponstate@fpsclient@@QAEXHAAUvec@@0PAUfpsent@@_N@Z 0046138c f i fps.obj
 0001:0006055c       ?intersectclosest@weaponstate@fpsclient@@QAEPAUfpsent@@AAUvec@@0PAU3@@Z 0046155c f i fps.obj
 0001:000605e5       ?shorten@weaponstate@fpsclient@@QAEXAAUvec@@00@Z 004615e5 f i fps.obj
 0001:0006063f       ?raydamage@weaponstate@fpsclient@@QAEXAAUvec@@0PAUfpsent@@@Z 0046163f f i fps.obj
 0001:0006079a       ?shoot@weaponstate@fpsclient@@QAEXPAUfpsent@@AAUvec@@@Z 0046179a f i fps.obj
 0001:00060cc8       ?renderprojectiles@weaponstate@fpsclient@@QAEXXZ 00461cc8 f i fps.obj
 0001:00061009       ?dynlightprojectiles@weaponstate@fpsclient@@QAEXXZ 00462009 f i fps.obj
 0001:00061134       ??0monster@monsterset@fpsclient@@QAE@HHHHHPAU12@@Z 00462134 f i fps.obj
 0001:000612d7       ??0monsterset@fpsclient@@QAE@AAU1@@Z 004622d7 f i fps.obj
 0001:000613ae       ?spawnmonster@monsterset@fpsclient@@QAEXXZ 004623ae f i fps.obj
 0001:0006143d       ?monsterclear@monsterset@fpsclient@@QAEXH@Z 0046243d f i fps.obj
 0001:00061615       ?endsp@monsterset@fpsclient@@QAEX_N@Z 00462615 f i fps.obj
 0001:0006164c       ?monsterkilled@monsterset@fpsclient@@QAEXXZ 0046264c f i fps.obj
 0001:000616e8       ?monsterthink@monsterset@fpsclient@@QAEXHH@Z 004626e8 f i fps.obj
 0001:000617c6       ?monsterrender@monsterset@fpsclient@@QAEXXZ 004627c6 f i fps.obj
 0001:00061885       ??0scoreboard@fpsclient@@QAE@AAU1@@Z 00462885 f i fps.obj
 0001:00061abe       ?showscores@scoreboard@fpsclient@@QAEX_N@Z 00462abe f i fps.obj
 0001:00061af6       ?teamscorecmp@scoreboard@fpsclient@@SAHPBUteamscore@12@0@Z 00462af6 f i fps.obj
 0001:00061b22       ?playersort@scoreboard@fpsclient@@SAHPAPBUfpsent@@0@Z 00462b22 f i fps.obj
 0001:00061b90       ?bestplayers@scoreboard@fpsclient@@QAEXAAU?$vector@PAUfpsent@@@@@Z 00462b90 f i fps.obj
 0001:00061c1b       ?sortteams@scoreboard@fpsclient@@QAEXAAU?$vector@Uteamscore@scoreboard@fpsclient@@@@@Z 00462c1b f i fps.obj
 0001:00061d56       ?bestteams@scoreboard@fpsclient@@QAEXAAU?$vector@PBD@@@Z 00462d56 f i fps.obj
 0001:00061dea       ?scoregroupcmp@scoreboard@fpsclient@@SAHPAPBUscoregroup@12@0@Z 00462dea f i fps.obj
 0001:00061e4f       ?groupplayers@scoreboard@fpsclient@@QAEHXZ 00462e4f f i fps.obj
 0001:000620cf       ?gui@scoreboard@fpsclient@@UAEXAAUg3d_gui@@_N@Z 004630cf f i fps.obj
 0001:00062c12       ??0fpsrender@fpsclient@@QAE@AAU1@@Z 00463c12 f i fps.obj
 0001:00062c96       ?renderplayer@fpsrender@fpsclient@@QAEXPAUfpsent@@PBD@Z 00463c96 f i fps.obj
 0001:00062e4d       ?rendergame@fpsrender@fpsclient@@QAEXH@Z 00463e4d f i fps.obj
 0001:00063128       ??0entities@fpsclient@@QAE@AAU1@@Z 00464128 f i fps.obj
 0001:00063240       ?getents@entities@fpsclient@@UAEAAU?$vector@PAUextentity@@@@XZ 00464240 f i fps.obj
 0001:00063244       ?renderent@entities@fpsclient@@QAEXAAUextentity@@HMMHHM@Z 00464244 f i fps.obj
 0001:000632ca       ?renderentities@entities@fpsclient@@QAEXXZ 004642ca f i fps.obj
 0001:0006351f       ?rumble@entities@fpsclient@@UAEXABUextentity@@@Z 0046451f f i fps.obj
 0001:00063532       ?trigger@entities@fpsclient@@UAEXAAUextentity@@@Z 00464532 f i fps.obj
 0001:00063552       ?repammo@entities@fpsclient@@QAEXPAUfpsent@@H@Z 00464552 f i fps.obj
 0001:0006359b       ?pickupeffects@entities@fpsclient@@QAEXHPAUfpsent@@@Z 0046459b f i fps.obj
 0001:000636c2       ?teleport@entities@fpsclient@@QAEXHPAUfpsent@@@Z 004646c2 f i fps.obj
 0001:000637b1       ?trypickup@entities@fpsclient@@QAEXHPAUfpsent@@@Z 004647b1 f i fps.obj
 0001:000639d3       ?checkitems@entities@fpsclient@@QAEXPAUfpsent@@@Z 004649d3 f i fps.obj
 0001:00063a7e       ?putitems@entities@fpsclient@@QAEXAAU?$databuf@E@@H@Z 00464a7e f i fps.obj
 0001:00063b0a       ?newentity@entities@fpsclient@@UAEPAUextentity@@XZ 00464b0a f i fps.obj
 0001:00063b5e       ?fixentity@entities@fpsclient@@UAEXAAUextentity@@@Z 00464b5e f i fps.obj
 0001:00063b9e       ?entradius@entities@fpsclient@@UAEXAAUextentity@@AAM1AAUvec@@@Z 00464b9e f i fps.obj
 0001:00063cb2       ?entnameinfo@entities@fpsclient@@UAEPBDAAUentity@@@Z 00464cb2 f i fps.obj
 0001:00063cba       ?entname@entities@fpsclient@@UAEPBDH@Z 00464cba f i fps.obj
 0001:00063cf9       ?gameconnect@ibotcom@@UAEXPAUbot@@_N@Z 00464cf9 f i fps.obj
 0001:00063cf9       ?toservcmd@iclientcom@@UAEXPAD_N@Z 00464cf9 f i fps.obj
 0001:00063cf9       ?changemap@igameserver@@UAEXPBDH@Z 00464cf9 f i fps.obj
 0001:00063cf9       ?died@servmode@fpsserver@@UAEXPAUclientinfo@2@0@Z 00464cf9 f i fps.obj
 0001:00063cf9       ?writeent@entities@fpsclient@@UAEXAAUentity@@PAD@Z 00464cf9 f i fps.obj
 0001:00063cfc       ?readent@entities@fpsclient@@UAEXAAUentity@@PAD@Z 00464cfc f i fps.obj
 0001:00063d2b       ?editent@entities@fpsclient@@UAEXH@Z 00464d2b f i fps.obj
 0001:00063dbf       ?dropheight@entities@fpsclient@@UAEMAAUentity@@@Z 00464dbf f i fps.obj
 0001:00063ddb       ?isext@entities@fpsclient@@UAE_NHH@Z 00464ddb f i fps.obj
 0001:00063dfe       ?extentdelink@entities@fpsclient@@QAEXH@Z 00464dfe f i fps.obj
 0001:00063ee2       ?extentlink@entities@fpsclient@@QAEXH@Z 00464ee2 f i fps.obj
 0001:00063fca       ?extentlinks@entities@fpsclient@@QAEXH@Z 00464fca f i fps.obj
 0001:00064033       ?extentfix@entities@fpsclient@@QAEXAAUextentity@@@Z 00465033 f i fps.obj
 0001:000640eb       ?gotocamera@entities@fpsclient@@QAEXHPAUfpsent@@AAH@Z 004650eb f i fps.obj
 0001:0006422f       ?loaddefaultparts@vertmodel@@UAE_NXZ 0046522f f i rendermodel.obj
 0001:0006422f       ?wantext@entities@fpsclient@@UAE_NXZ 0046522f f i fps.obj
 0001:0006422f       ?ready@iclientcom@@UAE_NXZ 0046522f f i fps.obj
 0001:0006422f       ?gui3d@igameclient@@UAE_NXZ 0046522f f i fps.obj
 0001:0006422f       ?allowed@botcom@fpsclient@@UAE_NXZ 0046522f f i fps.obj
 0001:00064232       ?readext@entities@fpsclient@@UAEXAAPAXHHHAAUentity@@@Z 00465232 f i fps.obj
 0001:00064297       ?writeext@entities@fpsclient@@UAEXAAPAXHHHAAUentity@@@Z 00465297 f i fps.obj
 0001:00064375       ?renderwaypoint@entities@fpsclient@@QAEXAAUextentity@@@Z 00465375 f i fps.obj
 0001:000645ab       ?renderentshow@entities@fpsclient@@QAEXAAUextentity@@@Z 004655ab f i fps.obj
 0001:000646c0       ??0clientcom@fpsclient@@QAE@AAU1@@Z 004656c0 f i fps.obj
 0001:00064e93       ?numchannels@clientcom@fpsclient@@UAEHXZ 00465e93 f i fps.obj
 0001:00064e97       ?writeclientinfo@clientcom@fpsclient@@UAEXPAU_iobuf@@@Z 00465e97 f i fps.obj
 0001:00064ebc       ?gameconnect@clientcom@fpsclient@@UAEX_N@Z 00465ebc f i fps.obj
 0001:00064ed8       ?gamedisconnect@clientcom@fpsclient@@UAEXXZ 00465ed8 f i fps.obj
 0001:00064f65       ?allowedittoggle@clientcom@fpsclient@@UAE_NXZ 00465f65 f i fps.obj
 0001:00064f97       ?edittoggled@clientcom@fpsclient@@UAEX_N@Z 00465f97 f i fps.obj
 0001:00064fb4       ?parseplayer@clientcom@fpsclient@@QAEHPBD@Z 00465fb4 f i fps.obj
 0001:00065085       ?addmsg@clientcom@fpsclient@@QAAXHPBDZZ 00466085 f i fps.obj
 0001:00065297       ?toserver@clientcom@fpsclient@@UAEXPAD@Z 00466297 f i fps.obj
 0001:000652f1       ?toservcmd@clientcom@fpsclient@@UAEXPAD_N@Z 004662f1 f i fps.obj
 0001:00065330       ?sendpacketclient@clientcom@fpsclient@@UAEHAAU?$databuf@E@@AA_NPAUdynent@@@Z 00466330 f i fps.obj
 0001:0006565c       ?updatepos@clientcom@fpsclient@@QAEXPAUfpsent@@@Z 0046665c f i fps.obj
 0001:00065775       ?parsepositions@clientcom@fpsclient@@QAEXAAU?$databuf@E@@@Z 00466775 f i fps.obj
 0001:000659ee       ?parsepacketclient@clientcom@fpsclient@@UAEXHAAU?$databuf@E@@@Z 004669ee f i fps.obj
 0001:00065a2e       ?parsemessages@clientcom@fpsclient@@QAEXHPAUfpsent@@AAU?$databuf@E@@@Z 00466a2e f i fps.obj
 0001:00066e5e       ?changemapserv@clientcom@fpsclient@@QAEXPBDH@Z 00467e5e f i fps.obj
 0001:00066f05       ?changemap@clientcom@fpsclient@@QAEXPBD@Z 00467f05 f i fps.obj
 0001:00066f34       ?receivefile@clientcom@fpsclient@@QAEXPAEH@Z 00467f34 f i fps.obj
 0001:000670b6       ?stopdemo@clientcom@fpsclient@@QAEXXZ 004680b6 f i fps.obj
 0001:00067132       ?sendmap@clientcom@fpsclient@@QAEXXZ 00468132 f i fps.obj
 0001:0006724e       ?gotoplayer@clientcom@fpsclient@@QAEXPBD@Z 0046824e f i fps.obj
 0001:000672f3       ?ready@clientcom@fpsclient@@UAE_NXZ 004682f3 f i fps.obj
 0001:000672f7       ?otherclients@clientcom@fpsclient@@UAEHXZ 004682f7 f i fps.obj
 0001:00067301       ?getservcmd@clientcom@fpsclient@@QAE_NPAD@Z 00468301 f i fps.obj
 0001:00067433       ?findscore@capturestate@fpsserver@@QAEAAUscore@12@PBD@Z 00468433 f i fps.obj
 0001:00067433       ?findscore@capturestate@fpsclient@@QAEAAUscore@12@PBD@Z 00468433 f i fps.obj
 0001:000674db       ?initbase@capturestate@fpsclient@@QAEXHHPBD0HH@Z 004684db f i fps.obj
 0001:0006752f       ?disttoenemy@capturestate@fpsclient@@QAEMAAUbaseinfo@12@@Z 0046852f f i fps.obj
 0001:000675b0       ??0captureclient@fpsclient@@QAE@AAU1@@Z 004685b0 f i fps.obj
 0001:000676a5       ?replenishammo@captureclient@fpsclient@@QAEXXZ 004686a5 f i fps.obj
 0001:00067748       ?renderbases@captureclient@fpsclient@@QAEXXZ 00468748 f i fps.obj
 0001:00067b22       ?drawradar@captureclient@fpsclient@@QAEXMMM@Z 00468b22 f i fps.obj
 0001:00067bc8       ?drawblips@captureclient@fpsclient@@QAEXHHHH_N@Z 00468bc8 f i fps.obj
 0001:00067df6       ?capturehud@captureclient@fpsclient@@QAEXHH@Z 00468df6 f i fps.obj
 0001:00068025       ?setupbases@captureclient@fpsclient@@QAEXXZ 00469025 f i fps.obj
 0001:000681c7       ?sendbases@captureclient@fpsclient@@QAEXAAU?$databuf@E@@@Z 004691c7 f i fps.obj
 0001:00068251       ?updatebase@captureclient@fpsclient@@QAEXHPBD0HH@Z 00469251 f i fps.obj
 0001:0006834d       ?closesttoenemy@captureclient@fpsclient@@QAEHPBD_N@Z 0046934d f i fps.obj
 0001:000683fe       ?pickspawn@captureclient@fpsclient@@QAEHPBD@Z 004693fe f i fps.obj
 0001:00068496       ??0physics@fpsclient@@QAE@AAU1@@Z 00469496 f i fps.obj
 0001:0006859a       ?stairheight@iphysics@@UAEMPAUphysent@@@Z 0046959a f i fps.obj
 0001:0006859a       ?stairheight@physics@fpsclient@@UAEMPAUphysent@@@Z 0046959a f i fps.obj
 0001:000685a3       ?floorz@iphysics@@UAEMPAUphysent@@@Z 004695a3 f i fps.obj
 0001:000685a3       ?floorz@physics@fpsclient@@UAEMPAUphysent@@@Z 004695a3 f i fps.obj
 0001:000685ac       ?wallz@iphysics@@UAEMPAUphysent@@@Z 004695ac f i fps.obj
 0001:000685ac       ?wallz@physics@fpsclient@@UAEMPAUphysent@@@Z 004695ac f i fps.obj
 0001:000685b5       ?jumpvel@physics@fpsclient@@UAEMPAUphysent@@@Z 004695b5 f i fps.obj
 0001:00068600       ?gravity@physics@fpsclient@@UAEMPAUphysent@@@Z 00469600 f i fps.obj
 0001:00068630       ?speed@physics@fpsclient@@UAEMPAUphysent@@@Z 00469630 f i fps.obj
 0001:00068675       ?watergravscale@physics@fpsclient@@UAEMPAUphysent@@@Z 00469675 f i fps.obj
 0001:00068675       ?watergravscale@iphysics@@UAEMPAUphysent@@@Z 00469675 f i fps.obj
 0001:0006869b       ?waterdampen@iphysics@@UAEMPAUphysent@@@Z 0046969b f i fps.obj
 0001:0006869b       ?waterdampen@physics@fpsclient@@UAEMPAUphysent@@@Z 0046969b f i fps.obj
 0001:000686a4       ?movepitch@physics@fpsclient@@UAE_NPAUphysent@@@Z 004696a4 f i fps.obj
 0001:000686c3       ?updateroll@physics@fpsclient@@UAEXPAUphysent@@@Z 004696c3 f i fps.obj
 0001:00068766       ?updatewater@physics@fpsclient@@QAEXPAUfpsent@@H@Z 00469766 f i fps.obj
 0001:00068929       ?trigger@physics@fpsclient@@UAEXPAUphysent@@_NHH@Z 00469929 f i fps.obj
 0001:00068982       ?move@physics@fpsclient@@UAE_NPAUphysent@@H_NHH@Z 00469982 f i fps.obj
 0001:00068a0e       ?reset@botcom@fpsclient@@QAEXPAUfpsent@@_N@Z 00469a0e f i fps.obj
 0001:00068a62       ?frags@botcom@fpsclient@@QAEXPAUfpsent@@H@Z 00469a62 f i fps.obj
 0001:00068aea       ?killed@botcom@fpsclient@@QAEXPAUfpsent@@@Z 00469aea f i fps.obj
 0001:00068b5a       ?aimat@botcom@fpsclient@@QAE_NPAUfpsent@@_N@Z 00469b5a f i fps.obj
 0001:00068eb1       ?weapon@botcom@fpsclient@@QAEXPAUfpsent@@_N@Z 00469eb1 f i fps.obj
 0001:00069054       ?rendercoord@botcom@fpsclient@@QAEXPAUfpsent@@@Z 0046a054 f i fps.obj
 0001:000691f3       ?render@botcom@fpsclient@@QAEXXZ 0046a1f3 f i fps.obj
 0001:000692b2       ?start@botcom@fpsclient@@QAEXPBD@Z 0046a2b2 f i fps.obj
 0001:0006933a       ?waynode@botcom@fpsclient@@QAEHAAUvec@@PAUfpsent@@@Z 0046a33a f i fps.obj
 0001:000693b8       ?wayspawn@botcom@fpsclient@@QAEXXZ 0046a3b8 f i fps.obj
 0001:00069479       ?waylink@botcom@fpsclient@@QAEXHH@Z 0046a479 f i fps.obj
 0001:000694d6       ?wayupdpos@botcom@fpsclient@@QAEXPAUfpsent@@AAUvec@@@Z 0046a4d6 f i fps.obj
 0001:0006953e       ??0nodeq@botcom@fpsclient@@QAE@XZ 0046a53e f i fps.obj
 0001:00069576       ?wayfind@botcom@fpsclient@@QAE_NPAUfpsent@@AAUvec@@H@Z 0046a576 f i fps.obj
 0001:00069c8e       ?trans@botcom@fpsclient@@QAEXPAUfpsent@@HHH_NH@Z 0046ac8e f i fps.obj
 0001:00069ccb       ?home@botcom@fpsclient@@QAE_NPAUfpsent@@H@Z 0046accb f i fps.obj
 0001:00069d15       ?enemy@botcom@fpsclient@@QAE_NPAUfpsent@@0_N@Z 0046ad15 f i fps.obj
 0001:00069ff4       ?aim@botcom@fpsclient@@QAEXPAUfpsent@@@Z 0046aff4 f i fps.obj
 0001:0006a0f5       ?scout@botcom@fpsclient@@QAEXPAUfpsent@@@Z 0046b0f5 f i fps.obj
 0001:0006a2ef       ?coord@botcom@fpsclient@@QAEXPAUfpsent@@H_N@Z 0046b2ef f i fps.obj
 0001:0006a458       ?find@botcom@fpsclient@@QAE_NPAUfpsent@@_N@Z 0046b458 f i fps.obj
 0001:0006ab96       ??1botcom@fpsclient@@UAE@XZ 0046bb96 f i fps.obj
 0001:0006abcf       ?newclient@botcom@fpsclient@@UAEPAUdynent@@XZ 0046bbcf f i fps.obj
 0001:0006ac45       ?update@botcom@fpsclient@@UAEXPAUbot@@@Z 0046bc45 f i fps.obj
 0001:0006acb1       ?addmsg@botcom@fpsclient@@QAAXPAUbot@@HPBDZZ 0046bcb1 f i fps.obj
 0001:0006aec7       ?sendpacketclient@botcom@fpsclient@@UAEHPAUbot@@AAU?$databuf@E@@AA_N@Z 0046bec7 f i fps.obj
 0001:0006b1ea       ?parsepacketclient@botcom@fpsclient@@UAEXPAUbot@@HAAU?$databuf@E@@@Z 0046c1ea f i fps.obj
 0001:0006b218       ?parsemessages@botcom@fpsclient@@QAEXPAUbot@@AAU?$databuf@E@@@Z 0046c218 f i fps.obj
 0001:0006ba00       ??0fpsclient@@QAE@XZ       0046ca00 f i fps.obj
 0001:0006c0d1       ?getcom@fpsclient@@UAEPAUiclientcom@@XZ 0046d0d1 f i fps.obj
 0001:0006c0d8       ?getbot@fpsclient@@UAEPAUibotcom@@XZ 0046d0d8 f i fps.obj
 0001:0006c0df       ?getphysics@fpsclient@@UAEPAUiphysics@@XZ 0046d0df f i fps.obj
 0001:0006c0e6       ?getents@fpsclient@@UAEPAUicliententities@@XZ 0046d0e6 f i fps.obj
 0001:0006c0ed       ?getclientmap@fpsclient@@UAEPADXZ 0046d0ed f i fps.obj
 0001:0006c0f1       ?rendergame@fpsclient@@UAEXXZ 0046d0f1 f i fps.obj
 0001:0006c101       ?resetgamestate@fpsclient@@UAEXXZ 0046d101 f i fps.obj
 0001:0006c157       ?spawnstate@fpsclient@@QAEPAUfpsent@@PAU2@@Z 0046d157 f i fps.obj
 0001:0006c18c       ?respawnself@fpsclient@@QAEXXZ 0046d18c f i fps.obj
 0001:0006c1c9       ?otherplayers@fpsclient@@QAEXXZ 0046d1c9 f i fps.obj
 0001:0006c244       ?updateworld@fpsclient@@UAEXAAUvec@@HH@Z 0046d244 f i fps.obj
 0001:0006c66f       ?spawnplayer@fpsclient@@QAEXPAUfpsent@@@Z 0046d66f f i fps.obj
 0001:0006c6d8       ?respawn@fpsclient@@QAEXXZ 0046d6d8 f i fps.obj
 0001:0006c7e0       ?doattack@fpsclient@@UAEX_N@Z 0046d7e0 f i fps.obj
 0001:0006c806       ?canjump@fpsclient@@UAE_NXZ 0046d806 f i fps.obj
 0001:0006c82c       ?allowmove@fpsclient@@UAE_NPAUphysent@@@Z 0046d82c f i fps.obj
 0001:0006c851       ?damaged@fpsclient@@QAEXHPAUfpsent@@0@Z 0046d851 f i fps.obj
 0001:0006c92d       ?killed@fpsclient@@QAEXPAUfpsent@@0@Z 0046d92d f i fps.obj
 0001:0006cc83       ?timeupdate@fpsclient@@QAEXH@Z 0046dc83 f i fps.obj
 0001:0006cda8       ?newclient@fpsclient@@QAEPAUfpsent@@H@Z 0046dda8 f i fps.obj
 0001:0006ce4d       ?getclient@fpsclient@@QAEPAUfpsent@@H@Z 0046de4d f i fps.obj
 0001:0006ce66       ?clientdisconnected@fpsclient@@QAEXH@Z 0046de66 f i fps.obj
 0001:0006cf2c       ?initclient@fpsclient@@UAEXXZ 0046df2c f i fps.obj
 0001:0006cf31       ?startmap@fpsclient@@UAEXPBD@Z 0046df31 f i fps.obj
 0001:0006d138       ?playsoundc@fpsclient@@QAEXHPAUfpsent@@@Z 0046e138 f i fps.obj
 0001:0006d17d       ?numdynents@fpsclient@@UAEHXZ 0046e17d f i fps.obj
 0001:0006d18e       ?iterdynents@fpsclient@@UAEPAUdynent@@H@Z 0046e18e f i fps.obj
 0001:0006d1cb       ?duplicatename@fpsclient@@QAE_NPAUfpsent@@PAD@Z 0046e1cb f i fps.obj
 0001:0006d246       ?colorname@fpsclient@@QAEPADPAUfpsent@@PAD1@Z 0046e246 f i fps.obj
 0001:0006d29a       ?suicide@fpsclient@@UAEXPAUphysent@@@Z 0046e29a f i fps.obj
 0001:0006d312       ?drawhudmodel@fpsclient@@QAEXHMH@Z 0046e312 f i fps.obj
 0001:0006d507       ?drawhudgun@fpsclient@@UAEXXZ 0046e507 f i fps.obj
 0001:0006d5fa       ?drawicon@fpsclient@@QAEXMMHHH@Z 0046e5fa f i fps.obj
 0001:0006d6e6       ?gameplayhud@fpsclient@@UAEXHH@Z 0046e6e6 f i fps.obj
 0001:0006e0c4       ?crosshaircolor@fpsclient@@UAEXAAM00@Z 0046f0c4 f i fps.obj
 0001:0006e16e       ?lighteffects@fpsclient@@UAEXPAUdynent@@AAUvec@@1@Z 0046f16e f i fps.obj
 0001:0006e19c       ?particletrack@fpsclient@@UAEXPAUphysent@@AAUvec@@1@Z 0046f19c f i fps.obj
 0001:0006e260       ?newmap@fpsclient@@UAEXH@Z 0046f260 f i fps.obj
 0001:0006e27d       ?edittrigger@fpsclient@@UAEXABUselinfo@@HHHH@Z 0046f27d f i fps.obj
 0001:0006e3c7       ?g3d_gamemenus@fpsclient@@UAEXXZ 0046f3c7 f i fps.obj
 0001:0006e3e1       ?feetpos@fpsclient@@UAE?AUvec@@PAUphysent@@@Z 0046f3e1 f i fps.obj
 0001:0006e426       ?gethudcolour@fpsclient@@UAE_NAAUvec@@@Z 0046f426 f i fps.obj
 0001:0006e5e4       ?fixcamerarange@fpsclient@@QAEXPAUphysent@@@Z 0046f5e4 f i fps.obj
 0001:0006e65f       ?fixview@fpsclient@@UAEXXZ 0046f65f f i fps.obj
 0001:0006e6cc       ?fixcamerarange@fpsclient@@UAEXXZ 0046f6cc f i fps.obj
 0001:0006e6f3       ?mousemove@fpsclient@@UAEXHH@Z 0046f6f3 f i fps.obj
 0001:0006e774       ?findorientation@fpsclient@@UAEXXZ 0046f774 f i fps.obj
 0001:0006e887       ?recomputecamera@fpsclient@@UAEXXZ 0046f887 f i fps.obj
 0001:0006eca4       ?adddynlights@fpsclient@@UAEXXZ 0046fca4 f i fps.obj
 0001:0006ede1       ?wantcrosshair@fpsclient@@UAE_NXZ 0046fde1 f i fps.obj
 0001:0006ee0b       ?gamethirdperson@fpsclient@@UAE_NXZ 0046fe0b f i fps.obj
 0001:0006ee2e       ?menuevent@fpsclient@@UAEXH@Z 0046fe2e f i fps.obj
 0001:0006ee4e       ?cameradir@fpsclient@@QAEXH_N@Z 0046fe4e f i fps.obj
 0001:0006ef68       ?mteamscorecmp@fpsclient@@SAHPBUteamscore@1@0@Z 0046ff68 f i fps.obj
 0001:0006ef88       ?mplayersort@fpsclient@@SAHPAPBUfpsent@@0@Z 0046ff88 f i fps.obj
 0001:0006efaa       ?calcranks@fpsclient@@QAEXXZ 0046ffaa f i fps.obj
 0001:0006f621       ?run@cmd_weapon@?1???0weaponstate@fpsclient@@QAE@AAU3@@Z@UAEXPAPAD@Z 00470621 f   fps.obj
 0001:0006f67f       ?run@cmd_getweapon@?2???0weaponstate@fpsclient@@QAE@AAU3@@Z@UAEXPAPAD@Z 0047067f f   fps.obj
 0001:0006f6ec       ?run@cmd_showscores@?1???0scoreboard@fpsclient@@QAE@AAU3@@Z@UAEXPAPAD@Z 004706ec f   fps.obj
 0001:0006f702       ?run@cmd_entdelink@?1???0entities@fpsclient@@QAE@AAU3@@Z@UAEXPAPAD@Z 00470702 f   fps.obj
 0001:0006f71f       ?run@cmd_entlink@?2???0entities@fpsclient@@QAE@AAU3@@Z@UAEXPAPAD@Z 0047071f f   fps.obj
 0001:0006f73c       ?run@cmd_say@?1???0clientcom@fpsclient@@QAE@AAU3@@Z@UAEXPAPAD@Z 0047073c f   fps.obj
 0001:0006f74d       ?run@cmd_name@?2???0clientcom@fpsclient@@QAE@AAU3@@Z@UAEXPAPAD@Z 0047074d f   fps.obj
 0001:0006f798       ?run@cmd_team@?3???0clientcom@fpsclient@@QAE@AAU3@@Z@UAEXPAPAD@Z 00470798 f   fps.obj
 0001:0006f7d5       ?run@cmd_map@?4???0clientcom@fpsclient@@QAE@AAU3@@Z@UAEXPAPAD@Z 004707d5 f   fps.obj
 0001:0006f7e6       ?run@cmd_clearbans@?5???0clientcom@fpsclient@@QAE@AAU3@@Z@UAEXPAPAD@Z 004707e6 f   fps.obj
 0001:0006f802       ?run@cmd_kick@?6???0clientcom@fpsclient@@QAE@AAU3@@Z@UAEXPAPAD@Z 00470802 f   fps.obj
 0001:0006f83c       ?run@cmd_goto@?7???0clientcom@fpsclient@@QAE@AAU3@@Z@UAEXPAPAD@Z 0047083c f   fps.obj
 0001:0006f84f       ?run@cmd_spectator@?8???0clientcom@fpsclient@@QAE@AAU3@@Z@UAEXPAPAD@Z 0047084f f   fps.obj
 0001:0006f8b3       ?run@cmd_mastermode@?9???0clientcom@fpsclient@@QAE@AAU3@@Z@UAEXPAPAD@Z 004708b3 f   fps.obj
 0001:0006f8e2       ?run@cmd_setmaster@?L@???0clientcom@fpsclient@@QAE@AAU3@@Z@UAEXPAPAD@Z 004708e2 f   fps.obj
 0001:0006f93f       ?run@cmd_setteam@?M@???0clientcom@fpsclient@@QAE@AAU3@@Z@UAEXPAPAD@Z 0047093f f   fps.obj
 0001:0006f97f       ?run@cmd_getmap@?N@???0clientcom@fpsclient@@QAE@AAU3@@Z@UAEXPAPAD@Z 0047097f f   fps.obj
 0001:0006f9b9       ?run@cmd_sendmap@?O@???0clientcom@fpsclient@@QAE@AAU3@@Z@UAEXPAPAD@Z 004709b9 f   fps.obj
 0001:0006f9c4       ?run@cmd_listdemos@?P@???0clientcom@fpsclient@@QAE@AAU3@@Z@UAEXPAPAD@Z 004709c4 f   fps.obj
 0001:0006f9e8       ?run@cmd_getdemo@?BA@???0clientcom@fpsclient@@QAE@AAU3@@Z@UAEXPAPAD@Z 004709e8 f   fps.obj
 0001:0006fa30       ?run@cmd_recorddemo@?BB@???0clientcom@fpsclient@@QAE@AAU3@@Z@UAEXPAPAD@Z 00470a30 f   fps.obj
 0001:0006fa75       ?run@cmd_stopdemo@?BC@???0clientcom@fpsclient@@QAE@AAU3@@Z@UAEXPAPAD@Z 00470a75 f   fps.obj
 0001:0006fa82       ?run@cmd_cleardemos@?BD@???0clientcom@fpsclient@@QAE@AAU3@@Z@UAEXPAPAD@Z 00470a82 f   fps.obj
 0001:0006fac7       ?run@cmd_getname@?BE@???0clientcom@fpsclient@@QAE@AAU3@@Z@UAEXPAPAD@Z 00470ac7 f   fps.obj
 0001:0006fadc       ?run@cmd_getteam@?BF@???0clientcom@fpsclient@@QAE@AAU3@@Z@UAEXPAPAD@Z 00470adc f   fps.obj
 0001:0006faf1       ?run@cmd_repammo@?1???0captureclient@fpsclient@@QAE@AAU3@@Z@UAEXPAPAD@Z 00470af1 f   fps.obj
 0001:0006fafe       ??0var_gravity@?1???0physics@fpsclient@@QAE@AAU2@@Z@QAE@PAU12@@Z 00470afe f   fps.obj
 0001:0006fb68       ??1var_gravity@?1???0physics@fpsclient@@QAE@AAU2@@Z@UAE@XZ 00470b68 f   fps.obj
 0001:0006fb93       ??0var_speed@?2???0physics@fpsclient@@QAE@AAU2@@Z@QAE@PAU12@@Z 00470b93 f   fps.obj
 0001:0006fbfa       ??1var_speed@?2???0physics@fpsclient@@QAE@AAU2@@Z@UAE@XZ 00470bfa f   fps.obj
 0001:0006fc25       ??0var_jumpvel@?3???0physics@fpsclient@@QAE@AAU2@@Z@QAE@PAU12@@Z 00470c25 f   fps.obj
 0001:0006fc8f       ??1var_jumpvel@?3???0physics@fpsclient@@QAE@AAU2@@Z@UAE@XZ 00470c8f f   fps.obj
 0001:0006fcba       ??0var_watertype@?4???0physics@fpsclient@@QAE@AAU2@@Z@QAE@PAU12@@Z 00470cba f   fps.obj
 0001:0006fd1e       ??1var_watertype@?4???0physics@fpsclient@@QAE@AAU2@@Z@UAE@XZ 00470d1e f   fps.obj
 0001:0006fd49       ??0var_watervel@?5???0physics@fpsclient@@QAE@AAU2@@Z@QAE@PAU12@@Z 00470d49 f   fps.obj
 0001:0006fdb3       ??1var_watervel@?5???0physics@fpsclient@@QAE@AAU2@@Z@UAE@XZ 00470db3 f   fps.obj
 0001:0006fdde       ?run@cmd_mode@?1???0fpsclient@@QAE@XZ@UAEXPAPAD@Z 00470dde f   fps.obj
 0001:0006fe20       ?run@cmd_kill@?2???0fpsclient@@QAE@XZ@UAEXPAPAD@Z 00470e20 f   fps.obj
 0001:0006fe31       ?run@cmd_taunt@?3???0fpsclient@@QAE@XZ@UAEXPAPAD@Z 00470e31 f   fps.obj
 0001:0006fe71       ?run@cmd_cameradir@?4???0fpsclient@@QAE@XZ@UAEXPAPAD@Z 00470e71 f   fps.obj
 0001:0006fea0       ?run@cmd_centerrank@?5???0fpsclient@@QAE@XZ@UAEXPAPAD@Z 00470ea0 f   fps.obj
 0001:0006fee6       ?run@cmd_gotocamera@?6???0fpsclient@@QAE@XZ@UAEXPAPAD@Z 00470ee6 f   fps.obj
 0001:0006ff38       ?run@cmd_getgamemode@?7???0fpsclient@@QAE@XZ@UAEXPAPAD@Z 00470f38 f   fps.obj
 0001:0006ff47       ??1cmd_getweapon@?2???0weaponstate@fpsclient@@QAE@AAU2@@Z@UAE@XZ 00470f47 f i fps.obj
 0001:0006ff47       ??1cmd_weapon@?1???0weaponstate@fpsclient@@QAE@AAU2@@Z@UAE@XZ 00470f47 f i fps.obj
 0001:0006ff6c       ??_Gvar_highlightscore@scoreboard@fpsclient@@UAEPAXI@Z 00470f6c f i fps.obj
 0001:0006ff6c       ??_Gvar_maxdebris@weaponstate@fpsclient@@UAEPAXI@Z 00470f6c f i fps.obj
 0001:0006ff6c       ??_Evar_cameracycle@fpsclient@@UAEPAXI@Z 00470f6c f i  CIL library: CIL module
 0001:0006ff6c       ??_Gvar_capturespawn@fpsclient@@UAEPAXI@Z 00470f6c f i fps.obj
 0001:0006ff6c       ??_Evar_showspectators@scoreboard@fpsclient@@UAEPAXI@Z 00470f6c f i  CIL library: CIL module
 0001:0006ff6c       ??_Gvar_hudstyle@fpsclient@@UAEPAXI@Z 00470f6c f i fps.obj
 0001:0006ff6c       ??_Evar_showallwp@entities@fpsclient@@UAEPAXI@Z 00470f6c f i  CIL library: CIL module
 0001:0006ff6c       ??_Evar_skill@monsterset@fpsclient@@UAEPAXI@Z 00470f6c f i  CIL library: CIL module
 0001:0006ff6c       ??_Gvar_teamskins@fpsrender@fpsclient@@UAEPAXI@Z 00470f6c f i fps.obj
 0001:0006ff6c       ??_Gvar_maxradarscale@captureclient@fpsclient@@UAEPAXI@Z 00470f6c f i fps.obj
 0001:0006ff6c       ??_Gvar_showallwp@entities@fpsclient@@UAEPAXI@Z 00470f6c f i fps.obj
 0001:0006ff6c       ??_Evar_maxradarscale@captureclient@fpsclient@@UAEPAXI@Z 00470f6c f i  CIL library: CIL module
 0001:0006ff6c       ??_Evar_hudstyle@fpsclient@@UAEPAXI@Z 00470f6c f i  CIL library: CIL module
 0001:0006ff6c       ??_Evar_ranktime@fpsclient@@UAEPAXI@Z 00470f6c f i  CIL library: CIL module
 0001:0006ff6c       ??_Evar_dmsprounds@monsterset@fpsclient@@UAEPAXI@Z 00470f6c f i  CIL library: CIL module
 0001:0006ff6c       ??_Gvar_showping@scoreboard@fpsclient@@UAEPAXI@Z 00470f6c f i fps.obj
 0001:0006ff6c       ??_Gvar_wobbleyaw@fpsclient@@UAEPAXI@Z 00470f6c f i fps.obj
 0001:0006ff6c       ??_Evar_wobbleroll@fpsclient@@UAEPAXI@Z 00470f6c f i  CIL library: CIL module
 0001:0006ff6c       ??_Evar_blood@weaponstate@fpsclient@@UAEPAXI@Z 00470f6c f i  CIL library: CIL module
 0001:0006ff6c       ??_Evar_showpj@scoreboard@fpsclient@@UAEPAXI@Z 00470f6c f i  CIL library: CIL module
 0001:0006ff6c       ??_Evar_weaponswitchstyle@weaponstate@fpsclient@@UAEPAXI@Z 00470f6c f i  CIL library: CIL module
 0001:0006ff6c       ??_Evar_showclientnum@scoreboard@fpsclient@@UAEPAXI@Z 00470f6c f i  CIL library: CIL module
 0001:0006ff6c       ??_Evar_highlightscore@scoreboard@fpsclient@@UAEPAXI@Z 00470f6c f i  CIL library: CIL module
 0001:0006ff6c       ??_Evar_serversplit@fpsserver@@UAEPAXI@Z 00470f6c f i  CIL library: CIL module
 0001:0006ff6c       ??_Gvar_cameracycle@fpsclient@@UAEPAXI@Z 00470f6c f i fps.obj
 0001:0006ff6c       ??_Evar_crosshair@fpsclient@@UAEPAXI@Z 00470f6c f i  CIL library: CIL module
 0001:0006ff6c       ??_Evar_hudgunsway@fpsclient@@UAEPAXI@Z 00470f6c f i  CIL library: CIL module
 0001:0006ff6c       ??_Gvar_crosshair@fpsclient@@UAEPAXI@Z 00470f6c f i fps.obj
 0001:0006ff6c       ??_Evar_scoresinfo@scoreboard@fpsclient@@UAEPAXI@Z 00470f6c f i  CIL library: CIL module
 0001:0006ff6c       ??_Gvar_wobblescale@fpsclient@@UAEPAXI@Z 00470f6c f i fps.obj
 0001:0006ff6c       ??_Evar_wobbleyaw@fpsclient@@UAEPAXI@Z 00470f6c f i  CIL library: CIL module
 0001:0006ff6c       ??_Evar_wobblescale@fpsclient@@UAEPAXI@Z 00470f6c f i  CIL library: CIL module
 0001:0006ff6c       ??_Evar_maxdebris@weaponstate@fpsclient@@UAEPAXI@Z 00470f6c f i  CIL library: CIL module
 0001:0006ff6c       ??_Gvar_weaponswitchstyle@weaponstate@fpsclient@@UAEPAXI@Z 00470f6c f i fps.obj
 0001:0006ff6c       ??_Gvar_scoresinfo@scoreboard@fpsclient@@UAEPAXI@Z 00470f6c f i fps.obj
 0001:0006ff6c       ??_Evar_centerchat@clientcom@fpsclient@@UAEPAXI@Z 00470f6c f i  CIL library: CIL module
 0001:0006ff6c       ??_Gvar_dmsprounds@monsterset@fpsclient@@UAEPAXI@Z 00470f6c f i fps.obj
 0001:0006ff6c       ??_Evar_rankhud@fpsclient@@UAEPAXI@Z 00470f6c f i  CIL library: CIL module
 0001:0006ff6c       ??_Evar_capturespawn@fpsclient@@UAEPAXI@Z 00470f6c f i  CIL library: CIL module
 0001:0006ff6c       ??_Gvar_showclientnum@scoreboard@fpsclient@@UAEPAXI@Z 00470f6c f i fps.obj
 0001:0006ff6c       ??_Evar_wobblepitch@fpsclient@@UAEPAXI@Z 00470f6c f i  CIL library: CIL module
 0001:0006ff6c       ??_Gvar_rankhud@fpsclient@@UAEPAXI@Z 00470f6c f i fps.obj
 0001:0006ff6c       ??_Gvar_hudgun@fpsclient@@UAEPAXI@Z 00470f6c f i fps.obj
 0001:0006ff6c       ??_Gvar_wobbleroll@fpsclient@@UAEPAXI@Z 00470f6c f i fps.obj
 0001:0006ff6c       ??_Gvar_showspectators@scoreboard@fpsclient@@UAEPAXI@Z 00470f6c f i fps.obj
 0001:0006ff6c       ??_Evar_showping@scoreboard@fpsclient@@UAEPAXI@Z 00470f6c f i  CIL library: CIL module
 0001:0006ff6c       ??_Gvar_hudgunsway@fpsclient@@UAEPAXI@Z 00470f6c f i fps.obj
 0001:0006ff6c       ??_Gvar_serversplit@fpsserver@@UAEPAXI@Z 00470f6c f i fps.obj
 0001:0006ff6c       ??_Gvar_ranktime@fpsclient@@UAEPAXI@Z 00470f6c f i fps.obj
 0001:0006ff6c       ??_Gvar_blood@weaponstate@fpsclient@@UAEPAXI@Z 00470f6c f i fps.obj
 0001:0006ff6c       ??_Gvar_showconnecting@scoreboard@fpsclient@@UAEPAXI@Z 00470f6c f i fps.obj
 0001:0006ff6c       ??_Evar_showconnecting@scoreboard@fpsclient@@UAEPAXI@Z 00470f6c f i  CIL library: CIL module
 0001:0006ff6c       ??_Gvar_wobblepitch@fpsclient@@UAEPAXI@Z 00470f6c f i fps.obj
 0001:0006ff6c       ??_Gvar_skill@monsterset@fpsclient@@UAEPAXI@Z 00470f6c f i fps.obj
 0001:0006ff6c       ??_Gvar_centerchat@clientcom@fpsclient@@UAEPAXI@Z 00470f6c f i fps.obj
 0001:0006ff6c       ??_Evar_teamskins@fpsrender@fpsclient@@UAEPAXI@Z 00470f6c f i  CIL library: CIL module
 0001:0006ff6c       ??_Gvar_showpj@scoreboard@fpsclient@@UAEPAXI@Z 00470f6c f i fps.obj
 0001:0006ff6c       ??_Evar_hudgun@fpsclient@@UAEPAXI@Z 00470f6c f i  CIL library: CIL module
 0001:0006ff89       ??_Escoreboard@fpsclient@@UAEPAXI@Z 00470f89 f i  CIL library: CIL module
 0001:0006ff89       ??_Gscoreboard@fpsclient@@UAEPAXI@Z 00470f89 f i fps.obj
 0001:0006ffa6       ??1var_highlightscore@scoreboard@fpsclient@@UAE@XZ 00470fa6 f i fps.obj
 0001:0006ffa6       ??1var_showconnecting@scoreboard@fpsclient@@UAE@XZ 00470fa6 f i fps.obj
 0001:0006ffa6       ??1var_crosshair@fpsclient@@UAE@XZ 00470fa6 f i fps.obj
 0001:0006ffa6       ??1var_hudgunsway@fpsclient@@UAE@XZ 00470fa6 f i fps.obj
 0001:0006ffa6       ??1var_showping@scoreboard@fpsclient@@UAE@XZ 00470fa6 f i fps.obj
 0001:0006ffa6       ??1var_capturespawn@fpsclient@@UAE@XZ 00470fa6 f i fps.obj
 0001:0006ffa6       ??1var_showspectators@scoreboard@fpsclient@@UAE@XZ 00470fa6 f i fps.obj
 0001:0006ffa6       ??1var_dmsprounds@monsterset@fpsclient@@UAE@XZ 00470fa6 f i fps.obj
 0001:0006ffa6       ??1var_wobblescale@fpsclient@@UAE@XZ 00470fa6 f i fps.obj
 0001:0006ffa6       ??1var_hudstyle@fpsclient@@UAE@XZ 00470fa6 f i fps.obj
 0001:0006ffa6       ??1var_cameracycle@fpsclient@@UAE@XZ 00470fa6 f i fps.obj
 0001:0006ffa6       ??1var_maxdebris@weaponstate@fpsclient@@UAE@XZ 00470fa6 f i fps.obj
 0001:0006ffa6       ??1var_showallwp@entities@fpsclient@@UAE@XZ 00470fa6 f i fps.obj
 0001:0006ffa6       ??1var_rankhud@fpsclient@@UAE@XZ 00470fa6 f i fps.obj
 0001:0006ffa6       ??1var_blood@weaponstate@fpsclient@@UAE@XZ 00470fa6 f i fps.obj
 0001:0006ffa6       ??1var_scoresinfo@scoreboard@fpsclient@@UAE@XZ 00470fa6 f i fps.obj
 0001:0006ffa6       ??1var_hudgun@fpsclient@@UAE@XZ 00470fa6 f i fps.obj
 0001:0006ffa6       ??1var_serversplit@fpsserver@@UAE@XZ 00470fa6 f i fps.obj
 0001:0006ffa6       ??1var_ranktime@fpsclient@@UAE@XZ 00470fa6 f i fps.obj
 0001:0006ffa6       ??1var_skill@monsterset@fpsclient@@UAE@XZ 00470fa6 f i fps.obj
 0001:0006ffa6       ??1var_maxradarscale@captureclient@fpsclient@@UAE@XZ 00470fa6 f i fps.obj
 0001:0006ffa6       ??1var_weaponswitchstyle@weaponstate@fpsclient@@UAE@XZ 00470fa6 f i fps.obj
 0001:0006ffa6       ??1var_wobblepitch@fpsclient@@UAE@XZ 00470fa6 f i fps.obj
 0001:0006ffa6       ??1var_centerchat@clientcom@fpsclient@@UAE@XZ 00470fa6 f i fps.obj
 0001:0006ffa6       ??1var_showclientnum@scoreboard@fpsclient@@UAE@XZ 00470fa6 f i fps.obj
 0001:0006ffa6       ??1var_showpj@scoreboard@fpsclient@@UAE@XZ 00470fa6 f i fps.obj
 0001:0006ffa6       ??1var_wobbleyaw@fpsclient@@UAE@XZ 00470fa6 f i fps.obj
 0001:0006ffa6       ??1var_teamskins@fpsrender@fpsclient@@UAE@XZ 00470fa6 f i fps.obj
 0001:0006ffa6       ??1var_wobbleroll@fpsclient@@UAE@XZ 00470fa6 f i fps.obj
 0001:0006ffcb       ??1cmd_showscores@?1???0scoreboard@fpsclient@@QAE@AAU2@@Z@UAE@XZ 00470fcb f i fps.obj
 0001:0006fff0       ??_Eentities@fpsclient@@UAEPAXI@Z 00470ff0 f i  CIL library: CIL module
 0001:0006fff0       ??_Gentities@fpsclient@@UAEPAXI@Z 00470ff0 f i fps.obj
 0001:0007000d       ??1cmd_entdelink@?1???0entities@fpsclient@@QAE@AAU2@@Z@UAE@XZ 0047100d f i fps.obj
 0001:0007000d       ??1cmd_entlink@?2???0entities@fpsclient@@QAE@AAU2@@Z@UAE@XZ 0047100d f i fps.obj
 0001:00070032       ??_Gclientcom@fpsclient@@UAEPAXI@Z 00471032 f i fps.obj
 0001:00070032       ??_Eclientcom@fpsclient@@UAEPAXI@Z 00471032 f i  CIL library: CIL module
 0001:0007004f       ??1cmd_mastermode@?9???0clientcom@fpsclient@@QAE@AAU2@@Z@UAE@XZ 0047104f f i fps.obj
 0001:0007004f       ??1cmd_map@?4???0clientcom@fpsclient@@QAE@AAU2@@Z@UAE@XZ 0047104f f i fps.obj
 0001:0007004f       ??1cmd_kick@?6???0clientcom@fpsclient@@QAE@AAU2@@Z@UAE@XZ 0047104f f i fps.obj
 0001:0007004f       ??1cmd_setmaster@?L@???0clientcom@fpsclient@@QAE@AAU2@@Z@UAE@XZ 0047104f f i fps.obj
 0001:0007004f       ??1cmd_stopdemo@?BC@???0clientcom@fpsclient@@QAE@AAU2@@Z@UAE@XZ 0047104f f i fps.obj
 0001:0007004f       ??1cmd_sendmap@?O@???0clientcom@fpsclient@@QAE@AAU2@@Z@UAE@XZ 0047104f f i fps.obj
 0001:0007004f       ??1cmd_getname@?BE@???0clientcom@fpsclient@@QAE@AAU2@@Z@UAE@XZ 0047104f f i fps.obj
 0001:0007004f       ??1cmd_getmap@?N@???0clientcom@fpsclient@@QAE@AAU2@@Z@UAE@XZ 0047104f f i fps.obj
 0001:0007004f       ??1cmd_recorddemo@?BB@???0clientcom@fpsclient@@QAE@AAU2@@Z@UAE@XZ 0047104f f i fps.obj
 0001:0007004f       ??1cmd_getdemo@?BA@???0clientcom@fpsclient@@QAE@AAU2@@Z@UAE@XZ 0047104f f i fps.obj
 0001:0007004f       ??1cmd_spectator@?8???0clientcom@fpsclient@@QAE@AAU2@@Z@UAE@XZ 0047104f f i fps.obj
 0001:0007004f       ??1cmd_cleardemos@?BD@???0clientcom@fpsclient@@QAE@AAU2@@Z@UAE@XZ 0047104f f i fps.obj
 0001:0007004f       ??1cmd_getteam@?BF@???0clientcom@fpsclient@@QAE@AAU2@@Z@UAE@XZ 0047104f f i fps.obj
 0001:0007004f       ??1cmd_name@?2???0clientcom@fpsclient@@QAE@AAU2@@Z@UAE@XZ 0047104f f i fps.obj
 0001:0007004f       ??1cmd_say@?1???0clientcom@fpsclient@@QAE@AAU2@@Z@UAE@XZ 0047104f f i fps.obj
 0001:0007004f       ??1cmd_setteam@?M@???0clientcom@fpsclient@@QAE@AAU2@@Z@UAE@XZ 0047104f f i fps.obj
 0001:0007004f       ??1cmd_clearbans@?5???0clientcom@fpsclient@@QAE@AAU2@@Z@UAE@XZ 0047104f f i fps.obj
 0001:0007004f       ??1cmd_listdemos@?P@???0clientcom@fpsclient@@QAE@AAU2@@Z@UAE@XZ 0047104f f i fps.obj
 0001:0007004f       ??1cmd_goto@?7???0clientcom@fpsclient@@QAE@AAU2@@Z@UAE@XZ 0047104f f i fps.obj
 0001:0007004f       ??1cmd_team@?3???0clientcom@fpsclient@@QAE@AAU2@@Z@UAE@XZ 0047104f f i fps.obj
 0001:00070074       ??1cmd_repammo@?1???0captureclient@fpsclient@@QAE@AAU2@@Z@UAE@XZ 00471074 f i fps.obj
 0001:00070099       ??_Gphysics@fpsclient@@UAEPAXI@Z 00471099 f i fps.obj
 0001:00070099       ??_Ephysics@fpsclient@@UAEPAXI@Z 00471099 f i  CIL library: CIL module
 0001:000700b6       ??_Gbotcom@fpsclient@@UAEPAXI@Z 004710b6 f i fps.obj
 0001:000700b6       ??_Ebotcom@fpsclient@@UAEPAXI@Z 004710b6 f i  CIL library: CIL module
 0001:000700d3       ??_Gfpsclient@@UAEPAXI@Z   004710d3 f i fps.obj
 0001:000700d3       ??_Efpsclient@@UAEPAXI@Z   004710d3 f i  CIL library: CIL module
 0001:000700f0       ??1physics@fpsclient@@UAE@XZ 004710f0 f i fps.obj
 0001:00070115       ??1weaponstate@fpsclient@@QAE@XZ 00471115 f i fps.obj
 0001:000701bc       ??1monsterset@fpsclient@@QAE@XZ 004711bc f i fps.obj
 0001:0007021d       ??1scoreboard@fpsclient@@UAE@XZ 0047121d f i fps.obj
 0001:000702da       ??1fpsrender@fpsclient@@QAE@XZ 004712da f i fps.obj
 0001:0007032b       ??1entities@fpsclient@@UAE@XZ 0047132b f i fps.obj
 0001:0007037a       ??1clientcom@fpsclient@@UAE@XZ 0047137a f i fps.obj
 0001:000703bd       ??1captureclient@fpsclient@@QAE@XZ 004713bd f i fps.obj
 0001:000703f1       ??1cmd_cameradir@?4???0fpsclient@@QAE@XZ@UAE@XZ 004713f1 f i fps.obj
 0001:000703f1       ??1cmd_centerrank@?5???0fpsclient@@QAE@XZ@UAE@XZ 004713f1 f i fps.obj
 0001:000703f1       ??1cmd_kill@?2???0fpsclient@@QAE@XZ@UAE@XZ 004713f1 f i fps.obj
 0001:000703f1       ??1cmd_taunt@?3???0fpsclient@@QAE@XZ@UAE@XZ 004713f1 f i fps.obj
 0001:000703f1       ??1cmd_mode@?1???0fpsclient@@QAE@XZ@UAE@XZ 004713f1 f i fps.obj
 0001:000703f1       ??1cmd_gotocamera@?6???0fpsclient@@QAE@XZ@UAE@XZ 004713f1 f i fps.obj
 0001:000703f1       ??1cmd_getgamemode@?7???0fpsclient@@QAE@XZ@UAE@XZ 004713f1 f i fps.obj
 0001:00070416       ??4fpsent@@QAEAAU0@ABU0@@Z 00471416 f i fps.obj
 0001:0007062d       ??_Gcmd_getweapon@?2???0weaponstate@fpsclient@@QAE@AAU2@@Z@UAEPAXI@Z 0047162d f i fps.obj
 0001:0007062d       ??_Ecmd_getweapon@?2???0weaponstate@fpsclient@@QAE@AAU2@@Z@UAEPAXI@Z 0047162d f i  CIL library: CIL module
 0001:0007062d       ??_Ecmd_weapon@?1???0weaponstate@fpsclient@@QAE@AAU2@@Z@UAEPAXI@Z 0047162d f i  CIL library: CIL module
 0001:0007062d       ??_Gcmd_weapon@?1???0weaponstate@fpsclient@@QAE@AAU2@@Z@UAEPAXI@Z 0047162d f i fps.obj
 0001:00070666       ??_Gcmd_showscores@?1???0scoreboard@fpsclient@@QAE@AAU2@@Z@UAEPAXI@Z 00471666 f i fps.obj
 0001:00070666       ??_Ecmd_showscores@?1???0scoreboard@fpsclient@@QAE@AAU2@@Z@UAEPAXI@Z 00471666 f i  CIL library: CIL module
 0001:0007069f       ??_Gcmd_entlink@?2???0entities@fpsclient@@QAE@AAU2@@Z@UAEPAXI@Z 0047169f f i fps.obj
 0001:0007069f       ??_Ecmd_entlink@?2???0entities@fpsclient@@QAE@AAU2@@Z@UAEPAXI@Z 0047169f f i  CIL library: CIL module
 0001:0007069f       ??_Ecmd_entdelink@?1???0entities@fpsclient@@QAE@AAU2@@Z@UAEPAXI@Z 0047169f f i  CIL library: CIL module
 0001:0007069f       ??_Gcmd_entdelink@?1???0entities@fpsclient@@QAE@AAU2@@Z@UAEPAXI@Z 0047169f f i fps.obj
 0001:000706d8       ??_Ecmd_listdemos@?P@???0clientcom@fpsclient@@QAE@AAU2@@Z@UAEPAXI@Z 004716d8 f i  CIL library: CIL module
 0001:000706d8       ??_Gcmd_getdemo@?BA@???0clientcom@fpsclient@@QAE@AAU2@@Z@UAEPAXI@Z 004716d8 f i fps.obj
 0001:000706d8       ??_Gcmd_kick@?6???0clientcom@fpsclient@@QAE@AAU2@@Z@UAEPAXI@Z 004716d8 f i fps.obj
 0001:000706d8       ??_Ecmd_getdemo@?BA@???0clientcom@fpsclient@@QAE@AAU2@@Z@UAEPAXI@Z 004716d8 f i  CIL library: CIL module
 0001:000706d8       ??_Gcmd_cleardemos@?BD@???0clientcom@fpsclient@@QAE@AAU2@@Z@UAEPAXI@Z 004716d8 f i fps.obj
 0001:000706d8       ??_Ecmd_mastermode@?9???0clientcom@fpsclient@@QAE@AAU2@@Z@UAEPAXI@Z 004716d8 f i  CIL library: CIL module
 0001:000706d8       ??_Ecmd_clearbans@?5???0clientcom@fpsclient@@QAE@AAU2@@Z@UAEPAXI@Z 004716d8 f i  CIL library: CIL module
 0001:000706d8       ??_Gcmd_team@?3???0clientcom@fpsclient@@QAE@AAU2@@Z@UAEPAXI@Z 004716d8 f i fps.obj
 0001:000706d8       ??_Ecmd_recorddemo@?BB@???0clientcom@fpsclient@@QAE@AAU2@@Z@UAEPAXI@Z 004716d8 f i  CIL library: CIL module
 0001:000706d8       ??_Gcmd_setmaster@?L@???0clientcom@fpsclient@@QAE@AAU2@@Z@UAEPAXI@Z 004716d8 f i fps.obj
 0001:000706d8       ??_Gcmd_clearbans@?5???0clientcom@fpsclient@@QAE@AAU2@@Z@UAEPAXI@Z 004716d8 f i fps.obj
 0001:000706d8       ??_Ecmd_getmap@?N@???0clientcom@fpsclient@@QAE@AAU2@@Z@UAEPAXI@Z 004716d8 f i  CIL library: CIL module
 0001:000706d8       ??_Gcmd_listdemos@?P@???0clientcom@fpsclient@@QAE@AAU2@@Z@UAEPAXI@Z 004716d8 f i fps.obj
 0001:000706d8       ??_Ecmd_kick@?6???0clientcom@fpsclient@@QAE@AAU2@@Z@UAEPAXI@Z 004716d8 f i  CIL library: CIL module
 0001:000706d8       ??_Gcmd_mastermode@?9???0clientcom@fpsclient@@QAE@AAU2@@Z@UAEPAXI@Z 004716d8 f i fps.obj
 0001:000706d8       ??_Gcmd_recorddemo@?BB@???0clientcom@fpsclient@@QAE@AAU2@@Z@UAEPAXI@Z 004716d8 f i fps.obj
 0001:000706d8       ??_Ecmd_name@?2???0clientcom@fpsclient@@QAE@AAU2@@Z@UAEPAXI@Z 004716d8 f i  CIL library: CIL module
 0001:000706d8       ??_Gcmd_stopdemo@?BC@???0clientcom@fpsclient@@QAE@AAU2@@Z@UAEPAXI@Z 004716d8 f i fps.obj
 0001:000706d8       ??_Gcmd_name@?2???0clientcom@fpsclient@@QAE@AAU2@@Z@UAEPAXI@Z 004716d8 f i fps.obj
 0001:000706d8       ??_Ecmd_getname@?BE@???0clientcom@fpsclient@@QAE@AAU2@@Z@UAEPAXI@Z 004716d8 f i  CIL library: CIL module
 0001:000706d8       ??_Gcmd_getmap@?N@???0clientcom@fpsclient@@QAE@AAU2@@Z@UAEPAXI@Z 004716d8 f i fps.obj
 0001:000706d8       ??_Ecmd_spectator@?8???0clientcom@fpsclient@@QAE@AAU2@@Z@UAEPAXI@Z 004716d8 f i  CIL library: CIL module
 0001:000706d8       ??_Ecmd_getteam@?BF@???0clientcom@fpsclient@@QAE@AAU2@@Z@UAEPAXI@Z 004716d8 f i  CIL library: CIL module
 0001:000706d8       ??_Gcmd_goto@?7???0clientcom@fpsclient@@QAE@AAU2@@Z@UAEPAXI@Z 004716d8 f i fps.obj
 0001:000706d8       ??_Gcmd_spectator@?8???0clientcom@fpsclient@@QAE@AAU2@@Z@UAEPAXI@Z 004716d8 f i fps.obj
 0001:000706d8       ??_Ecmd_sendmap@?O@???0clientcom@fpsclient@@QAE@AAU2@@Z@UAEPAXI@Z 004716d8 f i  CIL library: CIL module
 0001:000706d8       ??_Ecmd_cleardemos@?BD@???0clientcom@fpsclient@@QAE@AAU2@@Z@UAEPAXI@Z 004716d8 f i  CIL library: CIL module
 0001:000706d8       ??_Gcmd_sendmap@?O@???0clientcom@fpsclient@@QAE@AAU2@@Z@UAEPAXI@Z 004716d8 f i fps.obj
 0001:000706d8       ??_Gcmd_getteam@?BF@???0clientcom@fpsclient@@QAE@AAU2@@Z@UAEPAXI@Z 004716d8 f i fps.obj
 0001:000706d8       ??_Gcmd_say@?1???0clientcom@fpsclient@@QAE@AAU2@@Z@UAEPAXI@Z 004716d8 f i fps.obj
 0001:000706d8       ??_Ecmd_setmaster@?L@???0clientcom@fpsclient@@QAE@AAU2@@Z@UAEPAXI@Z 004716d8 f i  CIL library: CIL module
 0001:000706d8       ??_Ecmd_team@?3???0clientcom@fpsclient@@QAE@AAU2@@Z@UAEPAXI@Z 004716d8 f i  CIL library: CIL module
 0001:000706d8       ??_Ecmd_stopdemo@?BC@???0clientcom@fpsclient@@QAE@AAU2@@Z@UAEPAXI@Z 004716d8 f i  CIL library: CIL module
 0001:000706d8       ??_Ecmd_setteam@?M@???0clientcom@fpsclient@@QAE@AAU2@@Z@UAEPAXI@Z 004716d8 f i  CIL library: CIL module
 0001:000706d8       ??_Gcmd_setteam@?M@???0clientcom@fpsclient@@QAE@AAU2@@Z@UAEPAXI@Z 004716d8 f i fps.obj
 0001:000706d8       ??_Ecmd_say@?1???0clientcom@fpsclient@@QAE@AAU2@@Z@UAEPAXI@Z 004716d8 f i  CIL library: CIL module
 0001:000706d8       ??_Ecmd_goto@?7???0clientcom@fpsclient@@QAE@AAU2@@Z@UAEPAXI@Z 004716d8 f i  CIL library: CIL module
 0001:000706d8       ??_Gcmd_map@?4???0clientcom@fpsclient@@QAE@AAU2@@Z@UAEPAXI@Z 004716d8 f i fps.obj
 0001:000706d8       ??_Ecmd_map@?4???0clientcom@fpsclient@@QAE@AAU2@@Z@UAEPAXI@Z 004716d8 f i  CIL library: CIL module
 0001:000706d8       ??_Gcmd_getname@?BE@???0clientcom@fpsclient@@QAE@AAU2@@Z@UAEPAXI@Z 004716d8 f i fps.obj
 0001:00070711       ??_Ecmd_repammo@?1???0captureclient@fpsclient@@QAE@AAU2@@Z@UAEPAXI@Z 00471711 f i  CIL library: CIL module
 0001:00070711       ??_Gcmd_repammo@?1???0captureclient@fpsclient@@QAE@AAU2@@Z@UAEPAXI@Z 00471711 f i fps.obj
 0001:0007074a       ??_Gvar_gravity@?1???0physics@fpsclient@@QAE@AAU2@@Z@UAEPAXI@Z 0047174a f i fps.obj
 0001:0007074a       ??_Evar_gravity@?1???0physics@fpsclient@@QAE@AAU2@@Z@UAEPAXI@Z 0047174a f i  CIL library: CIL module
 0001:00070767       ??_Evar_speed@?2???0physics@fpsclient@@QAE@AAU2@@Z@UAEPAXI@Z 00471767 f i  CIL library: CIL module
 0001:00070767       ??_Gvar_speed@?2???0physics@fpsclient@@QAE@AAU2@@Z@UAEPAXI@Z 00471767 f i fps.obj
 0001:00070784       ??_Gvar_jumpvel@?3???0physics@fpsclient@@QAE@AAU2@@Z@UAEPAXI@Z 00471784 f i fps.obj
 0001:00070784       ??_Evar_jumpvel@?3???0physics@fpsclient@@QAE@AAU2@@Z@UAEPAXI@Z 00471784 f i  CIL library: CIL module
 0001:000707a1       ??_Evar_watertype@?4???0physics@fpsclient@@QAE@AAU2@@Z@UAEPAXI@Z 004717a1 f i  CIL library: CIL module
 0001:000707a1       ??_Gvar_watertype@?4???0physics@fpsclient@@QAE@AAU2@@Z@UAEPAXI@Z 004717a1 f i fps.obj
 0001:000707be       ??_Evar_watervel@?5???0physics@fpsclient@@QAE@AAU2@@Z@UAEPAXI@Z 004717be f i  CIL library: CIL module
 0001:000707be       ??_Gvar_watervel@?5???0physics@fpsclient@@QAE@AAU2@@Z@UAEPAXI@Z 004717be f i fps.obj
 0001:000707db       ??_Ecmd_centerrank@?5???0fpsclient@@QAE@XZ@UAEPAXI@Z 004717db f i  CIL library: CIL module
 0001:000707db       ??_Gcmd_mode@?1???0fpsclient@@QAE@XZ@UAEPAXI@Z 004717db f i fps.obj
 0001:000707db       ??_Gcmd_taunt@?3???0fpsclient@@QAE@XZ@UAEPAXI@Z 004717db f i fps.obj
 0001:000707db       ??_Gcmd_cameradir@?4???0fpsclient@@QAE@XZ@UAEPAXI@Z 004717db f i fps.obj
 0001:000707db       ??_Ecmd_taunt@?3???0fpsclient@@QAE@XZ@UAEPAXI@Z 004717db f i  CIL library: CIL module
 0001:000707db       ??_Ecmd_cameradir@?4???0fpsclient@@QAE@XZ@UAEPAXI@Z 004717db f i  CIL library: CIL module
 0001:000707db       ??_Ecmd_getgamemode@?7???0fpsclient@@QAE@XZ@UAEPAXI@Z 004717db f i  CIL library: CIL module
 0001:000707db       ??_Gcmd_centerrank@?5???0fpsclient@@QAE@XZ@UAEPAXI@Z 004717db f i fps.obj
 0001:000707db       ??_Ecmd_kill@?2???0fpsclient@@QAE@XZ@UAEPAXI@Z 004717db f i  CIL library: CIL module
 0001:000707db       ??_Gcmd_gotocamera@?6???0fpsclient@@QAE@XZ@UAEPAXI@Z 004717db f i fps.obj
 0001:000707db       ??_Ecmd_gotocamera@?6???0fpsclient@@QAE@XZ@UAEPAXI@Z 004717db f i  CIL library: CIL module
 0001:000707db       ??_Gcmd_getgamemode@?7???0fpsclient@@QAE@XZ@UAEPAXI@Z 004717db f i fps.obj
 0001:000707db       ??_Ecmd_mode@?1???0fpsclient@@QAE@XZ@UAEPAXI@Z 004717db f i  CIL library: CIL module
 0001:000707db       ??_Gcmd_kill@?2???0fpsclient@@QAE@XZ@UAEPAXI@Z 004717db f i fps.obj
 0001:00070814       ??1fpsclient@@UAE@XZ       00471814 f i fps.obj
 0001:000709d9       ?newclient@fpsgame@@UAEPAUigameclient@@XZ 004719d9 f i fps.obj
 0001:00070a14       ?newserver@fpsgame@@UAEPAUigameserver@@XZ 00471a14 f i fps.obj
 0001:00070a4f       ??_Gfpsgame@@UAEPAXI@Z     00471a4f f i fps.obj
 0001:00070a4f       ??_Efpsgame@@UAEPAXI@Z     00471a4f f i  CIL library: CIL module
 0001:00070a88       ??4?$vector@H@@QAEAAU0@ABU0@@Z 00471a88 f i fps.obj
 0001:00070ab1       ?removeobj@?$vector@PAUclientinfo@fpsserver@@@@QAEXABQAUclientinfo@fpsserver@@@Z 00471ab1 f i fps.obj
 0001:00070af9       ??1?$vector@PAUworldstate@fpsserver@@@@QAE@XZ 00471af9 f i fps.obj
 0001:00070af9       ??1?$vector@PAUbouncent@weaponstate@fpsclient@@@@QAE@XZ 00471af9 f i fps.obj
 0001:00070af9       ??1?$vector@Uscore@capturestate@fpsclient@@@@QAE@XZ 00471af9 f i fps.obj
 0001:00070af9       ??1?$vector@PAUscr@fpsserver@@@@QAE@XZ 00471af9 f i fps.obj
 0001:00070af9       ??1?$vector@PAD@@QAE@XZ    00471af9 f i server.obj
 0001:00070af9       ??1?$vector@Uvotecount@fpsserver@@@@QAE@XZ 00471af9 f i fps.obj
 0001:00070af9       ??1?$vector@PAUjoymenuaction@@@@QAE@XZ 00471af9 f i joystick.obj
 0001:00070af9       ??1?$vector@PAUpart@vertmodel@@@@QAE@XZ 00471af9 f i rendermodel.obj
 0001:00070af9       ??1?$vector@Ubaseinfo@capturestate@fpsserver@@@@QAE@XZ 00471af9 f i fps.obj
 0001:00070af9       ??1?$vector@PBD@@QAE@XZ    00471af9 f i serverbrowser.obj
 0001:00070af9       ??1?$vector@Uufval@unionfind@@@@QAE@XZ 00471af9 f i material.obj
 0001:00070af9       ??1?$vector@PAUphysent@@@@QAE@XZ 00471af9 f i physics.obj
 0001:00070af9       ??1?$vector@PAUmonster@monsterset@fpsclient@@@@QAE@XZ 00471af9 f i fps.obj
 0001:00070af9       ??1?$vector@Ucharinfo@font@@@@QAE@XZ 00471af9 f i rendertext.obj
 0001:00070af9       ??1?$vector@Ubatchedmodel@@@@QAE@XZ 00471af9 f i rendermodel.obj
 0001:00070af9       ??1?$vector@UTex@Slot@@@@QAE@XZ 00471af9 f i texture.obj
 0001:00070af9       ??1?$vector@Userver_entity@fpsserver@@@@QAE@XZ 00471af9 f i fps.obj
 0001:00070af9       ??1?$vector@Ulinkedpart@vertmodel@@@@QAE@XZ 00471af9 f i rendermodel.obj
 0001:00070af9       ??1?$vector@UShaderParam@@@@QAE@XZ 00471af9 f i shader.obj
 0001:00070af9       ??1?$vector@Utranslucentmodel@@@@QAE@XZ 00471af9 f i rendermodel.obj
 0001:00070af9       ??1?$vector@PAUfpsent@@@@QAE@XZ 00471af9 f i fps.obj
 0001:00070af9       ??1?$vector@Uskin@vertmodel@@@@QAE@XZ 00471af9 f i rendermodel.obj
 0001:00070af9       ??1?$vector@Usortkey@@@@QAE@XZ 00471af9 f i octarender.obj
 0001:00070af9       ??1?$vector@Tgameevent@fpsserver@@@@QAE@XZ 00471af9 f i fps.obj
 0001:00070af9       ??1?$vector@Uscore@capturestate@fpsserver@@@@QAE@XZ 00471af9 f i fps.obj
 0001:00070af9       ??1?$vector@PAUmaterialsurface@@@@QAE@XZ 00471af9 f i material.obj
 0001:00070af9       ??1?$vector@PAUextentity@@@@QAE@XZ 00471af9 f i fps.obj
 0001:00070af9       ??1?$vector@Utri@BIH@@@@QAE@XZ 00471af9 f i rendermodel.obj
 0001:00070af9       ??1?$vector@Unormal@@@@QAE@XZ 00471af9 f i normal.obj
 0001:00070af9       ??1?$vector@PAUmesh@vertmodel@@@@QAE@XZ 00471af9 f i rendermodel.obj
 0001:00070af9       ??1?$vector@E@@QAE@XZ      00471af9 f i rendermodel.obj
 0001:00070af9       ??1?$vector@H@@QAE@XZ      00471af9 f i lightmap.obj
 0001:00070af9       ??1?$vector@Utcvert@vertmodel@@@@QAE@XZ 00471af9 f i rendermodel.obj
 0001:00070af9       ??1?$vector@Uwaterinfo@@@@QAE@XZ 00471af9 f i material.obj
 0001:00070af9       ??1?$vector@PAUoctaentities@@@@QAE@XZ 00471af9 f i octarender.obj
 0001:00070af9       ??1?$vector@Uteamscore@fpsclient@@@@QAE@XZ 00471af9 f i fps.obj
 0001:00070af9       ??1?$vector@Umaterialsurface@@@@QAE@XZ 00471af9 f i octarender.obj
 0001:00070af9       ??1?$vector@Uprojectile@weaponstate@fpsclient@@@@QAE@XZ 00471af9 f i fps.obj
 0001:00070af9       ??1?$vector@Uvvert@vertmodel@@@@QAE@XZ 00471af9 f i rendermodel.obj
 0001:00070af9       ??1?$vector@PAUnodeq@botcom@fpsclient@@@@QAE@XZ 00471af9 f i fps.obj
 0001:00070af9       ??1?$vector@ULocalShaderParamState@@@@QAE@XZ 00471af9 f i shader.obj
 0001:00070af9       ??1?$vector@Usavedscore@fpsserver@@@@QAE@XZ 00471af9 f i fps.obj
 0001:00070af9       ??1?$vector@Ubaseinfo@capturestate@fpsclient@@@@QAE@XZ 00471af9 f i fps.obj
 0001:00070af9       ??1?$vector@Utriangle@tristrip@@@@QAE@XZ 00471af9 f i rendermodel.obj
 0001:00070af9       ??1?$vector@Utri@vertmodel@@@@QAE@XZ 00471af9 f i rendermodel.obj
 0001:00070af9       ??1?$vector@Uteamscore@scoreboard@fpsclient@@@@QAE@XZ 00471af9 f i fps.obj
 0001:00070af9       ??1?$vector@UBIHNode@@@@QAE@XZ 00471af9 f i bih.obj
 0001:00070af9       ??1?$vector@Uban@fpsserver@@@@QAE@XZ 00471af9 f i fps.obj
 0001:00070af9       ??1?$vector@PAUscoregroup@scoreboard@fpsclient@@@@QAE@XZ 00471af9 f i fps.obj
 0001:00070af9       ??1?$vector@Uhitmsg@weaponstate@fpsclient@@@@QAE@XZ 00471af9 f i fps.obj
 0001:00070af9       ??1?$vector@Udemofile@fpsserver@@@@QAE@XZ 00471af9 f i fps.obj
 0001:00070b0d       ?remove@?$vector@Udemofile@fpsserver@@@@QAE?AUdemofile@fpsserver@@H@Z 00471b0d f i fps.obj
 0001:00070b5a       ?add@?$vector@Ubaseinfo@capturestate@fpsserver@@@@QAEAAUbaseinfo@capturestate@fpsserver@@XZ 00471b5a f i fps.obj
 0001:00070bd1       ?subbuf@?$databuf@E@@QAE?AU1@H@Z 00471bd1 f i fps.obj
 0001:00070bf9       ??1?$tident@Ufpsserver@@@@UAE@XZ 00471bf9 f i fps.obj
 0001:00070c00       ?setglow@model@@UAEXM@Z    00471c00 f i rendermodel.obj
 0001:00070c00       ?edittoggled@iclientcom@@UAEX_N@Z 00471c00 f i fps.obj
 0001:00070c00       ?run@?$tident@X@@UAEXPAPAD@Z 00471c00 f i octaedit.obj
 0001:00070c00       ?saveworld@fpsclient@@UAEXPBD@Z 00471c00 f i fps.obj
 0001:00070c00       ?leavegame@servmode@fpsserver@@UAEXPAUclientinfo@2@@Z 00471c00 f i fps.obj
 0001:00070c00       ?setshader@model@@UAEXPAUShader@@@Z 00471c00 f i rendermodel.obj
 0001:00070c00       ?run@?$tident@Uscoreboard@fpsclient@@@@UAEXPAPAD@Z 00471c00 f i fps.obj
 0001:00070c00       ?spawned@duelservmode@fpsserver@@UAEXPAUclientinfo@2@@Z 00471c00 f i fps.obj
 0001:00070c00       ?spawned@servmode@fpsserver@@UAEXPAUclientinfo@2@@Z 00471c00 f i fps.obj
 0001:00070c00       ?run@?$tident@Uweaponstate@fpsclient@@@@UAEXPAPAD@Z 00471c00 f i fps.obj
 0001:00070c00       ?setfullbright@model@@UAEXM@Z 00471c00 f i rendermodel.obj
 0001:00070c00       ?updateroll@iphysics@@UAEXPAUphysent@@@Z 00471c00 f i fps.obj
 0001:00070c00       ?run@?$tident@Ufpsserver@@@@UAEXPAPAD@Z 00471c00 f i fps.obj
 0001:00070c00       ?setalphatest@model@@UAEXM@Z 00471c00 f i rendermodel.obj
 0001:00070c00       ?run@?$tident@Uentities@fpsclient@@@@UAEXPAPAD@Z 00471c00 f i fps.obj
 0001:00070c00       ?settranslucency@model@@UAEXM@Z 00471c00 f i rendermodel.obj
 0001:00070c00       ?run@?$tident@Uclientcom@fpsclient@@@@UAEXPAPAD@Z 00471c00 f i fps.obj
 0001:00070c00       ?run@?$tident@Ujoystick@@@@UAEXPAPAD@Z 00471c00 f i joystick.obj
 0001:00070c00       ?readgamedata@fpsclient@@UAEXAAU?$vector@D@@@Z 00471c00 f i fps.obj
 0001:00070c00       ?run@?$tident@Ufpsclient@@@@UAEXPAPAD@Z 00471c00 f i fps.obj
 0001:00070c00       ?saveworld@igameclient@@UAEXPBD@Z 00471c00 f i fps.obj
 0001:00070c00       ?update@ibotcom@@UAEXPAUbot@@@Z 00471c00 f i fps.obj
 0001:00070c00       ?reset@servmode@fpsserver@@UAEX_N@Z 00471c00 f i fps.obj
 0001:00070c00       ?setspec@model@@UAEXM@Z    00471c00 f i rendermodel.obj
 0001:00070c00       ?run@?$tident@Uphysics@fpsclient@@@@UAEXPAPAD@Z 00471c00 f i fps.obj
 0001:00070c00       ?entergame@servmode@fpsserver@@UAEXPAUclientinfo@2@@Z 00471c00 f i fps.obj
 0001:00070c00       ?loadworld@igameclient@@UAEXPBD@Z 00471c00 f i fps.obj
 0001:00070c00       ?run@?$tident@Ucaptureclient@fpsclient@@@@UAEXPAPAD@Z 00471c00 f i fps.obj
 0001:00070c00       ?setalphablend@model@@UAEX_N@Z 00471c00 f i rendermodel.obj
 0001:00070c00       ?writegamedata@fpsclient@@UAEXAAU?$vector@D@@@Z 00471c00 f i fps.obj
 0001:00070c00       ?setambient@model@@UAEXM@Z 00471c00 f i rendermodel.obj
 0001:00070c00       ?loadworld@fpsclient@@UAEXPBD@Z 00471c00 f i fps.obj
 0001:00070c03       ?remove@?$vector@H@@QAEHH@Z 00471c03 f i world.obj
 0001:00070c03       ?remove@?$vector@PAUbouncent@weaponstate@fpsclient@@@@QAEPAUbouncent@weaponstate@fpsclient@@H@Z 00471c03 f i fps.obj
 0001:00070c26       ?remove@?$vector@Uprojectile@weaponstate@fpsclient@@@@QAE?AUprojectile@weaponstate@fpsclient@@H@Z 00471c26 f i fps.obj
 0001:00070c67       ?add@?$vector@Ubaseinfo@capturestate@fpsclient@@@@QAEAAUbaseinfo@capturestate@fpsclient@@XZ 00471c67 f i fps.obj
 0001:00070cde       ?add@?$vector@Uteamscore@fpsclient@@@@QAEAAUteamscore@fpsclient@@ABU23@@Z 00471cde f i fps.obj
 0001:00070cde       ?add@?$vector@Uteamscore@scoreboard@fpsclient@@@@QAEAAUteamscore@scoreboard@fpsclient@@ABU234@@Z 00471cde f i fps.obj
 0001:00070d12       ??1?$tident@Uweaponstate@fpsclient@@@@UAE@XZ 00471d12 f i fps.obj
 0001:00070d19       ??1?$tident@Uscoreboard@fpsclient@@@@UAE@XZ 00471d19 f i fps.obj
 0001:00070d20       ??1?$tident@Uentities@fpsclient@@@@UAE@XZ 00471d20 f i fps.obj
 0001:00070d27       ??1?$tident@Uclientcom@fpsclient@@@@UAE@XZ 00471d27 f i fps.obj
 0001:00070d2e       ??1?$tident@Ucaptureclient@fpsclient@@@@UAE@XZ 00471d2e f i fps.obj
 0001:00070d35       ??0?$tident@Uphysics@fpsclient@@@@QAE@HPADHHHPAHPAX_N@Z 00471d35 f i fps.obj
 0001:00070d6f       ??1?$tident@Uphysics@fpsclient@@@@UAE@XZ 00471d6f f i fps.obj
 0001:00070d76       ?changed@?$tident@Uclientcom@fpsclient@@@@UAEXXZ 00471d76 f i fps.obj
 0001:00070d76       ?changed@?$tident@Ucaptureclient@fpsclient@@@@UAEXXZ 00471d76 f i fps.obj
 0001:00070d76       ?changed@?$tident@Ufpsclient@@@@UAEXXZ 00471d76 f i fps.obj
 0001:00070d76       ?changed@?$tident@Uphysics@fpsclient@@@@UAEXXZ 00471d76 f i fps.obj
 0001:00070d76       ?changed@?$tident@Uscoreboard@fpsclient@@@@UAEXXZ 00471d76 f i fps.obj
 0001:00070d76       ?changed@?$tident@Uweaponstate@fpsclient@@@@UAEXXZ 00471d76 f i fps.obj
 0001:00070d76       ?changed@?$tident@Ufpsserver@@@@UAEXXZ 00471d76 f i fps.obj
 0001:00070d76       ?changed@?$tident@Uentities@fpsclient@@@@UAEXXZ 00471d76 f i fps.obj
 0001:00070d76       ?changed@?$tident@X@@UAEXXZ 00471d76 f i octaedit.obj
 0001:00070d76       ?changed@?$tident@Ujoystick@@@@UAEXXZ 00471d76 f i joystick.obj
 0001:00070d80       ??1?$tident@Ufpsclient@@@@UAE@XZ 00471d80 f i fps.obj
 0001:00070d87       ??_E?$tident@Ufpsserver@@@@UAEPAXI@Z 00471d87 f i  CIL library: CIL module
 0001:00070d87       ??_G?$tident@Ufpsserver@@@@UAEPAXI@Z 00471d87 f i fps.obj
 0001:00070da4       ??_E?$tident@Uweaponstate@fpsclient@@@@UAEPAXI@Z 00471da4 f i  CIL library: CIL module
 0001:00070da4       ??_G?$tident@Uweaponstate@fpsclient@@@@UAEPAXI@Z 00471da4 f i fps.obj
 0001:00070dc1       ??_G?$tident@Uscoreboard@fpsclient@@@@UAEPAXI@Z 00471dc1 f i fps.obj
 0001:00070dc1       ??_E?$tident@Uscoreboard@fpsclient@@@@UAEPAXI@Z 00471dc1 f i  CIL library: CIL module
 0001:00070dde       ??_E?$tident@Uentities@fpsclient@@@@UAEPAXI@Z 00471dde f i  CIL library: CIL module
 0001:00070dde       ??_G?$tident@Uentities@fpsclient@@@@UAEPAXI@Z 00471dde f i fps.obj
 0001:00070dfb       ??_E?$tident@Uclientcom@fpsclient@@@@UAEPAXI@Z 00471dfb f i  CIL library: CIL module
 0001:00070dfb       ??_G?$tident@Uclientcom@fpsclient@@@@UAEPAXI@Z 00471dfb f i fps.obj
 0001:00070e18       ??_G?$tident@Ucaptureclient@fpsclient@@@@UAEPAXI@Z 00471e18 f i fps.obj
 0001:00070e18       ??_E?$tident@Ucaptureclient@fpsclient@@@@UAEPAXI@Z 00471e18 f i  CIL library: CIL module
 0001:00070e35       ??_E?$tident@Uphysics@fpsclient@@@@UAEPAXI@Z 00471e35 f i  CIL library: CIL module
 0001:00070e35       ??_G?$tident@Uphysics@fpsclient@@@@UAEPAXI@Z 00471e35 f i fps.obj
 0001:00070e52       ??_E?$tident@Ufpsclient@@@@UAEPAXI@Z 00471e52 f i  CIL library: CIL module
 0001:00070e52       ??_G?$tident@Ufpsclient@@@@UAEPAXI@Z 00471e52 f i fps.obj
 0001:00070e6f       ?vrealloc@?$vector@Tgameevent@fpsserver@@@@QAEXXZ 00471e6f f i fps.obj
 0001:00070eb5       ?vrealloc@?$vector@Udemofile@fpsserver@@@@QAEXXZ 00471eb5 f i fps.obj
 0001:00070f01       ?vrealloc@?$vector@Ubaseinfo@capturestate@fpsserver@@@@QAEXXZ 00471f01 f i fps.obj
 0001:00070f4d       ?vrealloc@?$vector@Usavedscore@fpsserver@@@@QAEXXZ 00471f4d f i fps.obj
 0001:00070f99       ?vrealloc@?$vector@Userver_entity@fpsserver@@@@QAEXXZ 00471f99 f i fps.obj
 0001:00070f99       ?vrealloc@?$vector@Utranslucentmodel@@@@QAEXXZ 00471f99 f i rendermodel.obj
 0001:00070f99       ?vrealloc@?$vector@Ucubeface@@@@QAEXXZ 00471f99 f i octa.obj
 0001:00070f99       ?vrealloc@?$vector@Uvotecount@fpsserver@@@@QAEXXZ 00471f99 f i fps.obj
 0001:00070fdf       ?vrealloc@?$vector@Uprojectile@weaponstate@fpsclient@@@@QAEXXZ 00471fdf f i fps.obj
 0001:00071025       ?vrealloc@?$vector@Uhitmsg@weaponstate@fpsclient@@@@QAEXXZ 00472025 f i fps.obj
 0001:0007106b       ?vrealloc@?$vector@Ubaseinfo@capturestate@fpsclient@@@@QAEXXZ 0047206b f i fps.obj
 0001:000710b7       ??0joystick@@QAE@H@Z       004720b7 f i joystick.obj
 0001:00071376       ??1joystick@@QAE@XZ        00472376 f i joystick.obj
 0001:0007143c       ?process_event@joystick@@QAEXPATSDL_Event@@@Z 0047243c f i joystick.obj
 0001:000715a9       ?move@joystick@@QAEXXZ     004725a9 f i joystick.obj
 0001:0007178b       ?show_menu@joystick@@QAEXXZ 0047278b f i joystick.obj
 0001:00071e8c       ?get_keyaction_label@joystick@@QAEPADPAD@Z 00472e8c f i joystick.obj
 0001:00071ecf       ?build_action_menu@joystick@@QAEXPAD@Z 00472ecf f i joystick.obj
 0001:0007201c       ?add_joyaction@joystick@@QAEXPAD0@Z 0047301c f i joystick.obj
 0001:0007207d       ?add_joysayaction@joystick@@QAEXPAD@Z 0047307d f i joystick.obj
 0001:000720be       ??0cmd_joyactionnum@?BC@???0joystick@@QAE@H@Z@QAE@PAU1@@Z 004730be f   joystick.obj
 0001:0007210a       ?run@cmd_joyactionnum@?BC@???0joystick@@QAE@H@Z@UAEXPAPAD@Z 0047310a f   joystick.obj
 0001:0007210a       ?run@cmd_joyaction@?BE@???0joystick@@QAE@H@Z@UAEXPAPAD@Z 0047310a f   joystick.obj
 0001:0007211e       ??0cmd_joyaction@?BE@???0joystick@@QAE@H@Z@QAE@PAU1@@Z 0047311e f   joystick.obj
 0001:0007216a       ??0cmd_joyactionsaynum@?BH@???0joystick@@QAE@H@Z@QAE@PAU1@@Z 0047316a f   joystick.obj
 0001:000721b6       ??0cmd_joyactionsay@?BJ@???0joystick@@QAE@H@Z@QAE@PAU1@@Z 004731b6 f   joystick.obj
 0001:00072202       ?run@cmd_joyactionsaynum@?BH@???0joystick@@QAE@H@Z@UAEXPAPAD@Z 00473202 f   joystick.obj
 0001:00072202       ?run@cmd_joyactionsay@?BJ@???0joystick@@QAE@H@Z@UAEXPAPAD@Z 00473202 f   joystick.obj
 0001:00072213       ??0cmd_joymenunum@?BM@???0joystick@@QAE@H@Z@QAE@PAU1@@Z 00473213 f   joystick.obj
 0001:0007225f       ?run@cmd_joymenu@?BO@???0joystick@@QAE@H@Z@UAEXPAPAD@Z 0047325f f   joystick.obj
 0001:0007225f       ?run@cmd_joymenunum@?BM@???0joystick@@QAE@H@Z@UAEXPAPAD@Z 0047325f f   joystick.obj
 0001:0007226a       ??0cmd_joymenu@?BO@???0joystick@@QAE@H@Z@QAE@PAU1@@Z 0047326a f   joystick.obj
 0001:000722b6       ??0cmd_joyfovxaxisnum@?CC@???0joystick@@QAE@H@Z@QAE@PAU1@@Z 004732b6 f   joystick.obj
 0001:00072302       ?run@cmd_joyfovxaxisnum@?CC@???0joystick@@QAE@H@Z@UAEXPAPAD@Z 00473302 f   joystick.obj
 0001:00072362       ??0cmd_joyfovxaxis@?CF@???0joystick@@QAE@H@Z@QAE@PAU1@@Z 00473362 f   joystick.obj
 0001:000723ae       ?run@cmd_joyfovxaxis@?CF@???0joystick@@QAE@H@Z@UAEXPAPAD@Z 004733ae f   joystick.obj
 0001:0007240e       ??0cmd_joyfovyaxisnum@?CJ@???0joystick@@QAE@H@Z@QAE@PAU1@@Z 0047340e f   joystick.obj
 0001:0007245a       ?run@cmd_joyfovyaxisnum@?CJ@???0joystick@@QAE@H@Z@UAEXPAPAD@Z 0047345a f   joystick.obj
 0001:000724ba       ??0cmd_joyfovyaxis@?CM@???0joystick@@QAE@H@Z@QAE@PAU1@@Z 004734ba f   joystick.obj
 0001:00072506       ?run@cmd_joyfovyaxis@?CM@???0joystick@@QAE@H@Z@UAEXPAPAD@Z 00473506 f   joystick.obj
 0001:00072566       ??0cmd_joysensitivitynum@?DA@???0joystick@@QAE@H@Z@QAE@PAU1@@Z 00473566 f   joystick.obj
 0001:000725b2       ?run@cmd_joysensitivitynum@?DA@???0joystick@@QAE@H@Z@UAEXPAPAD@Z 004735b2 f   joystick.obj
 0001:00072612       ??0cmd_joysensitivity@?DD@???0joystick@@QAE@H@Z@QAE@PAU1@@Z 00473612 f   joystick.obj
 0001:0007265e       ?run@cmd_joysensitivity@?DD@???0joystick@@QAE@H@Z@UAEXPAPAD@Z 0047365e f   joystick.obj
 0001:000726be       ??0cmd_joyaxisminmovenum@?DH@???0joystick@@QAE@H@Z@QAE@PAU1@@Z 004736be f   joystick.obj
 0001:0007270a       ?run@cmd_joyaxisminmovenum@?DH@???0joystick@@QAE@H@Z@UAEXPAPAD@Z 0047370a f   joystick.obj
 0001:0007276a       ??0cmd_joyaxisminmove@?DK@???0joystick@@QAE@H@Z@QAE@PAU1@@Z 0047376a f   joystick.obj
 0001:000727b6       ?run@cmd_joyaxisminmove@?DK@???0joystick@@QAE@H@Z@UAEXPAPAD@Z 004737b6 f   joystick.obj
 0001:00072816       ??0cmd_joyfovinvertnum@?DO@???0joystick@@QAE@H@Z@QAE@PAU1@@Z 00473816 f   joystick.obj
 0001:00072862       ?run@cmd_joyfovinvertnum@?DO@???0joystick@@QAE@H@Z@UAEXPAPAD@Z 00473862 f   joystick.obj
 0001:000728bf       ??0cmd_joyfovinvert@?EB@???0joystick@@QAE@H@Z@QAE@PAU1@@Z 004738bf f   joystick.obj
 0001:0007290b       ?run@cmd_joyfovinvert@?EB@???0joystick@@QAE@H@Z@UAEXPAPAD@Z 0047390b f   joystick.obj
 0001:00072968       ??0cmd_joymousebuttonnum@?EF@???0joystick@@QAE@H@Z@QAE@PAU1@@Z 00473968 f   joystick.obj
 0001:000729b4       ?run@cmd_joymousebuttonnum@?EF@???0joystick@@QAE@H@Z@UAEXPAPAD@Z 004739b4 f   joystick.obj
 0001:00072a11       ??0cmd_joymousebutton@?EI@???0joystick@@QAE@H@Z@QAE@PAU1@@Z 00473a11 f   joystick.obj
 0001:00072a5d       ?run@cmd_joymousebutton@?EI@???0joystick@@QAE@H@Z@UAEXPAPAD@Z 00473a5d f   joystick.obj
 0001:00072aba       ??1cmd_joyfovinvert@?EB@???0joystick@@QAE@H@Z@UAE@XZ 00473aba f i joystick.obj
 0001:00072aba       ??1cmd_joyactionsaynum@?BH@???0joystick@@QAE@H@Z@UAE@XZ 00473aba f i joystick.obj
 0001:00072aba       ??1cmd_joysensitivity@?DD@???0joystick@@QAE@H@Z@UAE@XZ 00473aba f i joystick.obj
 0001:00072aba       ??1cmd_joyfovxaxis@?CF@???0joystick@@QAE@H@Z@UAE@XZ 00473aba f i joystick.obj
 0001:00072aba       ??1cmd_joyfovyaxisnum@?CJ@???0joystick@@QAE@H@Z@UAE@XZ 00473aba f i joystick.obj
 0001:00072aba       ??1cmd_joyaxisminmovenum@?DH@???0joystick@@QAE@H@Z@UAE@XZ 00473aba f i joystick.obj
 0001:00072aba       ??1cmd_joysensitivitynum@?DA@???0joystick@@QAE@H@Z@UAE@XZ 00473aba f i joystick.obj
 0001:00072aba       ??1cmd_joymenu@?BO@???0joystick@@QAE@H@Z@UAE@XZ 00473aba f i joystick.obj
 0001:00072aba       ??1cmd_joymousebutton@?EI@???0joystick@@QAE@H@Z@UAE@XZ 00473aba f i joystick.obj
 0001:00072aba       ??1cmd_joymenunum@?BM@???0joystick@@QAE@H@Z@UAE@XZ 00473aba f i joystick.obj
 0001:00072aba       ??1cmd_joyfovxaxisnum@?CC@???0joystick@@QAE@H@Z@UAE@XZ 00473aba f i joystick.obj
 0001:00072aba       ??1cmd_joyfovyaxis@?CM@???0joystick@@QAE@H@Z@UAE@XZ 00473aba f i joystick.obj
 0001:00072aba       ??1cmd_joyactionnum@?BC@???0joystick@@QAE@H@Z@UAE@XZ 00473aba f i joystick.obj
 0001:00072aba       ??1cmd_joyfovinvertnum@?DO@???0joystick@@QAE@H@Z@UAE@XZ 00473aba f i joystick.obj
 0001:00072aba       ??1cmd_joyaxisminmove@?DK@???0joystick@@QAE@H@Z@UAE@XZ 00473aba f i joystick.obj
 0001:00072aba       ??1cmd_joyactionsay@?BJ@???0joystick@@QAE@H@Z@UAE@XZ 00473aba f i joystick.obj
 0001:00072aba       ??1cmd_joymousebuttonnum@?EF@???0joystick@@QAE@H@Z@UAE@XZ 00473aba f i joystick.obj
 0001:00072aba       ??1cmd_joyaction@?BE@???0joystick@@QAE@H@Z@UAE@XZ 00473aba f i joystick.obj
 0001:00072adf       ??_Ecmd_joyactionnum@?BC@???0joystick@@QAE@H@Z@UAEPAXI@Z 00473adf f i  CIL library: CIL module
 0001:00072adf       ??_Gcmd_joyaxisminmove@?DK@???0joystick@@QAE@H@Z@UAEPAXI@Z 00473adf f i joystick.obj
 0001:00072adf       ??_Gcmd_joysensitivitynum@?DA@???0joystick@@QAE@H@Z@UAEPAXI@Z 00473adf f i joystick.obj
 0001:00072adf       ??_Ecmd_joymenu@?BO@???0joystick@@QAE@H@Z@UAEPAXI@Z 00473adf f i  CIL library: CIL module
 0001:00072adf       ??_Ecmd_joyfovxaxis@?CF@???0joystick@@QAE@H@Z@UAEPAXI@Z 00473adf f i  CIL library: CIL module
 0001:00072adf       ??_Ecmd_joyfovyaxis@?CM@???0joystick@@QAE@H@Z@UAEPAXI@Z 00473adf f i  CIL library: CIL module
 0001:00072adf       ??_Gcmd_joyfovyaxis@?CM@???0joystick@@QAE@H@Z@UAEPAXI@Z 00473adf f i joystick.obj
 0001:00072adf       ??_Gcmd_joysensitivity@?DD@???0joystick@@QAE@H@Z@UAEPAXI@Z 00473adf f i joystick.obj
 0001:00072adf       ??_Ecmd_joysensitivity@?DD@???0joystick@@QAE@H@Z@UAEPAXI@Z 00473adf f i  CIL library: CIL module
 0001:00072adf       ??_Ecmd_joyfovxaxisnum@?CC@???0joystick@@QAE@H@Z@UAEPAXI@Z 00473adf f i  CIL library: CIL module
 0001:00072adf       ??_Gcmd_joymousebuttonnum@?EF@???0joystick@@QAE@H@Z@UAEPAXI@Z 00473adf f i joystick.obj
 0001:00072adf       ??_Gcmd_joymenunum@?BM@???0joystick@@QAE@H@Z@UAEPAXI@Z 00473adf f i joystick.obj
 0001:00072adf       ??_Gcmd_joymousebutton@?EI@???0joystick@@QAE@H@Z@UAEPAXI@Z 00473adf f i joystick.obj
 0001:00072adf       ??_Ecmd_joyfovinvert@?EB@???0joystick@@QAE@H@Z@UAEPAXI@Z 00473adf f i  CIL library: CIL module
 0001:00072adf       ??_Gcmd_joyfovyaxisnum@?CJ@???0joystick@@QAE@H@Z@UAEPAXI@Z 00473adf f i joystick.obj
 0001:00072adf       ??_Ecmd_joyfovyaxisnum@?CJ@???0joystick@@QAE@H@Z@UAEPAXI@Z 00473adf f i  CIL library: CIL module
 0001:00072adf       ??_Ecmd_joyactionsaynum@?BH@???0joystick@@QAE@H@Z@UAEPAXI@Z 00473adf f i  CIL library: CIL module
 0001:00072adf       ??_Ecmd_joyfovinvertnum@?DO@???0joystick@@QAE@H@Z@UAEPAXI@Z 00473adf f i  CIL library: CIL module
 0001:00072adf       ??_Gcmd_joyfovinvertnum@?DO@???0joystick@@QAE@H@Z@UAEPAXI@Z 00473adf f i joystick.obj
 0001:00072adf       ??_Ecmd_joymousebutton@?EI@???0joystick@@QAE@H@Z@UAEPAXI@Z 00473adf f i  CIL library: CIL module
 0001:00072adf       ??_Gcmd_joyfovxaxisnum@?CC@???0joystick@@QAE@H@Z@UAEPAXI@Z 00473adf f i joystick.obj
 0001:00072adf       ??_Ecmd_joyaxisminmove@?DK@???0joystick@@QAE@H@Z@UAEPAXI@Z 00473adf f i  CIL library: CIL module
 0001:00072adf       ??_Gcmd_joyactionsaynum@?BH@???0joystick@@QAE@H@Z@UAEPAXI@Z 00473adf f i joystick.obj
 0001:00072adf       ??_Gcmd_joyaction@?BE@???0joystick@@QAE@H@Z@UAEPAXI@Z 00473adf f i joystick.obj
 0001:00072adf       ??_Gcmd_joyactionnum@?BC@???0joystick@@QAE@H@Z@UAEPAXI@Z 00473adf f i joystick.obj
 0001:00072adf       ??_Gcmd_joymenu@?BO@???0joystick@@QAE@H@Z@UAEPAXI@Z 00473adf f i joystick.obj
 0001:00072adf       ??_Ecmd_joyaction@?BE@???0joystick@@QAE@H@Z@UAEPAXI@Z 00473adf f i  CIL library: CIL module
 0001:00072adf       ??_Ecmd_joyactionsay@?BJ@???0joystick@@QAE@H@Z@UAEPAXI@Z 00473adf f i  CIL library: CIL module
 0001:00072adf       ??_Ecmd_joysensitivitynum@?DA@???0joystick@@QAE@H@Z@UAEPAXI@Z 00473adf f i  CIL library: CIL module
 0001:00072adf       ??_Gcmd_joyfovinvert@?EB@???0joystick@@QAE@H@Z@UAEPAXI@Z 00473adf f i joystick.obj
 0001:00072adf       ??_Gcmd_joyaxisminmovenum@?DH@???0joystick@@QAE@H@Z@UAEPAXI@Z 00473adf f i joystick.obj
 0001:00072adf       ??_Ecmd_joymenunum@?BM@???0joystick@@QAE@H@Z@UAEPAXI@Z 00473adf f i  CIL library: CIL module
 0001:00072adf       ??_Ecmd_joymousebuttonnum@?EF@???0joystick@@QAE@H@Z@UAEPAXI@Z 00473adf f i  CIL library: CIL module
 0001:00072adf       ??_Gcmd_joyfovxaxis@?CF@???0joystick@@QAE@H@Z@UAEPAXI@Z 00473adf f i joystick.obj
 0001:00072adf       ??_Ecmd_joyaxisminmovenum@?DH@???0joystick@@QAE@H@Z@UAEPAXI@Z 00473adf f i  CIL library: CIL module
 0001:00072adf       ??_Gcmd_joyactionsay@?BJ@???0joystick@@QAE@H@Z@UAEPAXI@Z 00473adf f i joystick.obj
 0001:00072b18       ?initjoy@@YAXXZ            00473b18 f   joystick.obj
 0001:00072c8a       ?processjoy@@YAXPATSDL_Event@@@Z 00473c8a f   joystick.obj
 0001:00072cd3       ?movejoy@@YAXXZ            00473cd3 f   joystick.obj
 0001:00072d19       ?swapjoy@@YAXPAH0@Z        00473d19 f   joystick.obj
 0001:00072d7c       ??0?$tident@Ujoystick@@@@QAE@HPAD0PAXPAUjoystick@@_N@Z 00473d7c f i joystick.obj
 0001:00072da5       ??1?$tident@Ujoystick@@@@UAE@XZ 00473da5 f i joystick.obj
 0001:00072dac       ??_G?$tident@Ujoystick@@@@UAEPAXI@Z 00473dac f i joystick.obj
 0001:00072dac       ??_E?$tident@Ujoystick@@@@UAEPAXI@Z 00473dac f i  CIL library: CIL module
 0001:00072dca       _exp                       00473dca f   msvcrt:MSVCR80.dll
 0001:00072dd0       _sin                       00473dd0 f   msvcrt:MSVCR80.dll
 0001:00072dd6       _memcpy                    00473dd6 f   msvcrt:MSVCR80.dll
 0001:00072ddc       _sqrt                      00473ddc f   msvcrt:MSVCR80.dll
 0001:00072de2       _cos                       00473de2 f   msvcrt:MSVCR80.dll
 0001:00072de8       _memset                    00473de8 f   msvcrt:MSVCR80.dll
 0001:00072dee       ??2@YAPAXI@Z               00473dee f   msvcrt:MSVCR80.dll
 0001:00072df4       ??3@YAXPAX@Z               00473df4 f   msvcrt:MSVCR80.dll
 0001:00072dfa       _fabs                      00473dfa f   msvcrt:MSVCR80.dll
 0001:00072e00       ??_L@YGXPAXIHP6EX0@Z1@Z    00473e00 f   msvcrt:ehvecctr.obj
 0001:00072e65       ?__ArrayUnwind@@YGXPAXIHP6EX0@Z@Z 00473e65 f   msvcrt:ehvecdtr.obj
 0001:00072ec3       ??_M@YGXPAXIHP6EX0@Z@Z     00473ec3 f   msvcrt:ehvecdtr.obj
 0001:00072f26       __onexit                   00473f26 f   msvcrt:atonexit.obj
 0001:00072fcb       _atexit                    00473fcb f   msvcrt:atonexit.obj
 0001:00072fde       _abs                       00473fde f   msvcrt:MSVCR80.dll
 0001:00072fe4       ??_Etype_info@@UAEPAXI@Z   00473fe4 f i msvcrt:ti_inst.obj
 0001:0007302e       __purecall                 0047402e f   msvcrt:MSVCR80.dll
 0001:00073034       _atan2                     00474034 f   msvcrt:MSVCR80.dll
 0001:0007303a       _asin                      0047403a f   msvcrt:MSVCR80.dll
 0001:00073040       _strlen                    00474040 f   msvcrt:MSVCR80.dll
 0001:00073046       _strcmp                    00474046 f   msvcrt:MSVCR80.dll
 0001:0007304c       _free                      0047404c f   msvcrt:MSVCR80.dll
 0001:00073052       _malloc                    00474052 f   msvcrt:MSVCR80.dll
 0001:00073058       _rand                      00474058 f   msvcrt:MSVCR80.dll
 0001:0007305e       _fmod                      0047405e f   msvcrt:MSVCR80.dll
 0001:00073064       _strcpy                    00474064 f   msvcrt:MSVCR80.dll
 0001:0007306a       _memcmp                    0047406a f   msvcrt:MSVCR80.dll
 0001:00073070       _strcat                    00474070 f   msvcrt:MSVCR80.dll
 0001:00073076       _pow                       00474076 f   msvcrt:MSVCR80.dll
 0001:0007331f       _mainCRTStartup            0047431f f   msvcrt:crtexe.obj
 0001:0007332c       __SEH_prolog4              0047432c f   msvcrt:sehprolg4.obj
 0001:00073371       __SEH_epilog4              00474371 f   msvcrt:sehprolg4.obj
 0001:00073385       __except_handler4          00474385 f   msvcrt:chandler4gs.obj
 0001:000733a8       ?terminate@@YAXXZ          004743a8 f   msvcrt:MSVCR80.dll
 0001:000733ae       __unlock                   004743ae f   msvcrt:MSVCR80.dll
 0001:000733b4       ___dllonexit               004743b4 f   msvcrt:MSVCR80.dll
 0001:000733ba       __lock                     004743ba f   msvcrt:MSVCR80.dll
 0001:000733c0       ?__CxxUnhandledExceptionFilter@@YGJPAU_EXCEPTION_POINTERS@@@Z 004743c0 f   msvcrt:unhandld.obj
 0001:000733fd       ___CxxSetUnhandledExceptionFilter 004743fd f   msvcrt:unhandld.obj
 0001:0007340c       __amsg_exit                0047440c f   msvcrt:MSVCR80.dll
 0001:00073412       __RTC_Initialize           00474412 f   msvcrt:initsect.obj
 0001:00073436       __RTC_Terminate            00474436 f   msvcrt:initsect.obj
 0001:0007345a       __XcptFilter               0047445a f   msvcrt:MSVCR80.dll
 0001:00073460       __ValidateImageBase        00474460 f   msvcrt:pesect.obj
 0001:00073490       __FindPESection            00474490 f   msvcrt:pesect.obj
 0001:000734e0       __IsNonwritableInCurrentImage 004744e0 f   msvcrt:pesect.obj
 0001:0007359c       __initterm                 0047459c f   msvcrt:MSVCR80.dll
 0001:000735a2       __initterm_e               004745a2 f   msvcrt:MSVCR80.dll
 0001:000735a8       __setdefaultprecision      004745a8 f   msvcrt:fp8.obj
 0001:000735d1       __matherr                  004745d1 f   msvcrt:merr.obj
 0001:000735d1       __setargv                  004745d1 f   msvcrt:dllargv.obj
 0001:000735d4       ___security_init_cookie    004745d4 f   msvcrt:gs_support.obj
 0001:00073668       @__security_check_cookie@4 00474668 f   msvcrt:secchk.obj
 0001:00073678       __except_handler4_common   00474678 f   msvcrt:MSVCR80.dll
 0001:0007367e       ??1type_info@@UAE@XZ       0047467e f   msvcrt:MSVCR80.dll
 0001:0007367e       ?_type_info_dtor_internal_method@type_info@@QAEXXZ 0047467e f   msvcrt:MSVCR80.dll
 0001:00073684       __invoke_watson            00474684 f   msvcrt:MSVCR80.dll
 0001:0007368a       __controlfp_s              0047468a f   msvcrt:MSVCR80.dll
 0001:00073690       ___report_gsfailure        00474690 f   msvcrt:gs_report.obj
 0001:00073794       __crt_debugger_hook        00474794 f   msvcrt:MSVCR80.dll
 0001:0007379a       _gluPerspective@32         0047479a f   glu32:GLU32.dll
 0001:000737a0       _gluScaleImage@36          004747a0 f   glu32:GLU32.dll
 0001:000737a6       _gluBuild2DMipmaps@28      004747a6 f   glu32:GLU32.dll
 0001:00073830       _main                      00474830 f   SDLmain:SDL_win32_main.obj
 0001:00073930       _SDL_GetTicks              00474930 f   SDL:SDL.dll
 0001:00073936       _SDL_SaveBMP_RW            00474936 f   SDL:SDL.dll
 0001:0007393c       _SDL_RWFromFile            0047493c f   SDL:SDL.dll
 0001:00073942       _SDL_FreeSurface           00474942 f   SDL:SDL.dll
 0001:00073948       _SDL_PollEvent             00474948 f   SDL:SDL.dll
 0001:0007394e       _SDL_AddTimer              0047494e f   SDL:SDL.dll
 0001:00073954       _SDL_RemoveTimer           00474954 f   SDL:SDL.dll
 0001:0007395a       _SDL_CreateRGBSurface      0047495a f   SDL:SDL.dll
 0001:00073960       _SDL_mutexP                00474960 f   SDL:SDL.dll
 0001:00073966       _SDL_mutexV                00474966 f   SDL:SDL.dll
 0001:0007396c       _SDL_GetThreadID           0047496c f   SDL:SDL.dll
 0001:00073972       _SDL_ThreadID              00474972 f   SDL:SDL.dll
 0001:00073978       _SDL_CondWait              00474978 f   SDL:SDL.dll
 0001:0007397e       _SDL_CondSignal            0047497e f   SDL:SDL.dll
 0001:00073984       _SDL_CreateMutex           00474984 f   SDL:SDL.dll
 0001:0007398a       _SDL_CreateCond            0047498a f   SDL:SDL.dll
 0001:00073990       _SDL_CreateThread          00474990 f   SDL:SDL.dll
 0001:00073996       _SDL_KillThread            00474996 f   SDL:SDL.dll
 0001:0007399c       _SDL_CondWaitTimeout       0047499c f   SDL:SDL.dll
 0001:000739a2       _SDL_EnableUNICODE         004749a2 f   SDL:SDL.dll
 0001:000739a8       _SDL_GL_GetProcAddress     004749a8 f   SDL:SDL.dll
 0001:000739ae       _SDL_UpperBlit             004749ae f   SDL:SDL.dll
 0001:000739b4       _SDL_GetModState           004749b4 f   SDL:SDL.dll
 0001:000739ba       _SDL_WM_GrabInput          004749ba f   SDL:SDL.dll
 0001:000739c0       _SDL_GL_SwapBuffers        004749c0 f   SDL:SDL.dll
 0001:000739c6       _SDL_SetGamma              004749c6 f   SDL:SDL.dll
 0001:000739cc       _SDL_GetError              004749cc f   SDL:SDL.dll
 0001:000739d2       _SDL_EnableKeyRepeat       004749d2 f   SDL:SDL.dll
 0001:000739d8       _SDL_ShowCursor            004749d8 f   SDL:SDL.dll
 0001:000739de       _SDL_Quit                  004749de f   SDL:SDL.dll
 0001:000739e4       _SDL_Delay                 004749e4 f   SDL:SDL.dll
 0001:000739ea       _SDL_Init                  004749ea f   SDL:SDL.dll
 0001:000739f0       _SDL_ListModes             004749f0 f   SDL:SDL.dll
 0001:000739f6       _SDL_VideoModeOK           004749f6 f   SDL:SDL.dll
 0001:000739fc       _SDL_GL_SetAttribute       004749fc f   SDL:SDL.dll
 0001:00073a02       _SDL_SetVideoMode          00474a02 f   SDL:SDL.dll
 0001:00073a08       _SDL_WM_SetCaption         00474a08 f   SDL:SDL.dll
 0001:00073a0e       _SDL_WarpMouse             00474a0e f   SDL:SDL.dll
 0001:00073a14       _SDL_JoystickOpen          00474a14 f   SDL:SDL.dll
 0001:00073a1a       _SDL_NumJoysticks          00474a1a f   SDL:SDL.dll
 0001:00073a20       _SDL_JoystickNumAxes       00474a20 f   SDL:SDL.dll
 0001:00073a26       _SDL_JoystickNumButtons    00474a26 f   SDL:SDL.dll
 0001:00073a2c       _SDL_JoystickNumHats       00474a2c f   SDL:SDL.dll
 0001:00073a32       _SDL_SetModuleHandle       00474a32 f   SDL:SDL.dll
 0001:00073a38       _SDL_strlcpy               00474a38 f   SDL:SDL.dll
 0001:00073a3e       _IMG_Load                  00474a3e f   SDL_image:SDL_image.dll
 0001:00073a44       ___WSAFDIsSet@8            00474a44 f   ws2_32:WS2_32.dll
 0001:00073a4a       _Mix_VolumeMusic           00474a4a f   SDL_mixer:SDL_mixer.dll
 0001:00073a50       _Mix_HaltMusic             00474a50 f   SDL_mixer:SDL_mixer.dll
 0001:00073a56       _Mix_FreeMusic             00474a56 f   SDL_mixer:SDL_mixer.dll
 0001:00073a5c       _Mix_OpenAudio             00474a5c f   SDL_mixer:SDL_mixer.dll
 0001:00073a62       _Mix_AllocateChannels      00474a62 f   SDL_mixer:SDL_mixer.dll
 0001:00073a68       _Mix_LoadMUS               00474a68 f   SDL_mixer:SDL_mixer.dll
 0001:00073a6e       _Mix_PlayMusic             00474a6e f   SDL_mixer:SDL_mixer.dll
 0001:00073a74       _Mix_CloseAudio            00474a74 f   SDL_mixer:SDL_mixer.dll
 0001:00073a7a       _Mix_Playing               00474a7a f   SDL_mixer:SDL_mixer.dll
 0001:00073a80       _Mix_HaltChannel           00474a80 f   SDL_mixer:SDL_mixer.dll
 0001:00073a86       _Mix_Volume                00474a86 f   SDL_mixer:SDL_mixer.dll
 0001:00073a8c       _Mix_SetPanning            00474a8c f   SDL_mixer:SDL_mixer.dll
 0001:00073a92       _Mix_PlayingMusic          00474a92 f   SDL_mixer:SDL_mixer.dll
 0001:00073a98       _Mix_LoadWAV_RW            00474a98 f   SDL_mixer:SDL_mixer.dll
 0001:00073a9e       _Mix_PlayChannelTimed      00474a9e f   SDL_mixer:SDL_mixer.dll
 0001:00073ab0       __alloca_probe_16          00474ab0 f   msvcrt:alloca16.obj
 0001:00073ac6       __alloca_probe_8           00474ac6     msvcrt:alloca16.obj
 0001:00073ae0       __chkstk                   00474ae0 f   msvcrt:chkstk.obj
 0001:00073ae0       __alloca_probe             00474ae0     msvcrt:chkstk.obj
 0001:00073b0c       ___CxxFrameHandler3        00474b0c f   msvcrt:MSVCR80.dll
 0001:00073b14       __EH_prolog                00474b14 f   msvcrt:ehprolog.obj
 0001:00073b40       __ftol2_sse                00474b40 f   msvcrt:ftol2.obj
 0001:00073b49       __ftol2_pentium4           00474b49 f   msvcrt:ftol2.obj
 0001:00073b5c       __ftol2_sse_excpt          00474b5c f   msvcrt:ftol2.obj
 0001:00073b76       __ftol2                    00474b76 f   msvcrt:ftol2.obj
 0001:00073bec       __SEH_prolog               00474bec f   msvcrt:sehprolg.obj
 0001:00073c27       __SEH_epilog               00474c27 f   msvcrt:sehprolg.obj
 0001:00073c38       __except_handler3          00474c38 f   msvcrt:MSVCR80.dll
 0001:00073c8e       __get_sse2_info            00474c8e f   msvcrt:cpu_disp.obj
 0001:00073cee       ___sse2_available_init     00474cee f   msvcrt:cpu_disp.obj
 0001:0007ac3f       ??__Fmeshgroups@?1??sharemeshes@vertmodel@@QAEPAUmeshgroup@1@PAD@Z@YAXXZ 0047bc3f f i rendermodel.obj
 0001:0007b0cb       ??__Fivar_watervel@?6???0physics@fpsclient@@QAE@AAU1@@Z@YAXXZ 0047c0cb f i fps.obj
 0001:0007b0d6       ??__Fivar_watertype@?5???0physics@fpsclient@@QAE@AAU1@@Z@YAXXZ 0047c0d6 f i fps.obj
 0001:0007b0e1       ??__Fivar_jumpvel@?4???0physics@fpsclient@@QAE@AAU1@@Z@YAXXZ 0047c0e1 f i fps.obj
 0001:0007b0ec       ??__Fivar_speed@?3???0physics@fpsclient@@QAE@AAU1@@Z@YAXXZ 0047c0ec f i fps.obj
 0001:0007b0f7       ??__Fivar_gravity@?2???0physics@fpsclient@@QAE@AAU1@@Z@YAXXZ 0047c0f7 f i fps.obj
 0002:00000000       __imp__gluPerspective@32   0047d000     glu32:GLU32.dll
 0002:00000004       __imp__gluBuild2DMipmaps@28 0047d004     glu32:GLU32.dll
 0002:00000008       __imp__gluScaleImage@36    0047d008     glu32:GLU32.dll
 0002:0000000c       \177GLU32_NULL_THUNK_DATA  0047d00c     glu32:GLU32.dll
 0002:00000010       __imp__GlobalLock@4        0047d010     kernel32:KERNEL32.dll
 0002:00000014       __imp__GetCurrentProcess@0 0047d014     kernel32:KERNEL32.dll
 0002:00000018       __imp__GetCurrentThread@0  0047d018     kernel32:KERNEL32.dll
 0002:0000001c       __imp__FindNextFileA@8     0047d01c     kernel32:KERNEL32.dll
 0002:00000020       __imp__GetFileAttributesA@4 0047d020     kernel32:KERNEL32.dll
 0002:00000024       __imp__CreateDirectoryA@8  0047d024     kernel32:KERNEL32.dll
 0002:00000028       __imp__FindFirstFileA@8    0047d028     kernel32:KERNEL32.dll
 0002:0000002c       __imp__InterlockedExchange@8 0047d02c     kernel32:KERNEL32.dll
 0002:00000030       __imp__Sleep@4             0047d030     kernel32:KERNEL32.dll
 0002:00000034       __imp__InterlockedCompareExchange@12 0047d034     kernel32:KERNEL32.dll
 0002:00000038       __imp__SetUnhandledExceptionFilter@4 0047d038     kernel32:KERNEL32.dll
 0002:0000003c       __imp__QueryPerformanceCounter@4 0047d03c     kernel32:KERNEL32.dll
 0002:00000040       __imp__GetTickCount@0      0047d040     kernel32:KERNEL32.dll
 0002:00000044       __imp__GetCurrentThreadId@0 0047d044     kernel32:KERNEL32.dll
 0002:00000048       __imp__GetCurrentProcessId@0 0047d048     kernel32:KERNEL32.dll
 0002:0000004c       __imp__GetSystemTimeAsFileTime@4 0047d04c     kernel32:KERNEL32.dll
 0002:00000050       __imp__TerminateProcess@8  0047d050     kernel32:KERNEL32.dll
 0002:00000054       __imp__UnhandledExceptionFilter@4 0047d054     kernel32:KERNEL32.dll
 0002:00000058       __imp__IsDebuggerPresent@0 0047d058     kernel32:KERNEL32.dll
 0002:0000005c       __imp__GetModuleHandleA@4  0047d05c     kernel32:KERNEL32.dll
 0002:00000060       __imp__GlobalUnlock@4      0047d060     kernel32:KERNEL32.dll
 0002:00000064       \177KERNEL32_NULL_THUNK_DATA 0047d064     kernel32:KERNEL32.dll
 0002:00000068       __imp___time64             0047d068     msvcrt:MSVCR80.dll
 0002:0000006c       __imp__isspace             0047d06c     msvcrt:MSVCR80.dll
 0002:00000070       __imp__isprint             0047d070     msvcrt:MSVCR80.dll
 0002:00000074       __imp__fseek               0047d074     msvcrt:MSVCR80.dll
 0002:00000078       __imp__ftell               0047d078     msvcrt:MSVCR80.dll
 0002:0000007c       __imp__rewind              0047d07c     msvcrt:MSVCR80.dll
 0002:00000080       __imp__isdigit             0047d080     msvcrt:MSVCR80.dll
 0002:00000084       __imp__fread               0047d084     msvcrt:MSVCR80.dll
 0002:00000088       __imp__puts                0047d088     msvcrt:MSVCR80.dll
 0002:0000008c       __imp__atoi                0047d08c     msvcrt:MSVCR80.dll
 0002:00000090       __imp__free                0047d090     msvcrt:MSVCR80.dll
 0002:00000094       __imp__malloc              0047d094     msvcrt:MSVCR80.dll
 0002:00000098       __imp__abort               0047d098     msvcrt:MSVCR80.dll
 0002:0000009c       __imp__rand                0047d09c     msvcrt:MSVCR80.dll
 0002:000000a0       __imp__perror              0047d0a0     msvcrt:MSVCR80.dll
 0002:000000a4       __imp__floor               0047d0a4     msvcrt:MSVCR80.dll
 0002:000000a8       __imp__fmod                0047d0a8     msvcrt:MSVCR80.dll
 0002:000000ac       __imp__strcpy              0047d0ac     msvcrt:MSVCR80.dll
 0002:000000b0       __imp__strchr              0047d0b0     msvcrt:MSVCR80.dll
 0002:000000b4       __imp__tolower             0047d0b4     msvcrt:MSVCR80.dll
 0002:000000b8       __imp__strspn              0047d0b8     msvcrt:MSVCR80.dll
 0002:000000bc       __imp__sscanf              0047d0bc     msvcrt:MSVCR80.dll
 0002:000000c0       __imp__strcspn             0047d0c0     msvcrt:MSVCR80.dll
 0002:000000c4       __imp__putchar             0047d0c4     msvcrt:MSVCR80.dll
 0002:000000c8       __imp__strtol              0047d0c8     msvcrt:MSVCR80.dll
 0002:000000cc       __imp__memcmp              0047d0cc     msvcrt:MSVCR80.dll
 0002:000000d0       __imp__fwrite              0047d0d0     msvcrt:MSVCR80.dll
 0002:000000d4       __imp__atof                0047d0d4     msvcrt:MSVCR80.dll
 0002:000000d8       __imp__fputc               0047d0d8     msvcrt:MSVCR80.dll
 0002:000000dc       __imp___localtime64        0047d0dc     msvcrt:MSVCR80.dll
 0002:000000e0       __imp__strftime            0047d0e0     msvcrt:MSVCR80.dll
 0002:000000e4       __imp__isalnum             0047d0e4     msvcrt:MSVCR80.dll
 0002:000000e8       __imp__strcat              0047d0e8     msvcrt:MSVCR80.dll
 0002:000000ec       __imp__memchr              0047d0ec     msvcrt:MSVCR80.dll
 0002:000000f0       __imp__toupper             0047d0f0     msvcrt:MSVCR80.dll
 0002:000000f4       __imp__strpbrk             0047d0f4     msvcrt:MSVCR80.dll
 0002:000000f8       __imp__exit                0047d0f8     msvcrt:MSVCR80.dll
 0002:000000fc       __imp__setbuf              0047d0fc     msvcrt:MSVCR80.dll
 0002:00000100       __imp____iob_func          0047d100     msvcrt:MSVCR80.dll
 0002:00000104       __imp__fopen               0047d104     msvcrt:MSVCR80.dll
 0002:00000108       __imp__pow                 0047d108     msvcrt:MSVCR80.dll
 0002:0000010c       __imp___ctime64            0047d10c     msvcrt:MSVCR80.dll
 0002:00000110       __imp__tmpfile             0047d110     msvcrt:MSVCR80.dll
 0002:00000114       __imp__sprintf             0047d114     msvcrt:MSVCR80.dll
 0002:00000118       __imp_?terminate@@YAXXZ    0047d118     msvcrt:MSVCR80.dll
 0002:0000011c       __imp___unlock             0047d11c     msvcrt:MSVCR80.dll
 0002:00000120       __imp____dllonexit         0047d120     msvcrt:MSVCR80.dll
 0002:00000124       __imp___encode_pointer     0047d124     msvcrt:MSVCR80.dll
 0002:00000128       __imp___lock               0047d128     msvcrt:MSVCR80.dll
 0002:0000012c       __imp___onexit             0047d12c     msvcrt:MSVCR80.dll
 0002:00000130       __imp___decode_pointer     0047d130     msvcrt:MSVCR80.dll
 0002:00000134       __imp___amsg_exit          0047d134     msvcrt:MSVCR80.dll
 0002:00000138       __imp____getmainargs       0047d138     msvcrt:MSVCR80.dll
 0002:0000013c       __imp___cexit              0047d13c     msvcrt:MSVCR80.dll
 0002:00000140       __imp___exit               0047d140     msvcrt:MSVCR80.dll
 0002:00000144       __imp___XcptFilter         0047d144     msvcrt:MSVCR80.dll
 0002:00000148       __imp____initenv           0047d148     msvcrt:MSVCR80.dll
 0002:0000014c       __imp___initterm           0047d14c     msvcrt:MSVCR80.dll
 0002:00000150       __imp___initterm_e         0047d150     msvcrt:MSVCR80.dll
 0002:00000154       __imp___configthreadlocale 0047d154     msvcrt:MSVCR80.dll
 0002:00000158       __imp____setusermatherr    0047d158     msvcrt:MSVCR80.dll
 0002:0000015c       __imp___adjust_fdiv        0047d15c     msvcrt:MSVCR80.dll
 0002:00000160       __imp____p__commode        0047d160     msvcrt:MSVCR80.dll
 0002:00000164       __imp____p__fmode          0047d164     msvcrt:MSVCR80.dll
 0002:00000168       __imp____set_app_type      0047d168     msvcrt:MSVCR80.dll
 0002:0000016c       __imp___except_handler4_common 0047d16c     msvcrt:MSVCR80.dll
 0002:00000170       __imp_?_type_info_dtor_internal_method@type_info@@QAEXXZ 0047d170     msvcrt:MSVCR80.dll
 0002:00000174       __imp___invoke_watson      0047d174     msvcrt:MSVCR80.dll
 0002:00000178       __imp___controlfp_s        0047d178     msvcrt:MSVCR80.dll
 0002:0000017c       __imp___crt_debugger_hook  0047d17c     msvcrt:MSVCR80.dll
 0002:00000180       __imp____CxxFrameHandler3  0047d180     msvcrt:MSVCR80.dll
 0002:00000184       __imp__strstr              0047d184     msvcrt:MSVCR80.dll
 0002:00000188       __imp__rename              0047d188     msvcrt:MSVCR80.dll
 0002:0000018c       __imp__remove              0047d18c     msvcrt:MSVCR80.dll
 0002:00000190       __imp__fclose              0047d190     msvcrt:MSVCR80.dll
 0002:00000194       __imp__fprintf             0047d194     msvcrt:MSVCR80.dll
 0002:00000198       __imp__strcmp              0047d198     msvcrt:MSVCR80.dll
 0002:0000019c       __imp__strlen              0047d19c     msvcrt:MSVCR80.dll
 0002:000001a0       __imp__strncpy             0047d1a0     msvcrt:MSVCR80.dll
 0002:000001a4       __imp__asin                0047d1a4     msvcrt:MSVCR80.dll
 0002:000001a8       __imp__atan2               0047d1a8     msvcrt:MSVCR80.dll
 0002:000001ac       __imp___purecall           0047d1ac     msvcrt:MSVCR80.dll
 0002:000001b0       __imp__printf              0047d1b0     msvcrt:MSVCR80.dll
 0002:000001b4       __imp__memmove             0047d1b4     msvcrt:MSVCR80.dll
 0002:000001b8       __imp__abs                 0047d1b8     msvcrt:MSVCR80.dll
 0002:000001bc       __imp__qsort               0047d1bc     msvcrt:MSVCR80.dll
 0002:000001c0       __imp__ceil                0047d1c0     msvcrt:MSVCR80.dll
 0002:000001c4       __imp__fabs                0047d1c4     msvcrt:MSVCR80.dll
 0002:000001c8       __imp__strrchr             0047d1c8     msvcrt:MSVCR80.dll
 0002:000001cc       __imp__strncmp             0047d1cc     msvcrt:MSVCR80.dll
 0002:000001d0       __imp_??3@YAXPAX@Z         0047d1d0     msvcrt:MSVCR80.dll
 0002:000001d4       __imp_??2@YAPAXI@Z         0047d1d4     msvcrt:MSVCR80.dll
 0002:000001d8       __imp__memset              0047d1d8     msvcrt:MSVCR80.dll
 0002:000001dc       __imp__cos                 0047d1dc     msvcrt:MSVCR80.dll
 0002:000001e0       __imp__memcpy              0047d1e0     msvcrt:MSVCR80.dll
 0002:000001e4       __imp__sqrt                0047d1e4     msvcrt:MSVCR80.dll
 0002:000001e8       __imp__sin                 0047d1e8     msvcrt:MSVCR80.dll
 0002:000001ec       __imp__exp                 0047d1ec     msvcrt:MSVCR80.dll
 0002:000001f0       __imp___stricmp            0047d1f0     msvcrt:MSVCR80.dll
 0002:000001f4       __imp___vsnprintf          0047d1f4     msvcrt:MSVCR80.dll
 0002:000001f8       __imp___except_handler3    0047d1f8     msvcrt:MSVCR80.dll
 0002:000001fc       \177MSVCR80_NULL_THUNK_DATA 0047d1fc     msvcrt:MSVCR80.dll
 0002:00000200       __imp__glLoadIdentity@0    0047d200     opengl32:OPENGL32.dll
 0002:00000204       __imp__glLoadMatrixf@4     0047d204     opengl32:OPENGL32.dll
 0002:00000208       __imp__glDeleteTextures@8  0047d208     opengl32:OPENGL32.dll
 0002:0000020c       __imp__glPopMatrix@0       0047d20c     opengl32:OPENGL32.dll
 0002:00000210       __imp__glEnable@4          0047d210     opengl32:OPENGL32.dll
 0002:00000214       __imp__glTexSubImage2D@36  0047d214     opengl32:OPENGL32.dll
 0002:00000218       __imp__glVertex3fv@4       0047d218     opengl32:OPENGL32.dll
 0002:0000021c       __imp__glBlendFunc@8       0047d21c     opengl32:OPENGL32.dll
 0002:00000220       __imp__glColor3ub@12       0047d220     opengl32:OPENGL32.dll
 0002:00000224       __imp__glDepthMask@4       0047d224     opengl32:OPENGL32.dll
 0002:00000228       __imp__glColor4f@16        0047d228     opengl32:OPENGL32.dll
 0002:0000022c       __imp__glLineWidth@4       0047d22c     opengl32:OPENGL32.dll
 0002:00000230       __imp__glPolygonMode@8     0047d230     opengl32:OPENGL32.dll
 0002:00000234       __imp__glDepthFunc@4       0047d234     opengl32:OPENGL32.dll
 0002:00000238       __imp__glColor3fv@4        0047d238     opengl32:OPENGL32.dll
 0002:0000023c       __imp__glTexCoord2iv@4     0047d23c     opengl32:OPENGL32.dll
 0002:00000240       __imp__glColor4ub@16       0047d240     opengl32:OPENGL32.dll
 0002:00000244       __imp__glColor3ubv@4       0047d244     opengl32:OPENGL32.dll
 0002:00000248       __imp__glAlphaFunc@8       0047d248     opengl32:OPENGL32.dll
 0002:0000024c       __imp__glFogfv@8           0047d24c     opengl32:OPENGL32.dll
 0002:00000250       __imp__glGetFloatv@8       0047d250     opengl32:OPENGL32.dll
 0002:00000254       __imp__glTexCoord3f@12     0047d254     opengl32:OPENGL32.dll
 0002:00000258       __imp__glNormal3fv@4       0047d258     opengl32:OPENGL32.dll
 0002:0000025c       __imp__glColor4ubv@4       0047d25c     opengl32:OPENGL32.dll
 0002:00000260       __imp__glTexCoord2d@16     0047d260     opengl32:OPENGL32.dll
 0002:00000264       __imp__glClipPlane@8       0047d264     opengl32:OPENGL32.dll
 0002:00000268       __imp__glGetClipPlane@8    0047d268     opengl32:OPENGL32.dll
 0002:0000026c       __imp__glClearDepth@8      0047d26c     opengl32:OPENGL32.dll
 0002:00000270       __imp__glShadeModel@4      0047d270     opengl32:OPENGL32.dll
 0002:00000274       __imp__glFogi@8            0047d274     opengl32:OPENGL32.dll
 0002:00000278       __imp__glFogf@8            0047d278     opengl32:OPENGL32.dll
 0002:0000027c       __imp__glHint@8            0047d27c     opengl32:OPENGL32.dll
 0002:00000280       __imp__glPolygonOffset@8   0047d280     opengl32:OPENGL32.dll
 0002:00000284       __imp__glCullFace@4        0047d284     opengl32:OPENGL32.dll
 0002:00000288       __imp__glVertex3f@12       0047d288     opengl32:OPENGL32.dll
 0002:0000028c       __imp__glGetString@4       0047d28c     opengl32:OPENGL32.dll
 0002:00000290       __imp__glGetIntegerv@8     0047d290     opengl32:OPENGL32.dll
 0002:00000294       __imp__glEnableClientState@4 0047d294     opengl32:OPENGL32.dll
 0002:00000298       __imp__glCopyTexSubImage2D@32 0047d298     opengl32:OPENGL32.dll
 0002:0000029c       __imp__glDrawElements@16   0047d29c     opengl32:OPENGL32.dll
 0002:000002a0       __imp__glDeleteLists@8     0047d2a0     opengl32:OPENGL32.dll
 0002:000002a4       __imp__glStencilOp@12      0047d2a4     opengl32:OPENGL32.dll
 0002:000002a8       __imp__glCallList@4        0047d2a8     opengl32:OPENGL32.dll
 0002:000002ac       __imp__glVertexPointer@16  0047d2ac     opengl32:OPENGL32.dll
 0002:000002b0       __imp__glLightModelfv@8    0047d2b0     opengl32:OPENGL32.dll
 0002:000002b4       __imp__glEndList@0         0047d2b4     opengl32:OPENGL32.dll
 0002:000002b8       __imp__glTexGeni@12        0047d2b8     opengl32:OPENGL32.dll
 0002:000002bc       __imp__glDisableClientState@4 0047d2bc     opengl32:OPENGL32.dll
 0002:000002c0       __imp__glMultMatrixf@4     0047d2c0     opengl32:OPENGL32.dll
 0002:000002c4       __imp__glStencilFunc@12    0047d2c4     opengl32:OPENGL32.dll
 0002:000002c8       __imp__glNewList@8         0047d2c8     opengl32:OPENGL32.dll
 0002:000002cc       __imp__glMaterialfv@12     0047d2cc     opengl32:OPENGL32.dll
 0002:000002d0       __imp__glFlush@0           0047d2d0     opengl32:OPENGL32.dll
 0002:000002d4       __imp__glGenLists@4        0047d2d4     opengl32:OPENGL32.dll
 0002:000002d8       __imp__glTexCoordPointer@16 0047d2d8     opengl32:OPENGL32.dll
 0002:000002dc       __imp__glNormalPointer@12  0047d2dc     opengl32:OPENGL32.dll
 0002:000002e0       __imp__glVertex3i@12       0047d2e0     opengl32:OPENGL32.dll
 0002:000002e4       __imp__glColorPointer@16   0047d2e4     opengl32:OPENGL32.dll
 0002:000002e8       __imp__glTexGenfv@12       0047d2e8     opengl32:OPENGL32.dll
 0002:000002ec       __imp__glTexCoord2i@8      0047d2ec     opengl32:OPENGL32.dll
 0002:000002f0       __imp__glTexEnvi@12        0047d2f0     opengl32:OPENGL32.dll
 0002:000002f4       __imp__glTexEnvfv@12       0047d2f4     opengl32:OPENGL32.dll
 0002:000002f8       __imp__glPixelStorei@8     0047d2f8     opengl32:OPENGL32.dll
 0002:000002fc       __imp__glGetTexImage@20    0047d2fc     opengl32:OPENGL32.dll
 0002:00000300       __imp__glTexParameteri@12  0047d300     opengl32:OPENGL32.dll
 0002:00000304       __imp__glReadPixels@28     0047d304     opengl32:OPENGL32.dll
 0002:00000308       __imp__glGetTexLevelParameteriv@16 0047d308     opengl32:OPENGL32.dll
 0002:0000030c       __imp__glTexImage2D@36     0047d30c     opengl32:OPENGL32.dll
 0002:00000310       __imp__glDepthRange@16     0047d310     opengl32:OPENGL32.dll
 0002:00000314       __imp__glColor3d@24        0047d314     opengl32:OPENGL32.dll
 0002:00000318       __imp__glScalef@12         0047d318     opengl32:OPENGL32.dll
 0002:0000031c       __imp__glVertex2i@8        0047d31c     opengl32:OPENGL32.dll
 0002:00000320       __imp__glScissor@16        0047d320     opengl32:OPENGL32.dll
 0002:00000324       __imp__glGetDoublev@8      0047d324     opengl32:OPENGL32.dll
 0002:00000328       __imp__glEnd@0             0047d328     opengl32:OPENGL32.dll
 0002:0000032c       __imp__glDisable@4         0047d32c     opengl32:OPENGL32.dll
 0002:00000330       __imp__glMatrixMode@4      0047d330     opengl32:OPENGL32.dll
 0002:00000334       __imp__glVertex2f@8        0047d334     opengl32:OPENGL32.dll
 0002:00000338       __imp__glMultMatrixd@4     0047d338     opengl32:OPENGL32.dll
 0002:0000033c       __imp__glBegin@4           0047d33c     opengl32:OPENGL32.dll
 0002:00000340       __imp__glViewport@16       0047d340     opengl32:OPENGL32.dll
 0002:00000344       __imp__glPushMatrix@0      0047d344     opengl32:OPENGL32.dll
 0002:00000348       __imp__glClear@4           0047d348     opengl32:OPENGL32.dll
 0002:0000034c       __imp__glRotatef@16        0047d34c     opengl32:OPENGL32.dll
 0002:00000350       __imp__glOrtho@48          0047d350     opengl32:OPENGL32.dll
 0002:00000354       __imp__glBindTexture@8     0047d354     opengl32:OPENGL32.dll
 0002:00000358       __imp__glGenTextures@8     0047d358     opengl32:OPENGL32.dll
 0002:0000035c       __imp__glTexCoord2f@8      0047d35c     opengl32:OPENGL32.dll
 0002:00000360       __imp__glColor3f@12        0047d360     opengl32:OPENGL32.dll
 0002:00000364       __imp__glClearColor@16     0047d364     opengl32:OPENGL32.dll
 0002:00000368       __imp__glTranslatef@12     0047d368     opengl32:OPENGL32.dll
 0002:0000036c       __imp__glColorMask@16      0047d36c     opengl32:OPENGL32.dll
 0002:00000370       __imp__glLightfv@12        0047d370     opengl32:OPENGL32.dll
 0002:00000374       \177OPENGL32_NULL_THUNK_DATA 0047d374     opengl32:OPENGL32.dll
 0002:00000378       __imp__SDL_EnableUNICODE   0047d378     SDL:SDL.dll
 0002:0000037c       __imp__SDL_GL_GetProcAddress 0047d37c     SDL:SDL.dll
 0002:00000380       __imp__SDL_UpperBlit       0047d380     SDL:SDL.dll
 0002:00000384       __imp__SDL_GetModState     0047d384     SDL:SDL.dll
 0002:00000388       __imp__SDL_WM_GrabInput    0047d388     SDL:SDL.dll
 0002:0000038c       __imp__SDL_GL_SwapBuffers  0047d38c     SDL:SDL.dll
 0002:00000390       __imp__SDL_SetGamma        0047d390     SDL:SDL.dll
 0002:00000394       __imp__SDL_GetError        0047d394     SDL:SDL.dll
 0002:00000398       __imp__SDL_EnableKeyRepeat 0047d398     SDL:SDL.dll
 0002:0000039c       __imp__SDL_CondWaitTimeout 0047d39c     SDL:SDL.dll
 0002:000003a0       __imp__SDL_Quit            0047d3a0     SDL:SDL.dll
 0002:000003a4       __imp__SDL_Delay           0047d3a4     SDL:SDL.dll
 0002:000003a8       __imp__SDL_Init            0047d3a8     SDL:SDL.dll
 0002:000003ac       __imp__SDL_ListModes       0047d3ac     SDL:SDL.dll
 0002:000003b0       __imp__SDL_VideoModeOK     0047d3b0     SDL:SDL.dll
 0002:000003b4       __imp__SDL_GL_SetAttribute 0047d3b4     SDL:SDL.dll
 0002:000003b8       __imp__SDL_SetVideoMode    0047d3b8     SDL:SDL.dll
 0002:000003bc       __imp__SDL_WM_SetCaption   0047d3bc     SDL:SDL.dll
 0002:000003c0       __imp__SDL_WarpMouse       0047d3c0     SDL:SDL.dll
 0002:000003c4       __imp__SDL_JoystickOpen    0047d3c4     SDL:SDL.dll
 0002:000003c8       __imp__SDL_NumJoysticks    0047d3c8     SDL:SDL.dll
 0002:000003cc       __imp__SDL_JoystickNumAxes 0047d3cc     SDL:SDL.dll
 0002:000003d0       __imp__SDL_JoystickNumButtons 0047d3d0     SDL:SDL.dll
 0002:000003d4       __imp__SDL_JoystickNumHats 0047d3d4     SDL:SDL.dll
 0002:000003d8       __imp__SDL_SetModuleHandle 0047d3d8     SDL:SDL.dll
 0002:000003dc       __imp__SDL_strlcpy         0047d3dc     SDL:SDL.dll
 0002:000003e0       __imp__SDL_GetTicks        0047d3e0     SDL:SDL.dll
 0002:000003e4       __imp__SDL_SaveBMP_RW      0047d3e4     SDL:SDL.dll
 0002:000003e8       __imp__SDL_RWFromFile      0047d3e8     SDL:SDL.dll
 0002:000003ec       __imp__SDL_FreeSurface     0047d3ec     SDL:SDL.dll
 0002:000003f0       __imp__SDL_PollEvent       0047d3f0     SDL:SDL.dll
 0002:000003f4       __imp__SDL_AddTimer        0047d3f4     SDL:SDL.dll
 0002:000003f8       __imp__SDL_RemoveTimer     0047d3f8     SDL:SDL.dll
 0002:000003fc       __imp__SDL_CreateRGBSurface 0047d3fc     SDL:SDL.dll
 0002:00000400       __imp__SDL_mutexP          0047d400     SDL:SDL.dll
 0002:00000404       __imp__SDL_mutexV          0047d404     SDL:SDL.dll
 0002:00000408       __imp__SDL_GetThreadID     0047d408     SDL:SDL.dll
 0002:0000040c       __imp__SDL_ThreadID        0047d40c     SDL:SDL.dll
 0002:00000410       __imp__SDL_CondWait        0047d410     SDL:SDL.dll
 0002:00000414       __imp__SDL_CondSignal      0047d414     SDL:SDL.dll
 0002:00000418       __imp__SDL_CreateMutex     0047d418     SDL:SDL.dll
 0002:0000041c       __imp__SDL_CreateCond      0047d41c     SDL:SDL.dll
 0002:00000420       __imp__SDL_CreateThread    0047d420     SDL:SDL.dll
 0002:00000424       __imp__SDL_KillThread      0047d424     SDL:SDL.dll
 0002:00000428       __imp__SDL_ShowCursor      0047d428     SDL:SDL.dll
 0002:0000042c       \177SDL_NULL_THUNK_DATA    0047d42c     SDL:SDL.dll
 0002:00000430       __imp__IMG_Load            0047d430     SDL_image:SDL_image.dll
 0002:00000434       \177SDL_image_NULL_THUNK_DATA 0047d434     SDL_image:SDL_image.dll
 0002:00000438       __imp__Mix_OpenAudio       0047d438     SDL_mixer:SDL_mixer.dll
 0002:0000043c       __imp__Mix_PlayChannelTimed 0047d43c     SDL_mixer:SDL_mixer.dll
 0002:00000440       __imp__Mix_LoadWAV_RW      0047d440     SDL_mixer:SDL_mixer.dll
 0002:00000444       __imp__Mix_PlayingMusic    0047d444     SDL_mixer:SDL_mixer.dll
 0002:00000448       __imp__Mix_VolumeMusic     0047d448     SDL_mixer:SDL_mixer.dll
 0002:0000044c       __imp__Mix_HaltMusic       0047d44c     SDL_mixer:SDL_mixer.dll
 0002:00000450       __imp__Mix_FreeMusic       0047d450     SDL_mixer:SDL_mixer.dll
 0002:00000454       __imp__Mix_SetPanning      0047d454     SDL_mixer:SDL_mixer.dll
 0002:00000458       __imp__Mix_AllocateChannels 0047d458     SDL_mixer:SDL_mixer.dll
 0002:0000045c       __imp__Mix_LoadMUS         0047d45c     SDL_mixer:SDL_mixer.dll
 0002:00000460       __imp__Mix_PlayMusic       0047d460     SDL_mixer:SDL_mixer.dll
 0002:00000464       __imp__Mix_CloseAudio      0047d464     SDL_mixer:SDL_mixer.dll
 0002:00000468       __imp__Mix_Playing         0047d468     SDL_mixer:SDL_mixer.dll
 0002:0000046c       __imp__Mix_HaltChannel     0047d46c     SDL_mixer:SDL_mixer.dll
 0002:00000470       __imp__Mix_Volume          0047d470     SDL_mixer:SDL_mixer.dll
 0002:00000474       \177SDL_mixer_NULL_THUNK_DATA 0047d474     SDL_mixer:SDL_mixer.dll
 0002:00000478       __imp__IsClipboardFormatAvailable@4 0047d478     user32:USER32.dll
 0002:0000047c       __imp__OpenClipboard@4     0047d47c     user32:USER32.dll
 0002:00000480       __imp__GetClipboardData@4  0047d480     user32:USER32.dll
 0002:00000484       __imp__CloseClipboard@0    0047d484     user32:USER32.dll
 0002:00000488       __imp__MessageBoxA@16      0047d488     user32:USER32.dll
 0002:0000048c       \177USER32_NULL_THUNK_DATA 0047d48c     user32:USER32.dll
 0002:00000490       __imp__timeGetTime@0       0047d490     winmm:WINMM.dll
 0002:00000494       __imp__timeBeginPeriod@4   0047d494     winmm:WINMM.dll
 0002:00000498       \177WINMM_NULL_THUNK_DATA  0047d498     winmm:WINMM.dll
 0002:0000049c       __imp__WSARecvFrom@36      0047d49c     ws2_32:WS2_32.dll
 0002:000004a0       __imp__WSAGetLastError@0   0047d4a0     ws2_32:WS2_32.dll
 0002:000004a4       __imp__setsockopt@20       0047d4a4     ws2_32:WS2_32.dll
 0002:000004a8       __imp__WSACleanup@0        0047d4a8     ws2_32:WS2_32.dll
 0002:000004ac       __imp__socket@12           0047d4ac     ws2_32:WS2_32.dll
 0002:000004b0       __imp__closesocket@4       0047d4b0     ws2_32:WS2_32.dll
 0002:000004b4       __imp__gethostbyname@4     0047d4b4     ws2_32:WS2_32.dll
 0002:000004b8       __imp__listen@8            0047d4b8     ws2_32:WS2_32.dll
 0002:000004bc       __imp__ioctlsocket@12      0047d4bc     ws2_32:WS2_32.dll
 0002:000004c0       __imp__connect@12          0047d4c0     ws2_32:WS2_32.dll
 0002:000004c4       __imp__inet_ntoa@4         0047d4c4     ws2_32:WS2_32.dll
 0002:000004c8       __imp__WSASendTo@36        0047d4c8     ws2_32:WS2_32.dll
 0002:000004cc       __imp__WSAStartup@8        0047d4cc     ws2_32:WS2_32.dll
 0002:000004d0       __imp__inet_addr@4         0047d4d0     ws2_32:WS2_32.dll
 0002:000004d4       __imp__select@20           0047d4d4     ws2_32:WS2_32.dll
 0002:000004d8       __imp__ntohl@4             0047d4d8     ws2_32:WS2_32.dll
 0002:000004dc       __imp__ntohs@4             0047d4dc     ws2_32:WS2_32.dll
 0002:000004e0       __imp__htonl@4             0047d4e0     ws2_32:WS2_32.dll
 0002:000004e4       __imp__htons@4             0047d4e4     ws2_32:WS2_32.dll
 0002:000004e8       __imp__bind@12             0047d4e8     ws2_32:WS2_32.dll
 0002:000004ec       __imp____WSAFDIsSet@8      0047d4ec     ws2_32:WS2_32.dll
 0002:000004f0       \177WS2_32_NULL_THUNK_DATA 0047d4f0     ws2_32:WS2_32.dll
 0002:000004f4       __imp__SymGetLineFromAddr@16 0047d4f4     dbghelp:dbghelp.dll
 0002:000004f8       __imp__SymInitialize@12    0047d4f8     dbghelp:dbghelp.dll
 0002:000004fc       __imp__StackWalk@36        0047d4fc     dbghelp:dbghelp.dll
 0002:00000500       __imp__SymGetModuleBase@8  0047d500     dbghelp:dbghelp.dll
 0002:00000504       __imp__SymFunctionTableAccess@8 0047d504     dbghelp:dbghelp.dll
 0002:00000508       __imp__SymGetSymFromAddr@16 0047d508     dbghelp:dbghelp.dll
 0002:0000050c       \177dbghelp_NULL_THUNK_DATA 0047d50c     dbghelp:dbghelp.dll
 0002:00000510       __imp__gzread              0047d510     zdll:zlib1.dll
 0002:00000514       __imp__gzclose             0047d514     zdll:zlib1.dll
 0002:00000518       __imp__gzwrite             0047d518     zdll:zlib1.dll
 0002:0000051c       __imp__gzputc              0047d51c     zdll:zlib1.dll
 0002:00000520       __imp__gzopen              0047d520     zdll:zlib1.dll
 0002:00000524       __imp__gzseek              0047d524     zdll:zlib1.dll
 0002:00000528       __imp__gzgetc              0047d528     zdll:zlib1.dll
 0002:0000052c       \177zlib1_NULL_THUNK_DATA  0047d52c     zdll:zlib1.dll
 0002:00000530       ___xc_a                    0047d530     msvcrt:cinitexe.obj
 0002:00000de0       ___xc_z                    0047dde0     msvcrt:cinitexe.obj
 0002:00000de4       ___xi_a                    0047dde4     msvcrt:cinitexe.obj
 0002:00000df4       ___xi_z                    0047ddf4     msvcrt:cinitexe.obj
 0002:00000e20       ??_7type_info@@6B@         0047de20     msvcrt:ti_inst.obj
 0002:00000e2c       ??_C@_07KJFPOMFC@?$CFs?3?5?$CFs?6?$AA@ 0047de2c     SDLmain:SDL_win32_main.obj
 0002:00000e34       ??_C@_0M@HFFOIJBL@Fatal?5Error?$AA@ 0047de34     SDLmain:SDL_win32_main.obj
 0002:00000e40       ??_C@_0BJ@HFNMHALN@Out?5of?5memory?5?9?5aborting?$AA@ 0047de40     SDLmain:SDL_win32_main.obj
 0002:00000e5c       ??_C@_0BA@KMDNPDDA@WinMain?$CI?$CJ?5error?$AA@ 0047de5c     SDLmain:SDL_win32_main.obj
 0002:00001164       ?skiny@gui@@2QBHB          0047e164     3dgui.obj
 0002:0000118c       ?skinx@gui@@2QBHB          0047e18c     3dgui.obj
 0002:000011c8       ?patches@gui@@2QBUpatch@1@B 0047e1c8     3dgui.obj
 0002:00001418       ?fv@@3QAY03$$CBGA          0047e418     octa.obj
 0002:00001448       ?faceedgesidx@@3QAY03$$CBEA 0047e448     octa.obj
 0002:00001508       ??_C@_09JIDODEBC@shadowmap?$AA@ 0047e508     shadowmap.obj
 0002:00001514       ??_C@_0O@NPNDICKB@shadowmapsize?$AA@ 0047e514     shadowmap.obj
 0002:00001524       ??_C@_0BA@DNKACPHL@shadowmapradius?$AA@ 0047e524     shadowmap.obj
 0002:00001534       ??_C@_0BA@CGGPLLIL@shadowmapheight?$AA@ 0047e534     shadowmap.obj
 0002:00001544       ??_C@_0O@FBBLNBKM@shadowmapdist?$AA@ 0047e544     shadowmap.obj
 0002:00001554       ??_C@_0M@DJCMABBA@fpshadowmap?$AA@ 0047e554     shadowmap.obj
 0002:00001560       ??_C@_0BD@OPMDFNAN@shadowmapprecision?$AA@ 0047e560     shadowmap.obj
 0002:00001574       ??_C@_0BB@CLJDGMHE@shadowmapambient?$AA@ 0047e574     shadowmap.obj
 0002:00001588       ??_C@_0O@EJFCBAFE@blurshadowmap?$AA@ 0047e588     shadowmap.obj
 0002:00001598       ??_C@_0L@FBLMJOLI@blursmstep?$AA@ 0047e598     shadowmap.obj
 0002:000015a4       ??_C@_0M@JPIKHGFN@blursmsigma?$AA@ 0047e5a4     shadowmap.obj
 0002:000015b0       ??_C@_08HKGPHOB@blurtile?$AA@ 0047e5b0     shadowmap.obj
 0002:000015bc       ??_C@_0O@IOLIMFNF@shadowmapbias?$AA@ 0047e5bc     shadowmap.obj
 0002:000015cc       ??_C@_0BB@KEJBEPKD@shadowmapcasters?$AA@ 0047e5cc     shadowmap.obj
 0002:000015e0       ??_C@_09ICCHFDHM@smscissor?$AA@ 0047e5e0     shadowmap.obj
 0002:000015ec       ??_C@_0BA@IJIHOOOA@shadowmapcaster?$AA@ 0047e5ec     shadowmap.obj
 0002:000015fc       ??_C@_0M@KAOIPDEL@smdepthpeel?$AA@ 0047e5fc     shadowmap.obj
 0002:00001608       ??_C@_0P@OIBIBEFD@shadowmapangle?$AA@ 0047e608     shadowmap.obj
 0002:00001618       ??_C@_06MOJPJPGM@blur?$CFd?$AA@ 0047e618     shadowmap.obj
 0002:00001620       ??_C@_0L@NGNANGK@blurkernel?$AA@ 0047e620     shadowmap.obj
 0002:0000162c       ??_C@_08CPJBHJCI@blurstep?$AA@ 0047e62c     shadowmap.obj
 0002:00001638       ??_C@_07EDOJCACC@debugsm?$AA@ 0047e638     shadowmap.obj
 0002:00001640       ??_C@_0BA@HBMBINDF@importcuberemip?$AA@ 0047e640     cubeloader.obj
 0002:00001650       ??_C@_04FCMNJMCO@?$CFd?$CF?$CF?$AA@ 0047e650     cubeloader.obj
 0002:00001658       ??_C@_0BC@BCINKHFP@creating?5cubes?4?4?4?$AA@ 0047e658     cubeloader.obj
 0002:0000166c       ??_C@_07KMMCDPHI@cube?1?$CFs?$AA@ 0047e66c     cubeloader.obj
 0002:00001674       ??_C@_0BA@OFNGFJLA@packages?1?$CFs?4cgz?$AA@ 0047e674     cubeloader.obj
 0002:00001684       ??_C@_03FKFKNKAA@rb9?$AA@  0047e684     cubeloader.obj
 0002:00001688       ??_C@_0BL@MOCCFNFE@could?5not?5read?5cube?5map?5?$CFs?$AA@ 0047e688     cubeloader.obj
 0002:000016a4       ??_C@_04CEENDHAF@CUBE?$AA@ 0047e6a4     cubeloader.obj
 0002:000016ac       ??_C@_04BHBGMNAP@ACMP?$AA@ 0047e6ac     cubeloader.obj
 0002:000016b4       ??_C@_0BP@DELPDANB@map?5?$CFs?5has?5malformatted?5header?$AA@ 0047e6b4     cubeloader.obj
 0002:000016d4       ??_C@_0N@HKPFLAFL@importing?5?$CFs?$AA@ 0047e6d4     cubeloader.obj
 0002:000016e4       ??_C@_07JEMIPMLL@?$CFd?5?$EA?5?$CFd?$AA@ 0047e6e4     cubeloader.obj
 0002:000016ec       ??_C@_0CH@JAGAMOFA@while?5reading?5map?3?5type?5out?5of?5r@ 0047e6ec     cubeloader.obj
 0002:00001714       ??_C@_0BF@FPGPPMPD@packages?1cube?1?$CFs?4cfg?$AA@ 0047e714     cubeloader.obj
 0002:0000172c       ??_C@_0BK@FMCKCEIA@packages?1cube?1package?4cfg?$AA@ 0047e72c     cubeloader.obj
 0002:00001748       ??_C@_0CA@MMGGPEH@read?5cube?5map?5?$CFs?5?$CI?$CF?41f?5seconds?$CJ?$AA@ 0047e748     cubeloader.obj
 0002:00001768       ??_C@_01LKDEMHDF@s?$AA@    0047e768     cubeloader.obj
 0002:0000176c       ??_C@_0L@FIHOELOG@importcube?$AA@ 0047e76c     cubeloader.obj
 0002:00001778       ??_C@_0P@HLFCKHKL@lightprecision?$AA@ 0047e778     lightmap.obj
 0002:00001788       ??_C@_0L@IEPABEDF@lighterror?$AA@ 0047e788     lightmap.obj
 0002:00001794       ??_C@_09JAEKHCCH@bumperror?$AA@ 0047e794     lightmap.obj
 0002:000017a0       ??_C@_08PJALPBCH@lightlod?$AA@ 0047e7a0     lightmap.obj
 0002:000017ac       ??_C@_08NPGGECPB@worldlod?$AA@ 0047e7ac     lightmap.obj
 0002:000017b8       ??_C@_07LIABELBC@ambient?$AA@ 0047e7b8     lightmap.obj
 0002:000017c0       ??_C@_03GLKMLICL@iii?$AA@  0047e7c0     lightmap.obj
 0002:000017c4       ??_C@_08GENLAOJJ@skylight?$AA@ 0047e7c4     lightmap.obj
 0002:000017d0       ??_C@_0BK@HPCEEBNL@?$CFd?5textures?5?$CFd?$CF?$CF?5utilized?$AA@ 0047e7d0     lightmap.obj
 0002:000017ec       ??_C@_0O@BIFMPIKC@lightcompress?$AA@ 0047e7ec     lightmap.obj
 0002:000017fc       ??_C@_0L@FGAMPPCE@mmskylight?$AA@ 0047e7fc     lightmap.obj
 0002:00001808       ??_C@_07KJBFLEOB@blurlms?$AA@ 0047e808     lightmap.obj
 0002:00001810       ??_C@_0N@LDJILJDN@blurskylight?$AA@ 0047e810     lightmap.obj
 0002:000018ac       ??_C@_0O@NMNBENPE@edgetolerance?$AA@ 0047e8ac     lightmap.obj
 0002:000018bc       ??_C@_0P@IEPOFCMK@adaptivesample?$AA@ 0047e8bc     lightmap.obj
 0002:000018cc       ??_C@_0P@GIDFMGKC@lightcachesize?$AA@ 0047e8cc     lightmap.obj
 0002:000018dc       ??_C@_0CL@EKDLFHJD@valid?5range?5for?5calclight?5qualit@ 0047e8dc     lightmap.obj
 0002:00001908       ??_C@_0CG@NAICJAFF@computing?5lightmaps?4?4?4?5?$CIesc?5to?5a@ 0047e908     lightmap.obj
 0002:00001930       ??_C@_0BB@BNPILHCM@lighting?5done?4?4?4?$AA@ 0047e930     lightmap.obj
 0002:00001944       ??_C@_0BC@JJACDAHL@calclight?5aborted?$AA@ 0047e944     lightmap.obj
 0002:00001958       ??_C@_0EA@PDNDMFEG@generated?5?$CFd?5lightmaps?5using?5?$CFd?$CF@ 0047e958     lightmap.obj
 0002:00001998       ??_C@_01KBJDNOO@i?$AA@     0047e998     lightmap.obj
 0002:0000199c       ??_C@_09BANFGNFM@calclight?$AA@ 0047e99c     lightmap.obj
 0002:000019a8       ??_C@_0N@DDIKEBIE@patchnormals?$AA@ 0047e9a8     lightmap.obj
 0002:000019b8       ??_C@_0CM@EGICKFJ@valid?5range?5for?5patchlight?5quali@ 0047e9b8     lightmap.obj
 0002:000019e4       ??_C@_0CF@PAJDEPLO@patching?5lightmaps?4?4?4?5?$CIesc?5to?5ab@ 0047e9e4     lightmap.obj
 0002:00001a0c       ??_C@_0BF@MBCHIICN@computing?5normals?4?4?4?$AA@ 0047ea0c     lightmap.obj
 0002:00001a24       ??_C@_0BD@OKOKEINJ@patchlight?5aborted?$AA@ 0047ea24     lightmap.obj
 0002:00001a38       ??_C@_0DO@BIPOHHDP@patched?5?$CFd?5lightmaps?5using?5?$CFd?$CF?$CF?5@ 0047ea38     lightmap.obj
 0002:00001a78       ??_C@_0L@FPHPHHGA@patchlight?$AA@ 0047ea78     lightmap.obj
 0002:00001a84       ??_C@_0L@GEONJGBK@fullbright?$AA@ 0047ea84     lightmap.obj
 0002:00001a90       ??_C@_0BA@PFDEDJDH@fullbrightlevel?$AA@ 0047ea90     lightmap.obj
 0002:00001aa0       ??_C@_0L@CFOHJAIM@convertlms?$AA@ 0047eaa0     lightmap.obj
 0002:00001aac       ??_C@_0BD@GBGDLMHK@lightmap_?$CFs_?$CFd?4bmp?$AA@ 0047eaac     lightmap.obj
 0002:00001ac0       ??_C@_02GMLFBBN@wb?$AA@    0047eac0     lightmap.obj
 0002:00001ac3       ??_C@_00CNPNBAHC@?$AA@     0047eac3     lightmap.obj
 0002:00001ac4       ??_C@_07IHJLHON@dumplms?$AA@ 0047eac4     lightmap.obj
 0002:00001acc       ??_C@_09NJFLIGJF@lerpangle?$AA@ 0047eacc     normal.obj
 0002:00001ad8       ??_C@_0L@GEMHMDHJ@lerpsubdiv?$AA@ 0047ead8     normal.obj
 0002:00001ae4       ??_C@_0P@PCAKHDDF@lerpsubdivsize?$AA@ 0047eae4     normal.obj
 0002:00001af4       ??_C@_0BJ@MAFBKHJN@?$DN?5?$CFp?5?$DN?5?$CI?$CFd?0?5?$CFd?0?5?$CFd?$CJ?5?$EA?5?$CFd?$AA@ 0047eaf4     octa.obj
 0002:00001b10       ??_C@_08KIPBOANC@?5x?5?5?$CF?48x?$AA@ 0047eb10     octa.obj
 0002:00001b1c       ??_C@_08GEFLOAEM@?5y?5?5?$CF?48x?$AA@ 0047eb1c     octa.obj
 0002:00001b28       ??_C@_08OKNEOHKP@?5z?5?5?$CF?48x?$AA@ 0047eb28     octa.obj
 0002:00001b34       ??_C@_09GBFNOHCC@printcube?$AA@ 0047eb34     octa.obj
 0002:00001b40       ??_C@_06FDJLJGCD@mipvis?$AA@ 0047eb40     octa.obj
 0002:00001b48       ??_C@_05PIHAKMCM@remip?$AA@ 0047eb48     octa.obj
 0002:00001b50       ??_C@_0CF@LIEBPPBH@WARNING?3?5old?5map?0?5use?5savecurren@ 0047eb50     octa.obj
 0002:00001b78       ??_C@_07DKBAAKPA@minface?$AA@ 0047eb78     octa.obj
 0002:00001b80       ??_C@_08GIAHNCC@maxmerge?$AA@ 0047eb80     octa.obj
 0002:00001b8c       ??_C@_0BE@IKKCKJEH@merging?5surfaces?4?4?4?$AA@ 0047eb8c     octa.obj
 0002:00001ba0       ??_C@_08MLPFNNDJ@dragging?$AA@ 0047eba0     octaedit.obj
 0002:00001bac       ??_C@_0O@CMDPCADK@selectcorners?$AA@ 0047ebac     octaedit.obj
 0002:00001bbc       ??_C@_06CJBJAGIH@moving?$AA@ 0047ebbc     octaedit.obj
 0002:00001bc4       ??_C@_09PEPLNHHC@gridpower?$AA@ 0047ebc4     octaedit.obj
 0002:00001bd0       ??_C@_0P@MMCAOJOE@passthroughsel?$AA@ 0047ebd0     octaedit.obj
 0002:00001be0       ??_C@_07HAFNFNOB@editing?$AA@ 0047ebe0     octaedit.obj
 0002:00001be8       ??_C@_0CE@FFBGEABP@operation?5only?5allowed?5in?5edit?5m@ 0047ebe8     octaedit.obj
 0002:00001c0c       ??_C@_0BG@KMLAPNDI@selection?5not?5in?5view?$AA@ 0047ec0c     octaedit.obj
 0002:00001c24       ??_C@_0L@IAAMPIAA@edittoggle?$AA@ 0047ec24     octaedit.obj
 0002:00001c30       ??_C@_09GGDDKLMH@entcancel?$AA@ 0047ec30     octaedit.obj
 0002:00001c3c       ??_C@_0L@FGIDMBCN@cubecancel?$AA@ 0047ec3c     octaedit.obj
 0002:00001c48       ??_C@_09OIKHHPFL@cancelsel?$AA@ 0047ec48     octaedit.obj
 0002:00001c54       ??_C@_08PFHMHGMO@reorient?$AA@ 0047ec54     octaedit.obj
 0002:00001c60       ??_C@_09ONDGDNFE@selextend?$AA@ 0047ec60     octaedit.obj
 0002:00001c6c       ??_C@_07MGGFOIDK@havesel?$AA@ 0047ec6c     octaedit.obj
 0002:00001c74       ??_C@_0L@IELONJHO@gridlookup?$AA@ 0047ec74     octaedit.obj
 0002:00001c80       ??_C@_0BA@IFEGHEHN@passthroughcube?$AA@ 0047ec80     octaedit.obj
 0002:00001c90       ??_C@_08MECIEJGG@undomegs?$AA@ 0047ec90     octaedit.obj
 0002:00001c9c       ??_C@_0BD@KNNPPEDE@nothing?5more?5to?5?$CFs?$AA@ 0047ec9c     octaedit.obj
 0002:00001cb0       ??_C@_04HOKNPDPJ@undo?$AA@ 0047ecb0     octaedit.obj
 0002:00001cb8       ??_C@_04BLIMKIOI@redo?$AA@ 0047ecb8     octaedit.obj
 0002:00001cc0       ??_C@_04COAGEIMF@copy?$AA@ 0047ecc0     octaedit.obj
 0002:00001cc8       ??_C@_0M@NPDMNCLK@pastehilite?$AA@ 0047ecc8     octaedit.obj
 0002:00001cd4       ??_C@_05NDLFFNHM@paste?$AA@ 0047ecd4     octaedit.obj
 0002:00001cdc       ??_C@_06NBMKNICM@brushx?$AA@ 0047ecdc     octaedit.obj
 0002:00001ce4       ??_C@_06MINBOJGN@brushy?$AA@ 0047ece4     octaedit.obj
 0002:00001cec       ??_C@_0L@IGILIFOO@clearbrush?$AA@ 0047ecec     octaedit.obj
 0002:00001cf8       ??_C@_09KMOJGCHA@brushvert?$AA@ 0047ecf8     octaedit.obj
 0002:00001d04       ??_C@_07IOOFFEHL@addhtex?$AA@ 0047ed04     octaedit.obj
 0002:00001d0c       ??_C@_0L@EMANIEPP@hmapcancel?$AA@ 0047ed0c     octaedit.obj
 0002:00001d18       ??_C@_01CLKCMJKC@?5?$AA@   0047ed18     octaedit.obj
 0002:00001d1c       ??_C@_0CI@GHPOBFPL@negative?5orientations?5not?5suppor@ 0047ed1c     octaedit.obj
 0002:00001d44       ??_C@_0BB@PDFCDJPB@invalidcubeguard?$AA@ 0047ed44     octaedit.obj
 0002:00001d58       ??_C@_0O@DGDHBMKK@selectionsurf?$AA@ 0047ed58     octaedit.obj
 0002:00001d68       ??_C@_07FCPHCPHL@pushsel?$AA@ 0047ed68     octaedit.obj
 0002:00001d70       ??_C@_02PDIHAGKM@ii?$AA@   0047ed70     octaedit.obj
 0002:00001d74       ??_C@_08BCMNDPAK@editface?$AA@ 0047ed74     octaedit.obj
 0002:00001d80       ??_C@_07LJGOPPCL@delcube?$AA@ 0047ed80     octaedit.obj
 0002:00001d88       ??_C@_08IANOCEHK@allfaces?$AA@ 0047ed88     octaedit.obj
 0002:00001d94       ??_C@_07BDCBDDNM@edittex?$AA@ 0047ed94     octaedit.obj
 0002:00001d9c       ??_C@_06DFEOEHPC@gettex?$AA@ 0047ed9c     octaedit.obj
 0002:00001da4       ??_C@_0CG@JDIDDNFG@can?5only?5replace?5after?5a?5texture@ 0047eda4     octaedit.obj
 0002:00001dcc       ??_C@_07CLEHDIEJ@replace?$AA@ 0047edcc     octaedit.obj
 0002:00001dd4       ??_C@_04DGGGELON@flip?$AA@ 0047edd4     octaedit.obj
 0002:00001ddc       ??_C@_06CEHMNFAL@rotate?$AA@ 0047eddc     octaedit.obj
 0002:00001de4       ??_C@_0BG@HGOHELP@unknown?5material?5?$CC?$CFs?$CC?$AA@ 0047ede4     octaedit.obj
 0002:00001dfc       ??_C@_07JFIMMMBJ@editmat?$AA@ 0047edfc     octaedit.obj
 0002:00001e04       ??_C@_09FNHILEEA@thumbtime?$AA@ 0047ee04     octaedit.obj
 0002:00001e10       ??_C@_08FLHNKADJ@Textures?$AA@ 0047ee10     octaedit.obj
 0002:00001e1c       ??_C@_0L@NNIPJMKJ@showtexgui?$AA@ 0047ee1c     octaedit.obj
 0002:00001e28       ??_C@_07COPKBG@rgbonly?$AA@ 0047ee28     octaedit.obj
 0002:00001e34       ??_7?$tident@X@@6B@        0047ee34     octaedit.obj
 0002:00001e44       ??_7g3d_callback@@6B@      0047ee44     octaedit.obj
 0002:00001e50       ??_7cmd_havesel@@6B@       0047ee50     octaedit.obj
 0002:00001e60       ??_7cmd_addhtex@@6B@       0047ee60     octaedit.obj
 0002:00001e70       ??_7cmd_hmapcancel@@6B@    0047ee70     octaedit.obj
 0002:00001e80       ??_7texturegui@@6B@        0047ee80     octaedit.obj
 0002:00001e88       ??_C@_0L@PLANPNFO@showcstats?$AA@ 0047ee88     octarender.obj
 0002:00001e94       ??_C@_0CB@GPPDKOOA@?$CFd?3?5?$CFd?5faces?0?5?$CFd?5leafs?0?5?$CFd?5nodes@ 0047ee94     octarender.obj
 0002:00001eb8       ??_C@_08PJIFMMEF@floatvtx?$AA@ 0047eeb8     octarender.obj
 0002:00001ec4       ??_C@_08MAMAAIBM@printvbo?$AA@ 0047eec4     octarender.obj
 0002:00001ed0       ??_C@_07KMNJAIDA@vbosize?$AA@ 0047eed0     octarender.obj
 0002:00001ed8       ??_C@_0CC@CJMJGMBH@vbo?5?$CFd?3?5type?5?$CFd?0?5size?5?$CFd?0?5?$CFd?5use@ 0047eed8     octarender.obj
 0002:00001efc       ??_C@_07EKLCLENA@lodsize?$AA@ 0047eefc     octarender.obj
 0002:00001f04       ??_C@_0M@BMPKAEOC@loddistance?$AA@ 0047ef04     octarender.obj
 0002:00001f10       ??_C@_09DPFPIEDO@vacubemax?$AA@ 0047ef10     octarender.obj
 0002:00001f1c       ??_C@_0L@MADEAIKP@vacubesize?$AA@ 0047ef1c     octarender.obj
 0002:00001f28       ??_C@_09CNNEGAFB@vacubemin?$AA@ 0047ef28     octarender.obj
 0002:00001f34       ??_C@_0BK@IIPIFLME@recalculating?5geometry?4?4?4?$AA@ 0047ef34     octarender.obj
 0002:00001f50       ??_C@_0BC@CDEPGEL@generating?5LOD?4?4?4?$AA@ 0047ef50     octarender.obj
 0002:00001f64       ??_C@_0BB@ENMEHAAO@clearing?5VBOs?4?4?4?$AA@ 0047ef64     octarender.obj
 0002:00001f78       ??_C@_06BDEIOILB@recalc?$AA@ 0047ef78     octarender.obj
 0002:00001f80       ??_C@_06DPMIMFNG@bounce?$AA@ 0047ef80     physics.obj
 0002:00001f88       ??_C@_09HKLMEOCN@step?5down?$AA@ 0047ef88     physics.obj
 0002:00001f94       ??_C@_07NMPJEAII@step?5up?$AA@ 0047ef94     physics.obj
 0002:00001f9c       ??_C@_05PBJFFIGL@floor?$AA@ 0047ef9c     physics.obj
 0002:00001fa4       ??_C@_05LAHHKLJI@slope?$AA@ 0047efa4     physics.obj
 0002:00001fac       ??_C@_05IODDPPOI@slide?$AA@ 0047efac     physics.obj
 0002:00001fb4       ??_C@_04CELAAMIG@fall?$AA@ 0047efb4     physics.obj
 0002:00001fbc       ??_C@_05KNFBNCOH@float?$AA@ 0047efbc     physics.obj
 0002:00001fc4       ??_C@_0L@IAAJNJIP@dynentsize?$AA@ 0047efc4     physics.obj
 0002:00001fd0       ??_C@_0EP@FPPBJMBJ@PHYS?$CIpl?$CJ?3?5?$CFs?0?5air?5?$CFd?0?5floor?3?5?$CI?$CFf@ 0047efd0     physics.obj
 0002:00002020       ??_C@_0FA@KGAIIKF@PHYS?$CIcam?$CJ?3?5?$CFs?0?5air?5?$CFd?0?5floor?3?5?$CI?$CF@ 0047f020     physics.obj
 0002:00002070       ??_C@_08DFDFCNI@phystest?$AA@ 0047f070     physics.obj
 0002:0000207c       ??_C@_07HDFBBPBE@maxroll?$AA@ 0047f07c     physics.obj
 0002:00002084       ??_C@_0L@FHGPNDAH@floatspeed?$AA@ 0047f084     physics.obj
 0002:00002090       ??_C@_0N@LAEBFNGA@minframetime?$AA@ 0047f090     physics.obj
 0002:000020a0       ??_C@_01CKDDGHAB@D?$AA@    0047f0a0     physics.obj
 0002:000020a4       ??_C@_08DBMDPFJD@backward?$AA@ 0047f0a4     physics.obj
 0002:000020b0       ??_C@_07CJMBKHEI@forward?$AA@ 0047f0b0     physics.obj
 0002:000020b8       ??_C@_04GOOOJOPP@left?$AA@ 0047f0b8     physics.obj
 0002:000020c0       ??_C@_05DHJDAOHK@right?$AA@ 0047f0c0     physics.obj
 0002:000020c8       ??_C@_04NJIOBGCF@jump?$AA@ 0047f0c8     physics.obj
 0002:000020d0       ??_C@_06JMLBDJHL@attack?$AA@ 0047f0d0     physics.obj
 0002:000020d8       ??_C@_0M@JFLMCFNC@sensitivity?$AA@ 0047f0d8     physics.obj
 0002:000020e4       ??_C@_0BB@CNFCEFCM@sensitivityscale?$AA@ 0047f0e4     physics.obj
 0002:000020f8       ??_C@_08BODLGOGL@invmouse?$AA@ 0047f0f8     physics.obj
 0002:00002104       ??_C@_0CH@LJEGDCEP@can?8t?5find?5entity?5spawn?5spot?$CB?5?$CI?$CF@ 0047f104     physics.obj
 0002:00002130       ??_7cmd_backward@@6B@      0047f130     physics.obj
 0002:00002140       ??_7cmd_forward@@6B@       0047f140     physics.obj
 0002:00002150       ??_7cmd_left@@6B@          0047f150     physics.obj
 0002:00002160       ??_7cmd_right@@6B@         0047f160     physics.obj
 0002:00002170       ??_7cmd_jump@@6B@          0047f170     physics.obj
 0002:00002180       ??_7cmd_attack@@6B@        0047f180     physics.obj
 0002:0000218c       ??_C@_0M@MJOBAMJH@octaentsize?$AA@ 0047f18c     world.obj
 0002:00002198       ??_C@_0N@CEOKPFKE@entselradius?$AA@ 0047f198     world.obj
 0002:000021a8       ??_C@_01EOFPKCAF@?$EA?$AA@ 0047f1a8     world.obj
 0002:000021ac       ??_C@_02LMMGGCAJ@?3?5?$AA@ 0047f1ac     world.obj
 0002:000021b0       ??_C@_0L@DNBKKPAE@entediting?$AA@ 0047f1b0     world.obj
 0002:000021bc       ??_C@_0N@NGHHLMAK@attachradius?$AA@ 0047f1bc     world.obj
 0002:000021cc       ??_C@_0L@FAFMCKKN@entselsnap?$AA@ 0047f1cc     world.obj
 0002:000021d8       ??_C@_0BA@GAOFJCDA@entmovingshadow?$AA@ 0047f1d8     world.obj
 0002:000021e8       ??_C@_0O@COPLFDID@showentradius?$AA@ 0047f1e8     world.obj
 0002:000021f8       ??_C@_0L@KKHFHLHM@entitysurf?$AA@ 0047f1f8     world.obj
 0002:00002204       ??_C@_09NMIKLLOH@entmoving?$AA@ 0047f204     world.obj
 0002:00002210       ??_C@_0BA@LJIFFCEL@entautoviewdist?$AA@ 0047f210     world.obj
 0002:00002220       ??_C@_0M@JJCILCOM@entautoview?$AA@ 0047f220     world.obj
 0002:0000222c       ??_C@_07EGFHLFCJ@entflip?$AA@ 0047f22c     world.obj
 0002:00002234       ??_C@_09NBOPGIGL@entrotate?$AA@ 0047f234     world.obj
 0002:00002240       ??_C@_07BHEMHBOB@entpush?$AA@ 0047f240     world.obj
 0002:00002248       ??_C@_0BJ@IDBMAGIP@unknown?5entity?5type?5?$CC?$CFs?$CC?$AA@ 0047f248     world.obj
 0002:00002264       ??_C@_07IINMLKFH@entdrop?$AA@ 0047f264     world.obj
 0002:0000226c       ??_C@_09KIAEKOLE@attachent?$AA@ 0047f26c     world.obj
 0002:00002278       ??_C@_05OCLOKMMH@siiii?$AA@ 0047f278     world.obj
 0002:00002280       ??_C@_06KPDDOIOG@newent?$AA@ 0047f280     world.obj
 0002:00002288       ??_C@_06BMHDBBDL@delent?$AA@ 0047f288     world.obj
 0002:00002290       ??_C@_07LABJEPHM@dropent?$AA@ 0047f290     world.obj
 0002:00002298       ??_C@_07FODHLGAB@entcopy?$AA@ 0047f298     world.obj
 0002:000022a0       ??_C@_08EPMMGKCL@entpaste?$AA@ 0047f2a0     world.obj
 0002:000022ac       ??_C@_0L@ILCCBKNP@enthavesel?$AA@ 0047f2ac     world.obj
 0002:000022b8       ??_C@_09EDEBJNEI@entselect?$AA@ 0047f2b8     world.obj
 0002:000022c4       ??_C@_07BKNPHONE@entloop?$AA@ 0047f2c4     world.obj
 0002:000022cc       ??_C@_05LJBKOLPA@insel?$AA@ 0047f2cc     world.obj
 0002:000022d4       ??_C@_06CGAPBBGF@entget?$AA@ 0047f2d4     world.obj
 0002:000022dc       ??_C@_0P@GOFAHLEL@?$CFs?5?$CFd?5?$CFd?5?$CFd?5?$CFd?$AA@ 0047f2dc     world.obj
 0002:000022ec       ??_C@_06PJHENBKN@entset?$AA@ 0047f2ec     world.obj
 0002:000022f4       ??_C@_09MBCHPELG@gamespeed?$AA@ 0047f2f4     world.obj
 0002:00002300       ??_C@_06EKGGOLPA@paused?$AA@ 0047f300     world.obj
 0002:00002308       ??_C@_0CB@MNEFMKAM@newmap?5only?5allowed?5in?5edit?5mode@ 0047f308     world.obj
 0002:0000232c       ??_C@_04OIAIMIIB@OCTA?$AA@ 0047f32c     world.obj
 0002:00002334       ??_C@_0BI@DJPFJNDC@Untitled?5Map?5by?5Unknown?$AA@ 0047f334     world.obj
 0002:0000234c       ??_C@_07MGFEFMBG@map?4cfg?$AA@ 0047f34c     world.obj
 0002:00002354       ??_C@_0CF@HMNMOLON@mapenlarge?5only?5allowed?5in?5edit?5@ 0047f354     world.obj
 0002:0000237c       ??_C@_06FLHECDA@newmap?$AA@ 0047f37c     world.obj
 0002:00002384       ??_C@_0L@MNHMBLFM@mapenlarge?$AA@ 0047f384     world.obj
 0002:00002390       ??_C@_07KMNEBLH@mapname?$AA@ 0047f390     world.obj
 0002:00002398       ??_C@_07DIDNFGDE@trigger?$AA@ 0047f398     world.obj
 0002:000023a0       ??_C@_0N@MIOHHCGI@triggerstate?$AA@ 0047f3a0     world.obj
 0002:000023b0       ??_C@_0BB@MKGBKILG@level_trigger_?$CFd?$AA@ 0047f3b0     world.obj
 0002:000023c8       ??_7cmd_enthavesel@@6B@    0047f3c8     world.obj
 0002:000023d8       ??_7cmd_entselect@@6B@     0047f3d8     world.obj
 0002:000023e8       ??_7cmd_entloop@@6B@       0047f3e8     world.obj
 0002:000023f8       ??_7cmd_insel@@6B@         0047f3f8     world.obj
 0002:00002408       ??_7cmd_entget@@6B@        0047f408     world.obj
 0002:00002414       ??_C@_0BM@EEAGLJDE@backup?5of?5?8?$CFs?8?5made?5to?5?8?$CFs?8?$AA@ 0047f414     worldio.obj
 0002:00002430       ??_C@_07EHFJMLKG@savebak?$AA@ 0047f430     worldio.obj
 0002:00002438       ??_C@_04LMCBDCAL@?4ogz?$AA@ 0047f438     worldio.obj
 0002:00002440       ??_C@_02CFKBDFGI@?1?2?$AA@ 0047f440     worldio.obj
 0002:00002444       ??_C@_04BHIIPFEC@base?$AA@ 0047f444     worldio.obj
 0002:0000244c       ??_C@_07DLHDFGAF@base?1?$CFs?$AA@ 0047f44c     worldio.obj
 0002:00002454       ??_C@_0BA@KPAAOGAI@packages?1?$CFs?4ogz?$AA@ 0047f454     worldio.obj
 0002:00002464       ??_C@_0BA@NONNBLEF@packages?1?$CFs?4etz?$AA@ 0047f464     worldio.obj
 0002:00002474       ??_C@_0BI@DECNJLBC@packages?1?$CFs?1package?4cfg?$AA@ 0047f474     worldio.obj
 0002:0000248c       ??_C@_0BD@DAEHBEEN@packages?1?$CFs?1?$CFs?4cfg?$AA@ 0047f48c     worldio.obj
 0002:000024a0       ??_C@_0BA@HONLMPND@packages?1?$CFs?4jpg?$AA@ 0047f4a0     worldio.obj
 0002:000024b0       ??_C@_0P@PBJEKMIN@garbage?5in?5map?$AA@ 0047f4b0     worldio.obj
 0002:000024c0       ??_C@_08GDFANMDE@untitled?$AA@ 0047f4c0     worldio.obj
 0002:000024cc       ??_C@_03GNIECKDC@wb9?$AA@  0047f4cc     worldio.obj
 0002:000024d0       ??_C@_0CM@ODHEOGJO@error?5saving?5?8?$CFs?8?5to?5?8?$CFs?8?5due?5to@ 0047f4d0     worldio.obj
 0002:000024fc       ??_C@_0BC@HHMOCDFB@saving?5backups?4?4?4?$AA@ 0047f4fc     worldio.obj
 0002:00002510       ??_C@_0BE@HDIOCNBB@packages?1?$CFs_?$CFli?4ogz?$AA@ 0047f510     worldio.obj
 0002:00002524       ??_C@_0BE@CFDNAFM@packages?1?$CFs_?$CFli?4etz?$AA@ 0047f524     worldio.obj
 0002:00002538       ??_C@_04IMJGMLCE@EXTZ?$AA@ 0047f538     worldio.obj
 0002:00002540       ??_C@_03JABFMKFJ@fps?$AA@  0047f540     worldio.obj
 0002:00002544       ??_C@_0BD@DABIDKEM@saving?5entities?4?4?4?$AA@ 0047f544     worldio.obj
 0002:00002558       ??_C@_0BI@JPACIDDB@saved?5?$CFd?5ent?$CIs?$CJ?5to?5?8?$CFs?8?$AA@ 0047f558     worldio.obj
 0002:00002570       ??_C@_0BE@GJJEGFAD@saving?5lightmaps?4?4?4?$AA@ 0047f570     worldio.obj
 0002:00002584       ??_C@_0BN@PPGLLNPA@saved?5?$CFd?5lightmap?$CIs?$CJ?5to?5?8?$CFs?8?$AA@ 0047f584     worldio.obj
 0002:000025a4       ??_C@_0BL@ELICFAKD@saved?5file?5?8?$CFs?8?5version?5?$CFd?$AA@ 0047f5a4     worldio.obj
 0002:000025c0       ??_C@_09FONHNCGI@saving?4?4?4?$AA@ 0047f5c0     worldio.obj
 0002:000025cc       ??_C@_0BO@EGEGKIKO@saved?5map?5?8?$CFs?8?5in?5?$CF?41f?5sec?$CIs?$CJ?$AA@ 0047f5cc     worldio.obj
 0002:000025ec       ??_C@_0CP@HMLEDNMI@error?5loading?5?8?$CFs?8?5from?5?8?$CFs?8?5due@ 0047f5ec     worldio.obj
 0002:0000261c       ??_C@_0DI@GCDDJBJB@error?5loading?5?8?$CFs?8?5from?5?8?$CFs?8?5due@ 0047f61c     worldio.obj
 0002:00002658       ??_C@_0EO@CPADKDCO@error?5loading?5?8?$CFs?8?5from?5?8?$CFs?8?5as?5@ 0047f658     worldio.obj
 0002:000026a8       ??_C@_04PJOEMDGH@ENTZ?$AA@ 0047f6a8     worldio.obj
 0002:000026b0       ??_C@_0EL@GDFMMLDF@error?5loading?5?8?$CFs?8?5from?5?8?$CFs?8?5as?5@ 0047f6b0     worldio.obj
 0002:00002700       ??_C@_0GB@DCHDGPKE@loading?5older?5?1?5less?5efficient?5m@ 0047f700     worldio.obj
 0002:00002764       ??_C@_0BB@PLAGNDDM@loading?5world?4?4?4?$AA@ 0047f764     worldio.obj
 0002:00002778       ??_C@_0BC@GMMPAACG@loading?5config?4?4?4?$AA@ 0047f778     worldio.obj
 0002:00002790       ??_C@_0FC@JGMDPNDD@WARNING?3?5loading?5map?5from?5?$CFs?5gam@ 0047f790     worldio.obj
 0002:000027e4       ??_C@_0BC@DCHMDFAI@clearing?5world?4?4?4?$AA@ 0047f7e4     worldio.obj
 0002:000027f8       ??_C@_0BE@CJBBIHIP@loading?5entities?4?4?4?$AA@ 0047f7f8     worldio.obj
 0002:00002810       ??_C@_0EB@OABDHGPF@warning?3?5ent?5outside?5of?5world?3?5e@ 0047f810     worldio.obj
 0002:00002854       ??_C@_0DG@HBAGAPFA@warning?3?5mapmodel?5ent?5?$CIindex?5?$CFd?$CJ@ 0047f854     worldio.obj
 0002:0000288c       ??_C@_0BL@BMHLOPCJ@loaded?5?$CFd?5ent?$CIs?$CJ?5from?5?8?$CFs?8?$AA@ 0047f88c     worldio.obj
 0002:000028a8       ??_C@_0BC@ODCPBFJJ@loading?5octree?4?4?4?$AA@ 0047f8a8     worldio.obj
 0002:000028bc       ??_C@_0O@CMLICMCJ@validating?4?4?4?$AA@ 0047f8bc     worldio.obj
 0002:000028cc       ??_C@_0BF@GLOAPPLE@loading?5lightmaps?4?4?4?$AA@ 0047f8cc     worldio.obj
 0002:000028e4       ??_C@_0CA@DLAIGNLJ@loaded?5?$CFd?5lightmap?$CIs?$CJ?5from?5?8?$CFs?8?$AA@ 0047f8e4     worldio.obj
 0002:00002904       ??_C@_0BM@LEPGJKCM@loaded?5file?5?8?$CFs?8?5version?5?$CFd?$AA@ 0047f904     worldio.obj
 0002:00002920       ??_C@_0BN@JNDHGBCP@loading?5extended?5entities?4?4?4?$AA@ 0047f920     worldio.obj
 0002:00002940       ??_C@_0BP@MKFCHOAN@loaded?5map?5?8?$CFs?8?5in?5?$CF?41f?5sec?$CIs?$CJ?$AA@ 0047f940     worldio.obj
 0002:00002960       ??_C@_06DJHOIPC@?$CFs?3?5?$CFs?$AA@ 0047f960     worldio.obj
 0002:00002968       ??_C@_0BN@FHHEABDF@could?5not?5find?5map?5model?3?5?$CFd?$AA@ 0047f968     worldio.obj
 0002:00002988       ??_C@_0BJ@CLKIGBHO@could?5not?5load?5model?3?5?$CFs?$AA@ 0047f988     worldio.obj
 0002:000029a4       ??_C@_0BC@JEHCENPE@starting?5world?4?4?4?$AA@ 0047f9a4     worldio.obj
 0002:000029b8       ??_C@_07LGAMBAGK@savemap?$AA@ 0047f9b8     worldio.obj
 0002:000029c0       ??_C@_0P@CFANOFNA@savecurrentmap?$AA@ 0047f9c0     worldio.obj
 0002:000029d0       ??_C@_06LLFFKDIG@?$CFs?4obj?$AA@ 0047f9d0     worldio.obj
 0002:000029d8       ??_C@_01NOFIACDB@w?$AA@    0047f9d8     worldio.obj
 0002:000029dc       ??_C@_0BH@GGEKCGNN@?$CD?5obj?5file?5OCTA?5world?6?$AA@ 0047f9dc     worldio.obj
 0002:000029f4       ??_C@_07CNIPEAIC@v?5?$CF?43f?5?$AA@ 0047f9f4     worldio.obj
 0002:000029fc       ??_C@_05BPDBIHNG@v?5?$CFd?5?$AA@ 0047f9fc     worldio.obj
 0002:00002a04       ??_C@_05FMONJPMD@?$CF?43f?5?$AA@ 0047fa04     worldio.obj
 0002:00002a0c       ??_C@_03JDANDILB@?$CFd?5?$AA@ 0047fa0c     worldio.obj
 0002:00002a10       ??_C@_05DDIGFDOL@?$CF?43f?6?$AA@ 0047fa10     worldio.obj
 0002:00002a18       ??_C@_03PMGGPEJJ@?$CFd?6?$AA@ 0047fa18     worldio.obj
 0002:00002a1c       ??_C@_01INIBCBCB@f?$AA@    0047fa1c     worldio.obj
 0002:00002a20       ??_C@_03EBJOKFHF@?5?$CFd?$AA@ 0047fa20     worldio.obj
 0002:00002a24       ??_C@_01EEMJAFIK@?6?$AA@   0047fa24     worldio.obj
 0002:00002a28       ??_C@_08LAKBGEK@writeobj?$AA@ 0047fa28     worldio.obj
 0002:00002a34       ??_C@_0CL@PEJFEPCP@operation?5not?5available?5with?5oth@ 0047fa34     client.obj
 0002:00002a60       ??_C@_0CH@HDLCKFDP@operation?5not?5available?5in?5multi@ 0047fa60     client.obj
 0002:00002a88       ??_C@_04HCCHHEEF@rate?$AA@ 0047fa88     client.obj
 0002:00002a90       ??_C@_0BC@HEEPLBOG@throttle_interval?$AA@ 0047fa90     client.obj
 0002:00002aa4       ??_C@_0P@GOIDANDD@throttle_accel?$AA@ 0047faa4     client.obj
 0002:00002ab4       ??_C@_0P@LBAOGJCA@throttle_decel?$AA@ 0047fab4     client.obj
 0002:00002ac4       ??_C@_0CA@BOMLMPMD@bot?5aborting?5connection?5attempt?$AA@ 0047fac4     client.obj
 0002:00002ae4       ??_C@_0CA@NLLAACCN@bot?5attempting?5to?5connect?5to?5?$CFs?$AA@ 0047fae4     client.obj
 0002:00002b04       ??_C@_0CA@HHGDBGMN@bot?5could?5not?5resolve?5server?5?$CFs?$AA@ 0047fb04     client.obj
 0002:00002b24       ??_C@_0CA@PHMFGJFM@bot?5could?5not?5connect?5to?5server?$AA@ 0047fb24     client.obj
 0002:00002b44       ??_C@_0BB@PBMOEBGC@bot?5disconnected?$AA@ 0047fb44     client.obj
 0002:00002b58       ??_C@_0CA@LAOCPJPN@bot?5attempting?5to?5disconnect?4?4?4?$AA@ 0047fb58     client.obj
 0002:00002b78       ??_C@_0CG@DDJIEIMA@bot?5illegal?5network?5message?5?$CI?$CFs?5@ 0047fb78     client.obj
 0002:00002ba0       ??_C@_0BN@KNIJGEGG@bot?5attempting?5to?5connect?4?4?4?$AA@ 0047fba0     client.obj
 0002:00002bc0       ??_C@_0BI@KLJOELLA@bot?5connected?5to?5server?$AA@ 0047fbc0     client.obj
 0002:00002bd8       ??_C@_0DB@IOHNJCEF@bot?5server?5network?5error?0?5discon@ 0047fbd8     client.obj
 0002:00002c0c       ??_C@_09IPAEKDAI@localhost?$AA@ 0047fc0c     client.obj
 0002:00002c18       ??_C@_0CE@CJFEIJNI@bots?5are?5not?5available?5in?5this?5g@ 0047fc18     client.obj
 0002:00002c3c       ??_C@_06EGJPNLPE@botadd?$AA@ 0047fc3c     client.obj
 0002:00002c44       ??_C@_0BM@JCJFMNM@aborting?5connection?5attempt?$AA@ 0047fc44     client.obj
 0002:00002c60       ??_C@_0BM@MMFCJBDC@attempting?5to?5connect?5to?5?$CFs?$AA@ 0047fc60     client.obj
 0002:00002c7c       ??_C@_0BM@GAIBIFNC@could?5not?5resolve?5server?5?$CFs?$AA@ 0047fc7c     client.obj
 0002:00002c98       ??_C@_0BP@DBNKPJGO@attempting?5to?5connect?5over?5LAN?$AA@ 0047fc98     client.obj
 0002:00002cb8       ??_C@_0BO@FMIGNLBM@?$AM3could?5not?5connect?5to?5server?$AA@ 0047fcb8     client.obj
 0002:00002cd8       ??_C@_0N@GGGDBMDO@disconnected?$AA@ 0047fcd8     client.obj
 0002:00002ce8       ??_C@_0O@GLMIBBEG@not?5connected?$AA@ 0047fce8     client.obj
 0002:00002cf8       ??_C@_0BM@KHAAGKOC@attempting?5to?5disconnect?4?4?4?$AA@ 0047fcf8     client.obj
 0002:00002d14       ??_C@_07KAIBNCHO@connect?$AA@ 0047fd14     client.obj
 0002:00002d1c       ??_C@_0L@FOGOINHM@lanconnect?$AA@ 0047fd1c     client.obj
 0002:00002d28       ??_C@_0L@KKPFIJOL@disconnect?$AA@ 0047fd28     client.obj
 0002:00002d34       ??_C@_0BP@BDHIAHKH@?$AM3illegal?5network?5message?5?$CI?$CFs?$CJ?$AA@ 0047fd34     client.obj
 0002:00002d54       ??_C@_09JGOMOAGJ@connected?$AA@ 0047fd54     client.obj
 0002:00002d60       ??_C@_0BJ@NFIAENFO@attempting?5to?5connect?4?4?4?$AA@ 0047fd60     client.obj
 0002:00002d7c       ??_C@_0BE@FHNLFBGA@connected?5to?5server?$AA@ 0047fd7c     client.obj
 0002:00002d90       ??_C@_0CP@CDNHMHBG@?$AM3server?5network?5error?0?5disconne@ 0047fd90     client.obj
 0002:00002dc0       ??_C@_0BJ@GBFHBNIN@server?5FULL?5?$CImaxclients?$CJ?$AA@ 0047fdc0     server.obj
 0002:00002ddc       ??_C@_0BK@CIAFDEPO@server?5is?5in?5private?5mode?$AA@ 0047fddc     server.obj
 0002:00002df8       ??_C@_0N@KLGGLKFD@ip?5is?5banned?$AA@ 0047fdf8     server.obj
 0002:00002e08       ??_C@_08LHFLPAFL@tag?5type?$AA@ 0047fe08     server.obj
 0002:00002e14       ??_C@_0O@DDBOENOP@kicked?1banned?$AA@ 0047fe14     server.obj
 0002:00002e24       ??_C@_0L@CNDFKLPO@client?5num?$AA@ 0047fe24     server.obj
 0002:00002e30       ??_C@_0O@JBDOGIMF@end?5of?5packet?$AA@ 0047fe30     server.obj
 0002:00002e40       ??_C@_06IKLLLDHL@normal?$AA@ 0047fe40     server.obj
 0002:00002e48       ??_C@_0BL@HGLBPDJ@cannot?5start?5game?5module?3?5?$AA@ 0047fe48     server.obj
 0002:00002e64       ??_C@_0CA@EGKANMMA@unknown?5command?9line?5option?3?5?$CFs?$AA@ 0047fe64     server.obj
 0002:00002e84       ??_C@_0CG@JNJPEJAD@client?5?$CI?$CFs?$CJ?5disconnected?5because@ 0047fe84     server.obj
 0002:00002eac       ??_C@_0DG@FAGPNFDM@GET?5?$CFs?5HTTP?11?40?6Host?3?5?$CFs?6Referer@ 0047feac     server.obj
 0002:00002ee4       ??_C@_03EDDBLLFO@?6?$AN?6?$AA@ 0047fee4     server.obj
 0002:00002ee8       ??_C@_02PHMGELLB@?6?6?$AA@ 0047fee8     server.obj
 0002:00002eec       ??_C@_0BL@MPKCCLBB@?$CFs?$DPgame?$DN?$CFs?$CGaction?$DNregister?$AA@ 0047feec     server.obj
 0002:00002f08       ??_C@_0BJ@FDJLCHNG@?$CFsregister?4do?$DPaction?$DNadd?$AA@ 0047ff08     server.obj
 0002:00002f24       ??_C@_0BI@BAPJJCHE@masterserver?5reply?3?5?$CFs?6?$AA@ 0047ff24     server.obj
 0002:00002f3c       ??_C@_0BH@GJHPBMBA@?$CFs?$DPgame?$DN?$CFs?$CGaction?$DNlist?$AA@ 0047ff3c     server.obj
 0002:00002f54       ??_C@_0BI@JNENKJCG@?$CFsretrieve?4do?$DPitem?$DNlist?$AA@ 0047ff54     server.obj
 0002:00002f6c       ??_C@_0CN@DHOIFNKG@retrieving?5servers?5from?5?$CFs?4?4?4?5?$CIe@ 0047ff6c     server.obj
 0002:00002f9c       ??_C@_0DI@OCJOGBJA@status?3?5?$CFd?5remote?5clients?0?5?$CF?41f?5@ 0047ff9c     server.obj
 0002:00002fd4       ??_C@_07CIFAGBMG@unknown?$AA@ 0047ffd4     server.obj
 0002:00002fdc       ??_C@_0BH@HNHNFPPG@client?5connected?5?$CI?$CFs?$CJ?6?$AA@ 0047ffdc     server.obj
 0002:00002ff4       ??_C@_0BK@ILDBAMNM@disconnected?5client?5?$CI?$CFs?$CJ?6?$AA@ 0047fff4     server.obj
 0002:00003010       ??_C@_01KMDKNFGN@?1?$AA@   00480010     server.obj
 0002:00003014       ??_C@_0CA@JDMEILNB@WARNING?3?5server?5ip?5not?5resolved?$AA@ 00480014     server.obj
 0002:00003034       ??_C@_0BN@JBKHAIPE@could?5not?5create?5server?5host?$AA@ 00480034     server.obj
 0002:00003054       ??_C@_0CE@OEAOIBIG@could?5not?5create?5server?5info?5soc@ 00480054     server.obj
 0002:00003078       ??_C@_0BP@GPILIJPG@resolving?5?$CFs?4?4?4?5?$CIesc?5to?5abort?$CJ?$AA@ 00480078     serverbrowser.obj
 0002:00003098       ??_C@_0CD@MKLNNOMI@connecting?5to?5?$CFs?4?4?4?5?$CIesc?5to?5abor@ 00480098     serverbrowser.obj
 0002:000030bc       ??_C@_06CMOBCCHI@?$DMhtml?$DO?$AA@ 004800bc     serverbrowser.obj
 0002:000030c4       ??_C@_06HCPDOBJE@?$DMHTML?$DO?$AA@ 004800c4     serverbrowser.obj
 0002:000030cc       ??_C@_0BL@EGCJNHEC@master?5server?5not?5replying?$AA@ 004800cc     serverbrowser.obj
 0002:000030e8       ??_C@_09GMJEIMCB@addserver?$AA@ 004800e8     serverbrowser.obj
 0002:000030f4       ??_C@_0BB@MIFKGAAB@updatefrommaster?$AA@ 004800f4     serverbrowser.obj
 0002:00003108       ??_C@_0M@NILGCMNM@servers?4cfg?$AA@ 00480108     serverbrowser.obj
 0002:00003114       ??_C@_0DH@LBOGOOCC@?1?1?5servers?5connected?5to?5are?5adde@ 00480114     serverbrowser.obj
 0002:0000314c       ??_C@_0O@FLPNAGFJ@addserver?5?$CFs?6?$AA@ 0048014c     serverbrowser.obj
 0002:0000315c       ??_C@_0CD@FLEKKJFF@Error?5dispatching?5incoming?5packe@ 0048015c     protocol.obj
 0002:00003180       ??_C@_0BP@CMCNMCMC@Error?5sending?5outgoing?5packets?$AA@ 00480180     protocol.obj
 0002:000031a0       ??_C@_0CB@HOPEGIPO@Error?5receiving?5incoming?5packets@ 004801a0     protocol.obj
 0002:000031c4       ??_C@_0L@NOHENLJA@guiautotab?$AA@ 004801c4     3dgui.obj
 0002:000031d0       ??_C@_02DPKJAMEF@?$CFd?$AA@ 004801d0     3dgui.obj
 0002:000031d4       ?tc@?1??rect_@gui@@QAEXMMMMH@Z@4QAY01$$CBHA 004801d4     3dgui.obj
 0002:000031f4       ??_C@_0CB@BGHLLHNO@packages?1textures?1guioverlay?4png@ 004801f4     3dgui.obj
 0002:00003218       ??_C@_0CA@HKGPIICO@packages?1textures?1guislider?4png?$AA@ 00480218     3dgui.obj
 0002:00003238       ??_C@_0BG@OCDGFGEL@packages?1icons?1?$CFs?4jpg?$AA@ 00480238     3dgui.obj
 0002:00003250       ??_C@_0BO@CDLGFGAF@packages?1textures?1guiskin?4png?$AA@ 00480250     3dgui.obj
 0002:00003274       ??_7g3d_gui@@6B@           00480274     3dgui.obj
 0002:000032c4       ??_7gui@@6B@               004802c4     3dgui.obj
 0002:0000330c       ??_C@_06LCMJNBE@tricol?$AA@ 0048030c     bih.obj
 0002:00003314       ??_C@_0O@MHPAHBDD@grassanimdist?$AA@ 00480314     grass.obj
 0002:00003324       ??_C@_09IKBEHFNA@grassdist?$AA@ 00480324     grass.obj
 0002:00003330       ??_C@_0N@KHJNFIF@grassfalloff?$AA@ 00480330     grass.obj
 0002:00003340       ??_C@_0L@GDPBDIBN@grasswidth?$AA@ 00480340     grass.obj
 0002:0000334c       ??_C@_0M@HEFODBIP@grassheight?$AA@ 0048034c     grass.obj
 0002:00003358       ??_C@_09BBNPOLGJ@grassgrid?$AA@ 00480358     grass.obj
 0002:00003364       ??_C@_09KACCFNOK@grasstest?$AA@ 00480364     grass.obj
 0002:00003370       ??_C@_08OCGOFJPF@grasslod?$AA@ 00480370     grass.obj
 0002:0000337c       ??_C@_09BIOFPJLG@grasslodz?$AA@ 0048037c     grass.obj
 0002:00003388       ??_C@_09PODMBNGP@grassrand?$AA@ 00480388     grass.obj
 0002:00003394       ??_C@_0N@HHCILEEP@grasssamples?$AA@ 00480394     grass.obj
 0002:000033a4       ??_C@_0P@HIMDBJMF@grassbillboard?$AA@ 004803a4     grass.obj
 0002:000033b4       ??_C@_0P@FBLMJCMA@grassbbcorrect?$AA@ 004803b4     grass.obj
 0002:000033c4       ??_C@_0L@KHKHPCCG@grasstaper?$AA@ 004803c4     grass.obj
 0002:000033d0       ??_C@_0L@PNLCCKIK@grassblend?$AA@ 004803d0     grass.obj
 0002:000033dc       ??_C@_05JOBLOEL@grass?$AA@ 004803dc     grass.obj
 0002:000033e4       ??_C@_09GBGKBBIM@C?5?$CK?5T?5x?52?$AA@ 004803e4     grass.obj
 0002:000033f0       ??_C@_04MKBPEMMM@lava?$AA@ 004803f0     material.obj
 0002:000033f8       ??_C@_06IHODGGMJ@noclip?$AA@ 004803f8     material.obj
 0002:00003400       ??_C@_05NGDBJHKI@glass?$AA@ 00480400     material.obj
 0002:00003408       ??_C@_04POIGMEJN@clip?$AA@ 00480408     material.obj
 0002:00003410       ??_C@_05ELAABIKM@water?$AA@ 00480410     material.obj
 0002:00003418       ??_C@_03HCOFLFO@air?$AA@   00480418     material.obj
 0002:0000341c       ??_C@_07FKBPMEFO@optmats?$AA@ 0048041c     material.obj
 0002:00003424       ??_C@_07HJABAHAM@showmat?$AA@ 00480424     material.obj
 0002:0000342c       ??_C@_08IPGBCPIC@glassenv?$AA@ 0048042c     material.obj
 0002:00003438       ??_C@_06FNKMPIBD@camera?$AA@ 00480438     material.obj
 0002:00003440       ??_C@_0P@KOMPNBFC@ati_skybox_bug?$AA@ 00480440     rendergl.obj
 0002:00003450       ??_C@_0P@LHFJFAIN@ati_texgen_bug?$AA@ 00480450     rendergl.obj
 0002:00003460       ??_C@_0L@GICMCGLN@ati_oq_bug?$AA@ 00480460     rendergl.obj
 0002:0000346c       ??_C@_0BC@GGABJNAN@nvidia_texgen_bug?$AA@ 0048046c     rendergl.obj
 0002:00003480       ??_C@_0BE@MNJKHLLG@apple_glsldepth_bug?$AA@ 00480480     rendergl.obj
 0002:00003494       ??_C@_0BB@BANFKKOD@apple_minmax_bug?$AA@ 00480494     rendergl.obj
 0002:000034a8       ??_C@_0BC@GFDAOJIL@intel_quadric_bug?$AA@ 004804a8     rendergl.obj
 0002:000034bc       ??_C@_0BA@BCIJCKFI@minimizetcusage?$AA@ 004804bc     rendergl.obj
 0002:000034cc       ??_C@_0L@DHEIOBNO@emulatefog?$AA@ 004804cc     rendergl.obj
 0002:000034d8       ??_C@_0BC@HJILAOAN@Renderer?3?5?$CFs?5?$CI?$CFs?$CJ?$AA@ 004804d8     rendergl.obj
 0002:000034ec       ??_C@_0L@HEPJLAJM@Driver?3?5?$CFs?$AA@ 004804ec     rendergl.obj
 0002:000034f8       ??_C@_0BL@JFMOHFPL@GL_EXT_texture_env_combine?$AA@ 004804f8     rendergl.obj
 0002:00003514       ??_C@_0BL@MKOBGLKK@GL_ARB_texture_env_combine?$AA@ 00480514     rendergl.obj
 0002:00003530       ??_C@_0EM@BLFNMJBK@WARNING?3?5No?5texture_env_combine?5@ 00480530     rendergl.obj
 0002:0000357c       ??_C@_0BI@HELHCJPF@GL_EXT_texture_env_dot3?$AA@ 0048057c     rendergl.obj
 0002:00003594       ??_C@_0BI@LPMFLNGJ@GL_ARB_texture_env_dot3?$AA@ 00480594     rendergl.obj
 0002:000035ac       ??_C@_0BE@MEMOPMEA@GL_ARB_multitexture?$AA@ 004805ac     rendergl.obj
 0002:000035c0       ??_C@_0BD@IKCKKKNH@glActiveTextureARB?$AA@ 004805c0     rendergl.obj
 0002:000035d4       ??_C@_0BJ@PBJNGLJH@glClientActiveTextureARB?$AA@ 004805d4     rendergl.obj
 0002:000035f0       ??_C@_0BF@GFGCIEPA@glMultiTexCoord2fARB?$AA@ 004805f0     rendergl.obj
 0002:00003608       ??_C@_0BF@KODOFHFF@glMultiTexCoord3fARB?$AA@ 00480608     rendergl.obj
 0002:00003620       ??_C@_0CE@HEJCOKIJ@WARNING?3?5No?5multitexture?5extensi@ 00480620     rendergl.obj
 0002:00003644       ??_C@_0BM@OOMEFFAE@GL_ARB_vertex_buffer_object?$AA@ 00480644     rendergl.obj
 0002:00003660       ??_C@_0BA@COIMKEED@glGenBuffersARB?$AA@ 00480660     rendergl.obj
 0002:00003670       ??_C@_0BA@FDIFNALK@glBindBufferARB?$AA@ 00480670     rendergl.obj
 0002:00003680       ??_C@_0P@GLCCGPAH@glMapBufferARB?$AA@ 00480680     rendergl.obj
 0002:00003690       ??_C@_0BB@IODLHHEP@glUnmapBufferARB?$AA@ 00480690     rendergl.obj
 0002:000036a4       ??_C@_0BA@HLIGBCAN@glBufferDataARB?$AA@ 004806a4     rendergl.obj
 0002:000036b4       ??_C@_0BD@KFMFAAJP@glBufferSubDataARB?$AA@ 004806b4     rendergl.obj
 0002:000036c8       ??_C@_0BD@FPFIIGCI@glDeleteBuffersARB?$AA@ 004806c8     rendergl.obj
 0002:000036e0       ??_C@_0EP@JMJMBGDP@WARNING?3?5No?5vertex_buffer_object@ 004806e0     rendergl.obj
 0002:00003730       ??_C@_0BL@BBECEKLJ@GL_EXT_draw_range_elements?$AA@ 00480730     rendergl.obj
 0002:0000374c       ??_C@_0BH@GFFILNEF@glDrawRangeElementsEXT?$AA@ 0048074c     rendergl.obj
 0002:00003764       ??_C@_03LHBNGNJL@ATI?$AA@  00480764     rendergl.obj
 0002:00003768       ??_C@_0FA@DAAEEAMK@WARNING?3?5ATI?5cards?5may?5show?5garb@ 00480768     rendergl.obj
 0002:000037b8       ??_C@_08PDMNIOLD@Tungsten?$AA@ 004807b8     rendergl.obj
 0002:000037c4       ??_C@_05CDGBNGHP@Intel?$AA@ 004807c4     rendergl.obj
 0002:000037d0       ??_C@_0EH@IMKPAPAC@WARNING?3?5Using?5floating?5point?5ve@ 004807d0     rendergl.obj
 0002:00003818       ??_C@_0BG@LDHOGOBF@GL_ARB_vertex_program?$AA@ 00480818     rendergl.obj
 0002:00003830       ??_C@_0BI@LELAEDDA@GL_ARB_fragment_program?$AA@ 00480830     rendergl.obj
 0002:00003848       ??_C@_0FG@EGFMPELN@WARNING?3?5No?5shader?5support?$CB?5Usin@ 00480848     rendergl.obj
 0002:000038a0       ??_C@_06HLMMPIBG@NVIDIA?$AA@ 004808a0     rendergl.obj
 0002:000038a8       ??_C@_0FO@LAHIJHNB@WARNING?3?5Using?5ATI?5texgen?5bug?5wo@ 004808a8     rendergl.obj
 0002:00003908       ??_C@_0GE@GJAPPIEO@WARNING?3?5Using?5NVIDIA?5texgen?5bug@ 00480908     rendergl.obj
 0002:0000396c       ??_C@_0BB@JDDNIFAN@glGenProgramsARB?$AA@ 0048096c     rendergl.obj
 0002:00003980       ??_C@_0BE@EJCMOJPP@glDeleteProgramsARB?$AA@ 00480980     rendergl.obj
 0002:00003994       ??_C@_0BB@OAGHGJAC@glBindProgramARB?$AA@ 00480994     rendergl.obj
 0002:000039a8       ??_C@_0BD@HIBLHAHB@glProgramStringARB?$AA@ 004809a8     rendergl.obj
 0002:000039bc       ??_C@_0BC@OHCOJECC@glGetProgramivARB?$AA@ 004809bc     rendergl.obj
 0002:000039d0       ??_C@_0BL@PPAMELBE@glProgramEnvParameter4fARB?$AA@ 004809d0     rendergl.obj
 0002:000039ec       ??_C@_0BM@JFOBMKCG@glProgramEnvParameter4fvARB?$AA@ 004809ec     rendergl.obj
 0002:00003a08       ??_C@_0BM@IABMMANC@GL_ARB_shading_language_100?$AA@ 00480a08     rendergl.obj
 0002:00003a24       ??_C@_0BG@OLLFAEMA@GL_ARB_shader_objects?$AA@ 00480a24     rendergl.obj
 0002:00003a3c       ??_C@_0BF@GNLBPIJF@GL_ARB_vertex_shader?$AA@ 00480a3c     rendergl.obj
 0002:00003a54       ??_C@_0BH@MOFIMEJB@GL_ARB_fragment_shader?$AA@ 00480a54     rendergl.obj
 0002:00003a6c       ??_C@_0BJ@KGMBEPBI@glCreateProgramObjectARB?$AA@ 00480a6c     rendergl.obj
 0002:00003a88       ??_C@_0BC@MJFNICLA@glDeleteObjectARB?$AA@ 00480a88     rendergl.obj
 0002:00003a9c       ??_C@_0BG@JEOFPDIM@glUseProgramObjectARB?$AA@ 00480a9c     rendergl.obj
 0002:00003ab4       ??_C@_0BI@FMNPOEGE@glCreateShaderObjectARB?$AA@ 00480ab4     rendergl.obj
 0002:00003acc       ??_C@_0BC@MCCOFGJG@glShaderSourceARB?$AA@ 00480acc     rendergl.obj
 0002:00003ae0       ??_C@_0BD@BEDGBOPM@glCompileShaderARB?$AA@ 00480ae0     rendergl.obj
 0002:00003af4       ??_C@_0BK@IDAIKMOL@glGetObjectParameterivARB?$AA@ 00480af4     rendergl.obj
 0002:00003b10       ??_C@_0BC@GINLBKLJ@glAttachObjectARB?$AA@ 00480b10     rendergl.obj
 0002:00003b24       ??_C@_0BA@FLIOBLOG@glGetInfoLogARB?$AA@ 00480b24     rendergl.obj
 0002:00003b34       ??_C@_0BB@HPIAOOAG@glLinkProgramARB?$AA@ 00480b34     rendergl.obj
 0002:00003b48       ??_C@_0BI@CAFPPHDC@glGetUniformLocationARB?$AA@ 00480b48     rendergl.obj
 0002:00003b60       ??_C@_0BA@EFILMFAP@glUniform4fvARB?$AA@ 00480b60     rendergl.obj
 0002:00003b70       ??_C@_0P@CHIIJDJD@glUniform1iARB?$AA@ 00480b70     rendergl.obj
 0002:00003b80       ??_C@_0DB@NKIHFFPD@Rendering?5using?5the?5OpenGL?51?45?5G@ 00480b80     rendergl.obj
 0002:00003bb8       ??_C@_0GI@MGMMEOBK@WARNING?3?5Using?5Apple?5GLSL?5depth?5@ 00480bb8     rendergl.obj
 0002:00003c20       ??_C@_0DF@KGHDEKGI@Rendering?5using?5the?5OpenGL?51?45?5a@ 00480c20     rendergl.obj
 0002:00003c58       ??_C@_0BH@NKOBMOPI@GL_ARB_occlusion_query?$AA@ 00480c58     rendergl.obj
 0002:00003c70       ??_C@_0BA@DPEEILJC@glGetQueryivARB?$AA@ 00480c70     rendergl.obj
 0002:00003c80       ??_C@_0BA@BJHFNMK@glGenQueriesARB?$AA@ 00480c80     rendergl.obj
 0002:00003c90       ??_C@_0BD@HAEDHPKB@glDeleteQueriesARB?$AA@ 00480c90     rendergl.obj
 0002:00003ca4       ??_C@_0BA@LPKBABEB@glBeginQueryARB?$AA@ 00480ca4     rendergl.obj
 0002:00003cb4       ??_C@_0O@EFJDHGFG@glEndQueryARB?$AA@ 00480cb4     rendergl.obj
 0002:00003cc4       ??_C@_0BG@EDFKPCGN@glGetQueryObjectivARB?$AA@ 00480cc4     rendergl.obj
 0002:00003cdc       ??_C@_0BH@OOHKBDPD@glGetQueryObjectuivARB?$AA@ 00480cdc     rendergl.obj
 0002:00003cf8       ??_C@_0GD@KEHNEELF@WARNING?3?5Using?5ATI?5occlusion?5que@ 00480cf8     rendergl.obj
 0002:00003d5c       ??_C@_0DO@KNDHONLH@WARNING?3?5No?5occlusion?5query?5supp@ 00480d5c     rendergl.obj
 0002:00003d9c       ??_C@_0BJ@NKHMPMDJ@GL_ARB_texture_rectangle?$AA@ 00480d9c     rendergl.obj
 0002:00003db8       ??_C@_0EA@LPHIGJLP@WARNING?3?5No?5texture?5rectangle?5su@ 00480db8     rendergl.obj
 0002:00003df8       ??_C@_0BK@GDONINOA@GL_EXT_framebuffer_object?$AA@ 00480df8     rendergl.obj
 0002:00003e14       ??_C@_0BG@GLKALDNN@glBindRenderbufferEXT?$AA@ 00480e14     rendergl.obj
 0002:00003e2c       ??_C@_0BJ@FCLEPNJL@glDeleteRenderbuffersEXT?$AA@ 00480e2c     rendergl.obj
 0002:00003e48       ??_C@_0BG@HHIDFCMP@glGenRenderbuffersEXT?$AA@ 00480e48     rendergl.obj
 0002:00003e60       ??_C@_0BJ@NPDAOAPK@glRenderbufferStorageEXT?$AA@ 00480e60     rendergl.obj
 0002:00003e7c       ??_C@_0BM@GOHPHGGE@glCheckFramebufferStatusEXT?$AA@ 00480e7c     rendergl.obj
 0002:00003e98       ??_C@_0BF@EMIECBAK@glBindFramebufferEXT?$AA@ 00480e98     rendergl.obj
 0002:00003eb0       ??_C@_0BI@NPEJNLO@glDeleteFramebuffersEXT?$AA@ 00480eb0     rendergl.obj
 0002:00003ec8       ??_C@_0BF@FFIJGJAM@glGenFramebuffersEXT?$AA@ 00480ec8     rendergl.obj
 0002:00003ee0       ??_C@_0BK@LFOBEPCF@glFramebufferTexture2DEXT?$AA@ 00480ee0     rendergl.obj
 0002:00003efc       ??_C@_0BN@BAGKOCJP@glFramebufferRenderbufferEXT?$AA@ 00480efc     rendergl.obj
 0002:00003f1c       ??_C@_0BE@CIGLHJJK@glGenerateMipmapEXT?$AA@ 00480f1c     rendergl.obj
 0002:00003f30       ??_C@_0EH@GGHBJMHC@WARNING?3?5No?5framebuffer?5object?5s@ 00480f30     rendergl.obj
 0002:00003f78       ??_C@_0BM@EBAGAGKL@GL_EXT_packed_depth_stencil?$AA@ 00480f78     rendergl.obj
 0002:00003f94       ??_C@_0BL@FNNDLGCL@GL_NV_packed_depth_stencil?$AA@ 00480f94     rendergl.obj
 0002:00003fb0       ??_C@_0BE@CICKIAIK@GL_EXT_blend_minmax?$AA@ 00480fb0     rendergl.obj
 0002:00003fc4       ??_C@_0BD@CFOJJHII@glBlendEquationEXT?$AA@ 00480fc4     rendergl.obj
 0002:00003fd8       ??_C@_0BF@IMLAOOOI@GL_ARB_texture_float?$AA@ 00480fd8     rendergl.obj
 0002:00003ff0       ??_C@_0BF@HBFPHCFN@GL_ATI_texture_float?$AA@ 00480ff0     rendergl.obj
 0002:00004008       ??_C@_0BI@GGDPEJMJ@GL_ARB_texture_cube_map?$AA@ 00481008     rendergl.obj
 0002:00004020       ??_C@_0DM@CLGPGOGL@WARNING?3?5No?5cube?5map?5texture?5sup@ 00481020     rendergl.obj
 0002:0000405c       ??_C@_0CA@IICOLDCN@GL_ARB_texture_non_power_of_two?$AA@ 0048105c     rendergl.obj
 0002:0000407c       ??_C@_0DC@CBFJMFED@WARNING?3?5Non?9power?9of?9two?5textur@ 0048107c     rendergl.obj
 0002:000040b0       ??_C@_0CA@DJMDGOCK@GL_EXT_texture_compression_s3tc?$AA@ 004810b0     rendergl.obj
 0002:000040d0       ??_C@_0BD@CAOMAHIP@data?1stdshader?4cfg?$AA@ 004810d0     rendergl.obj
 0002:000040e4       ??_C@_07DLHCIBDH@default?$AA@ 004810e4     rendergl.obj
 0002:000040ec       ??_C@_09FJCIKLMG@notexture?$AA@ 004810ec     rendergl.obj
 0002:000040f8       ??_C@_07JIDCOMKJ@nocolor?$AA@ 004810f8     rendergl.obj
 0002:00004100       ??_C@_06LBDJCHFO@fogged?$AA@ 00481100     rendergl.obj
 0002:00004108       ??_C@_0BA@OABDONLF@foggednotexture?$AA@ 00481108     rendergl.obj
 0002:00004118       ??_C@_09EJHLMDCH@wireframe?$AA@ 00481118     rendergl.obj
 0002:00004124       ??_C@_03PKBINKFB@fov?$AA@  00481124     rendergl.obj
 0002:00004128       ??_C@_03KJMBPJEB@fog?$AA@  00481128     rendergl.obj
 0002:0000412c       ??_C@_09KKDACDEI@fogcolour?$AA@ 0048112c     rendergl.obj
 0002:00004138       ??_C@_0M@BIELKGOF@thirdperson?$AA@ 00481138     rendergl.obj
 0002:00004144       ??_C@_0BE@HEOMDBLC@thirdpersondistance?$AA@ 00481144     rendergl.obj
 0002:00004158       ??_C@_0BC@DIOKKNHE@thirdpersonheight?$AA@ 00481158     rendergl.obj
 0002:0000416c       ??_C@_0BB@PPBJLLDM@thirdpersonscale?$AA@ 0048116c     rendergl.obj
 0002:00004180       ??_C@_0BB@HNLCLCPC@thirdpersonstick?$AA@ 00481180     rendergl.obj
 0002:00004194       ??_C@_0M@HOMLGBAJ@reflectclip?$AA@ 00481194     rendergl.obj
 0002:000041a0       ??_C@_0L@HLCICCOO@reflectmms?$AA@ 004811a0     rendergl.obj
 0002:000041ac       ??_C@_09ENDJAEMA@fogselect?$AA@ 004811ac     rendergl.obj
 0002:000041b8       ??_C@_08PPOMKNCA@fogplane?$AA@ 004811b8     rendergl.obj
 0002:000041c4       ??_C@_09CHIPCGFB@hudgunfov?$AA@ 004811c4     rendergl.obj
 0002:000041d0       ??_C@_0O@DOKGGKIC@crosshairsize?$AA@ 004811d0     rendergl.obj
 0002:000041e0       ??_C@_0L@DDAAENOC@cursorsize?$AA@ 004811e0     rendergl.obj
 0002:000041ec       ??_C@_09PGDOGKEO@hidestats?$AA@ 004811ec     rendergl.obj
 0002:000041f8       ??_C@_07OIHDPMCL@hidehud?$AA@ 004811f8     rendergl.obj
 0002:00004200       ??_C@_0M@DDOMLNPO@crosshairfx?$AA@ 00481200     rendergl.obj
 0002:0000420c       ??_C@_0CA@LPBDAOLL@packages?1textures?1crosshair?4png?$AA@ 0048120c     rendergl.obj
 0002:0000422c       ??_C@_0O@DPLKEGFF@loadcrosshair?$AA@ 0048122c     rendergl.obj
 0002:0000423c       ??_C@_0BE@OCFMHAFN@loadcrosshair?5?$CC?$CFs?$CC?6?$AA@ 0048123c     rendergl.obj
 0002:00004250       ??_C@_0CA@PDLJFNBH@packages?1textures?1guicursor?4png?$AA@ 00481250     rendergl.obj
 0002:00004270       ??_C@_0N@DMKINMJG@showfpsrange?$AA@ 00481270     rendergl.obj
 0002:00004280       ??_C@_0M@PKPHMOHB@?$CFd?$CL?$CFd?9?$CFd?3?$CFd?$AA@ 00481280     rendergl.obj
 0002:0000428c       ??_C@_05NFGPCJDJ@?$CFd?3?$CFd?$AA@ 0048128c     rendergl.obj
 0002:00004294       ??_C@_02DHALJBCH@1?1?$AA@  00481294     rendergl.obj
 0002:00004298       ??_C@_09JPMBOKHM@cube?5?$CFs?$CFd?$AA@ 00481298     rendergl.obj
 0002:000042a4       ??_C@_0CM@JJLHGBCH@wtr?3?$CFdk?$CI?$CFd?$CF?$CF?$CJ?5wvt?3?$CFdk?$CI?$CFd?$CF?$CF?$CJ?5evt?3@ 004812a4     rendergl.obj
 0002:000042d0       ??_C@_0CG@JEBADLIP@ond?3?$CFd?5va?3?$CFd?5gl?3?$CFd?5oq?3?$CFd?5lm?3?$CFd?0?5@ 004812d0     rendergl.obj
 0002:000042f8       ??_C@_07PDLPCFNG@edithud?$AA@ 004812f8     rendergl.obj
 0002:00004300       ??_C@_08DDNKEEEK@hudblend?$AA@ 00481300     rendergl.obj
 0002:0000430c       ??_C@_0L@BNKOCIHB@showentdir?$AA@ 0048130c     rendergl.obj
 0002:00004318       ??_C@_0BE@DIILBKIK@Untitled?5by?5Unknown?$AA@ 00481318     rendergl.obj
 0002:0000432c       ??_C@_0BJ@KFFBBHGN@packages?1icons?1sauer?4jpg?$AA@ 0048132c     rendergl.obj
 0002:00004348       ??_C@_02DKCKIIND@?$CFs?$AA@ 00481348     rendergl.obj
 0002:0000434c       ??_C@_0BL@EOHILJGD@packages?1icons?1overlay?4png?$AA@ 0048134c     rendergl.obj
 0002:00004368       ??_C@_07LALFPDBE@powerup?$AA@ 00481368     rendermodel.obj
 0002:00004370       ??_C@_06IDDCOJOK@shield?$AA@ 00481370     rendermodel.obj
 0002:00004378       ??_C@_04NIIEPFJF@vwep?$AA@ 00481378     rendermodel.obj
 0002:00004380       ??_C@_08FKJOCMIK@gun?5zoom?$AA@ 00481380     rendermodel.obj
 0002:0000438c       ??_C@_0L@MEONJGFC@gun?5reload?$AA@ 0048138c     rendermodel.obj
 0002:00004398       ??_C@_08GAEAHCII@gun?5idle?$AA@ 00481398     rendermodel.obj
 0002:000043a4       ??_C@_09NAMPBBFG@gun?5shoot?$AA@ 004813a4     rendermodel.obj
 0002:000043b0       ??_C@_04EIGHDMBA@lose?$AA@ 004813b0     rendermodel.obj
 0002:000043b8       ??_C@_03JECLAOEA@win?$AA@  004813b8     rendermodel.obj
 0002:000043bc       ??_C@_05CPCHEFAA@taunt?$AA@ 004813bc     rendermodel.obj
 0002:000043c4       ??_C@_03MMOCDECP@lag?$AA@  004813c4     rendermodel.obj
 0002:000043c8       ??_C@_04NABONMNG@edit?$AA@ 004813c8     rendermodel.obj
 0002:000043d0       ??_C@_04OGBCOPJN@swim?$AA@ 004813d0     rendermodel.obj
 0002:000043d8       ??_C@_04FMBHODC@sink?$AA@  004813d8     rendermodel.obj
 0002:000043e0       ??_C@_04PPONMOMN@pain?$AA@ 004813e0     rendermodel.obj
 0002:000043e8       ??_C@_05BFEMKAF@shoot?$AA@ 004813e8     rendermodel.obj
 0002:000043f0       ??_C@_05EIGBCIME@punch?$AA@ 004813f0     rendermodel.obj
 0002:000043f8       ??_C@_04EAPMNACM@idle?$AA@ 004813f8     rendermodel.obj
 0002:00004400       ??_C@_05HEBDCGN@dying?$AA@ 00481400     rendermodel.obj
 0002:00004408       ??_C@_04BBBDNBOK@dead?$AA@ 00481408     rendermodel.obj
 0002:00004410       ??_C@_08IKOCJEBA@oqdynent?$AA@ 00481410     rendermodel.obj
 0002:0000441c       ??_C@_0BL@GNIBKKNJ@animationinterpolationtime?$AA@ 0048141c     rendermodel.obj
 0002:00004438       ??_C@_0BI@MOCNNLLN@orientinterpolationtime?$AA@ 00481438     rendermodel.obj
 0002:00004450       ??_C@_05MPLBBCDO@dbgts?$AA@ 00481450     rendermodel.obj
 0002:00004458       ??_C@_06NJLCHBAN@tsswap?$AA@ 00481458     rendermodel.obj
 0002:00004460       ??_C@_0BA@MHHNAACG@excessive?5links?$AA@ 00481460     rendermodel.obj
 0002:00004470       ??_C@_0CD@PEANFHKP@addtriangles?3?5tris?5?$DN?5?$CFd?0?5inds?5?$DN?5@ 00481470     rendermodel.obj
 0002:00004494       ??_C@_0BE@PLOPBMJN@degenerate?5triangle?$AA@ 00481494     rendermodel.obj
 0002:000044a8       ??_C@_0BL@PILEFFLP@failed?5linkage?51?3?5?$CFd?5?9?$DO?5?$CFd?$AA@ 004814a8     rendermodel.obj
 0002:000044c4       ??_C@_0BL@IPCKIHEP@failed?5linkage?52?3?5?$CFd?5?9?$DO?5?$CFd?$AA@ 004814c4     rendermodel.obj
 0002:000044e0       ??_C@_0BD@NJIHBPJ@no?5connections?3?5?$CFd?$AA@ 004814e0     rendermodel.obj
 0002:000044f4       ??_C@_0CP@KAJHEILE@strips?5?$DN?5?$CFd?0?5tris?5?$DN?5?$CFd?0?5inds?5?$DN?5?$CF@ 004814f4     rendermodel.obj
 0002:00004524       ??_C@_0M@EICHENBM@lightmodels?$AA@ 00481524     rendermodel.obj
 0002:00004530       ??_C@_0N@MBKECCEG@envmapmodels?$AA@ 00481530     rendermodel.obj
 0002:00004540       ??_C@_0L@DFFFKBMN@glowmodels?$AA@ 00481540     rendermodel.obj
 0002:0000454c       ??_C@_07CLLCODOO@Ca?5?$CK?5Ta?$AA@ 0048154c     rendermodel.obj
 0002:00004554       ??_C@_09KMDJHGLD@K?5?0?5C?5?$EA?5T?$AA@ 00481554     rendermodel.obj
 0002:00004560       ??_C@_04NAAEKPLN@?$DN?5Pa?$AA@ 00481560     rendermodel.obj
 0002:00004568       ??_C@_07EKLGDPJB@Ta?5?$CK?5Ka?$AA@ 00481568     rendermodel.obj
 0002:00004570       ??_C@_04NHANAHGB@?$DN?5Ta?$AA@ 00481570     rendermodel.obj
 0002:00004578       ??_C@_05KKGHOIEF@P?5?$CK?5T?$AA@ 00481578     rendermodel.obj
 0002:00004580       ??_C@_08BLCDFCPB@stdmodel?$AA@ 00481580     rendermodel.obj
 0002:0000458c       ??_C@_0M@NFPFFALN@nospecmodel?$AA@ 0048158c     rendermodel.obj
 0002:00004598       ??_C@_0L@DECKMCAF@masksmodel?$AA@ 00481598     rendermodel.obj
 0002:000045a4       ??_C@_0BB@ECEHJLDO@masksnospecmodel?$AA@ 004815a4     rendermodel.obj
 0002:000045b8       ??_C@_0M@MDDMNLI@envmapmodel?$AA@ 004815b8     rendermodel.obj
 0002:000045c4       ??_C@_0BC@GBCKKAHJ@envmapnospecmodel?$AA@ 004815c4     rendermodel.obj
 0002:000045d8       ??_C@_09FKAENNFC@specscale?$AA@ 004815d8     rendermodel.obj
 0002:000045e4       ??_C@_09DMOEOJLA@glowscale?$AA@ 004815e4     rendermodel.obj
 0002:000045f0       ??_C@_06MJCPFLFL@millis?$AA@ 004815f0     rendermodel.obj
 0002:000045f8       ??_C@_0M@BJNCDDKG@envmapscale?$AA@ 004815f8     rendermodel.obj
 0002:00004604       ??_C@_09HPKLLIJF@direction?$AA@ 00481604     rendermodel.obj
 0002:00004610       ??_C@_0CH@PGLCFIDP@invalid?5frame?5?$CFd?0?5range?5?$CFd?5in?5mo@ 00481610     rendermodel.obj
 0002:00004638       ??_C@_04MAHHODCM@?$DN?5Ka?$AA@ 00481638     rendermodel.obj
 0002:00004640       ??_C@_0L@ECBDJPCE@T?5?0?5P?5?$EA?5Pa?$AA@ 00481640     rendermodel.obj
 0002:0000464c       ?zero@?4??startrender@vertmodel@@UAEXXZ@4QBMB 0048164c     rendermodel.obj
 0002:0000465c       ??_C@_02JDPG@rb?$AA@       0048165c     rendermodel.obj
 0002:00004660       ??_C@_0BM@GHKCHKHL@packages?1models?1?$CFs?1tris?4md2?$AA@ 00481660     rendermodel.obj
 0002:0000467c       ??_C@_0CB@MDONGMDC@could?5not?5load?5model?5skin?5for?5?$CFs@ 0048167c     rendermodel.obj
 0002:000046a0       ??_C@_0BL@DINBKKGD@packages?1models?1?$CFs?1md2?4cfg?$AA@ 004816a0     rendermodel.obj
 0002:000046bc       ??_C@_0BD@HOFNMLNO@not?5loading?5an?5md2?$AA@ 004816bc     rendermodel.obj
 0002:000046d0       ??_C@_0BM@KIFNKFIM@could?5not?5find?5animation?5?$CFs?$AA@ 004816d0     rendermodel.obj
 0002:000046ec       ??_C@_04EOBPFJGD@ffff?$AA@ 004816ec     rendermodel.obj
 0002:000046f4       ??_C@_08EDGPCMHI@md2pitch?$AA@ 004816f4     rendermodel.obj
 0002:00004700       ??_C@_05OJOCOLPK@siifi?$AA@ 00481700     rendermodel.obj
 0002:00004708       ??_C@_07PIGGACE@md2anim?$AA@ 00481708     rendermodel.obj
 0002:00004710       ??_C@_04OAJPLGDA@IDP3?$AA@ 00481710     rendermodel.obj
 0002:00004718       ??_C@_0BG@EFCKECLA@md3?3?5corrupted?5header?$AA@ 00481718     rendermodel.obj
 0002:00004730       ??_C@_0L@FGMMEJDC@tag_weapon?$AA@ 00481730     rendermodel.obj
 0002:0000473c       ??_C@_0L@LBADMEEA@tag_shield?$AA@ 0048173c     rendermodel.obj
 0002:00004748       ??_C@_0M@IGIEIIMP@tag_powerup?$AA@ 00481748     rendermodel.obj
 0002:00004754       ??_C@_0BM@HOLJELDK@packages?1models?1?$CFs?1tris?4md3?$AA@ 00481754     rendermodel.obj
 0002:00004770       ??_C@_0BD@HIJBPBMD@packages?1models?1?$CFs?$AA@ 00481770     rendermodel.obj
 0002:00004784       ??_C@_0BL@PDINHJMG@packages?1models?1?$CFs?1md3?4cfg?$AA@ 00481784     rendermodel.obj
 0002:000047a0       ??_C@_0BD@GHEGPKJP@not?5loading?5an?5md3?$AA@ 004817a0     rendermodel.obj
 0002:000047b4       ??_C@_05GFOLEBJA@?$CFs?1?$CFs?$AA@ 004817b4     rendermodel.obj
 0002:000047bc       ??_C@_0BC@BECPHHLH@could?5not?5load?5?$CFs?$AA@ 004817bc     rendermodel.obj
 0002:000047d0       ??_C@_01NBENCBCI@?$CK?$AA@ 004817d0     rendermodel.obj
 0002:000047d4       ??_C@_0M@CNJJDFKL@?$DMffmask?325?$DO?$AA@ 004817d4     rendermodel.obj
 0002:000047e0       ??_C@_07NNBNJJNO@?$CFs?$CFs?1?$CFs?$AA@ 004817e0     rendermodel.obj
 0002:000047e8       ??_C@_0BJ@MBNLEDHP@no?5models?5loaded?5to?5link?$AA@ 004817e8     rendermodel.obj
 0002:00004804       ??_C@_0BI@EBDAPHJE@could?5not?5link?5model?5?$CFs?$AA@ 00481804     rendermodel.obj
 0002:0000481c       ??_C@_07FLCHPKKE@md3load?$AA@ 0048181c     rendermodel.obj
 0002:00004824       ??_C@_08OFBICHMM@md3pitch?$AA@ 00481824     rendermodel.obj
 0002:00004830       ??_C@_05HLIOMPON@sssff?$AA@ 00481830     rendermodel.obj
 0002:00004838       ??_C@_07MCAJNEJC@md3skin?$AA@ 00481838     rendermodel.obj
 0002:00004840       ??_C@_02OCDGCAAK@si?$AA@   00481840     rendermodel.obj
 0002:00004844       ??_C@_07PJKFIDCF@md3spec?$AA@ 00481844     rendermodel.obj
 0002:0000484c       ??_C@_0L@OCFEKGLF@md3ambient?$AA@ 0048184c     rendermodel.obj
 0002:00004858       ??_C@_07FFDDAIMD@md3glow?$AA@ 00481858     rendermodel.obj
 0002:00004860       ??_C@_02GFKODMMF@sf?$AA@   00481860     rendermodel.obj
 0002:00004864       ??_C@_0N@GNBFAAOB@md3alphatest?$AA@ 00481864     rendermodel.obj
 0002:00004874       ??_C@_0O@GKKNMEFP@md3alphablend?$AA@ 00481874     rendermodel.obj
 0002:00004884       ??_C@_02FCBLNKNB@ss?$AA@   00481884     rendermodel.obj
 0002:00004888       ??_C@_09CFHDEH@md3envmap?$AA@ 00481888     rendermodel.obj
 0002:00004894       ??_C@_0P@HMAOFCAB@md3translucent?$AA@ 00481894     rendermodel.obj
 0002:000048a4       ??_C@_0O@EIALPFHP@md3fullbright?$AA@ 004818a4     rendermodel.obj
 0002:000048b4       ??_C@_09EIIFPHOI@md3shader?$AA@ 004818b4     rendermodel.obj
 0002:000048c0       ??_C@_03NIMMFECC@sff?$AA@  004818c0     rendermodel.obj
 0002:000048c4       ??_C@_09JJDGJCI@md3scroll?$AA@ 004818c4     rendermodel.obj
 0002:000048d0       ??_C@_07MENKLDIB@md3anim?$AA@ 004818d0     rendermodel.obj
 0002:000048d8       ??_C@_03NLIBECPA@iis?$AA@  004818d8     rendermodel.obj
 0002:000048dc       ??_C@_07PCIIPOIK@md3link?$AA@ 004818dc     rendermodel.obj
 0002:000048e4       ??_C@_0BE@BMJMPKHA@not?5loading?5a?5model?$AA@ 004818e4     rendermodel.obj
 0002:000048f8       ??_C@_0M@GMIMGGAH@mdlcullface?$AA@ 004818f8     rendermodel.obj
 0002:00004904       ??_C@_0L@HMHHMJDI@mdlcollide?$AA@ 00481904     rendermodel.obj
 0002:00004910       ??_C@_0O@KLOCCBIO@mdltricollide?$AA@ 00481910     rendermodel.obj
 0002:00004920       ??_C@_07EHNDJAH@mdlspec?$AA@ 00481920     rendermodel.obj
 0002:00004928       ??_C@_0L@EPLPCIBC@mdlambient?$AA@ 00481928     rendermodel.obj
 0002:00004934       ??_C@_0N@IGFDCJAD@mdlalphatest?$AA@ 00481934     rendermodel.obj
 0002:00004944       ??_C@_0O@CEECABCC@mdlalphablend?$AA@ 00481944     rendermodel.obj
 0002:00004954       ??_C@_07KIOLLCOB@mdlglow?$AA@ 00481954     rendermodel.obj
 0002:0000495c       ??_C@_09IMCDJCCN@mdlenvmap?$AA@ 0048195c     rendermodel.obj
 0002:00004968       ??_C@_0P@FCPELAEF@mdltranslucent?$AA@ 00481968     rendermodel.obj
 0002:00004978       ??_C@_0O@GOEDAAC@mdlfullbright?$AA@ 00481978     rendermodel.obj
 0002:00004988       ??_C@_09MEIDBGIC@mdlshader?$AA@ 00481988     rendermodel.obj
 0002:00004994       ??_C@_07LIMJLOCO@mdlspin?$AA@ 00481994     rendermodel.obj
 0002:0000499c       ??_C@_08CFJEEKEA@mdlscale?$AA@ 0048199c     rendermodel.obj
 0002:000049a8       ??_C@_03LPALPDIP@fff?$AA@  004819a8     rendermodel.obj
 0002:000049ac       ??_C@_08HKANKFHD@mdltrans?$AA@ 004819ac     rendermodel.obj
 0002:000049b8       ??_C@_09LEGDGHBB@mdlshadow?$AA@ 004819b8     rendermodel.obj
 0002:000049c4       ??_C@_05PLINMNIF@mdlbb?$AA@ 004819c4     rendermodel.obj
 0002:000049cc       ??_C@_07CMOBKMPA@mdlname?$AA@ 004819cc     rendermodel.obj
 0002:000049d4       ??_C@_06BEOKLMII@mmodel?$AA@ 004819d4     rendermodel.obj
 0002:000049dc       ??_C@_05OBGPFBEH@iiiss?$AA@ 004819dc     rendermodel.obj
 0002:000049e4       ??_C@_08NIOLEMIA@mapmodel?$AA@ 004819e4     rendermodel.obj
 0002:000049f0       ??_C@_0O@OHIPMJPN@mapmodelreset?$AA@ 004819f0     rendermodel.obj
 0002:00004a00       ??_C@_0BA@JADGNNMO@showboundingbox?$AA@ 00481a00     rendermodel.obj
 0002:00004a10       ??_C@_0BA@HHBLPNGJ@bounddynshadows?$AA@ 00481a10     rendermodel.obj
 0002:00004a20       ??_C@_09FHNMOOIA@dynshadow?$AA@ 00481a20     rendermodel.obj
 0002:00004a2c       ??_C@_0BH@PFDHJJMK@maxmodelradiusdistance?$AA@ 00481a2c     rendermodel.obj
 0002:00004a44       ??_C@_04NHPAFEHJ@skin?$AA@ 00481a44     rendermodel.obj
 0002:00004a4c       ??_C@_0BM@OIHPNLNO@?$CFspackages?1models?1?$CFs?1?$CFs?4jpg?$AA@ 00481a4c     rendermodel.obj
 0002:00004a68       ??_C@_03NNHBJLDF@png?$AA@  00481a68     rendermodel.obj
 0002:00004a6c       ??_C@_05GHBPBNKD@masks?$AA@ 00481a6c     rendermodel.obj
 0002:00004a74       ??_C@_0N@JOEMMBP@animoverride?$AA@ 00481a74     rendermodel.obj
 0002:00004a84       ??_C@_09CIECMLNH@testanims?$AA@ 00481a84     rendermodel.obj
 0002:00004a94       ??_7model@@6B@             00481a94     rendermodel.obj
 0002:00004aec       ??_7vertmodel@@6B@         00481aec     rendermodel.obj
 0002:00004b50       ??_7part@vertmodel@@6B@    00481b50     rendermodel.obj
 0002:00004b5c       ??_7meshgroup@vertmodel@@6B@ 00481b5c     rendermodel.obj
 0002:00004b64       ??_7md2@@6B@               00481b64     rendermodel.obj
 0002:00004bc8       ??_7md2meshgroup@md2@@6B@  00481bc8     rendermodel.obj
 0002:00004bd0       ??_7md2part@md2@@6B@       00481bd0     rendermodel.obj
 0002:00004bdc       ??_7md3@@6B@               00481bdc     rendermodel.obj
 0002:00004c40       ??_7md3meshgroup@md3@@6B@  00481c40     rendermodel.obj
 0002:00004c44       ??_C@_0M@IAHHDIEO@flarelights?$AA@ 00481c44     renderparticles.obj
 0002:00004c50       ??_C@_0M@JAKLMOKG@flarecutoff?$AA@ 00481c50     renderparticles.obj
 0002:00004c5c       ??_C@_09PMOEDODC@flaresize?$AA@ 00481c5c     renderparticles.obj
 0002:00004c68       ??_C@_0CB@CBBHDOLA@packages?1textures?1lensflares?4png@ 00481c68     renderparticles.obj
 0002:00004c8c       ??_C@_0M@CBHBLPNE@explosion2d?$AA@ 00481c8c     renderparticles.obj
 0002:00004c98       ??_C@_0M@CALDNFOD@explosion3d?$AA@ 00481c98     renderparticles.obj
 0002:00004ca4       ??_C@_04MOGELCJE@?$DN?5Ca?$AA@ 00481ca4     renderparticles.obj
 0002:00004cac       ??_C@_05CPCFJIHA@C?5?$CK?5T?$AA@ 00481cac     renderparticles.obj
 0002:00004cb4       ??_C@_0M@HAOAEAOE@Pa?5?$CK?5Ta?5x?54?$AA@ 00481cb4     renderparticles.obj
 0002:00004cc0       ??_C@_0L@LFCNPJLH@P?5?$CK?5Ta?5x?54?$AA@ 00481cc0     renderparticles.obj
 0002:00004ccc       ??_C@_0N@KDFPFDGD@particlesize?$AA@ 00481ccc     renderparticles.obj
 0002:00004cdc       ??_C@_07IFLAFBEL@emitfps?$AA@ 00481cdc     renderparticles.obj
 0002:00004ce4       ??_C@_0BL@BLPLGOHO@packages?1textures?1base?4png?$AA@ 00481ce4     renderparticles.obj
 0002:00004d00       ??_C@_0BM@GHKNOGKG@packages?1textures?1ball1?4png?$AA@ 00481d00     renderparticles.obj
 0002:00004d1c       ??_C@_0BM@JFMCIMOI@packages?1textures?1smoke?4png?$AA@ 00481d1c     renderparticles.obj
 0002:00004d38       ??_C@_0BM@OBDJJEAI@packages?1textures?1ball2?4png?$AA@ 00481d38     renderparticles.obj
 0002:00004d54       ??_C@_0BM@CKGFEHKN@packages?1textures?1ball3?4png?$AA@ 00481d54     renderparticles.obj
 0002:00004d70       ??_C@_0BM@INOOCAKJ@packages?1textures?1flare?4jpg?$AA@ 00481d70     renderparticles.obj
 0002:00004d8c       ??_C@_0BM@BFILIDJB@packages?1textures?1spark?4png?$AA@ 00481d8c     renderparticles.obj
 0002:00004da8       ??_C@_0CA@MADGAJIP@packages?1textures?1explosion?4jpg?$AA@ 00481da8     renderparticles.obj
 0002:00004dc8       ??_C@_0BM@HFMGIFML@packages?1textures?1blood?4png?$AA@ 00481dc8     renderparticles.obj
 0002:00004de4       ??_C@_0CA@MMBBHLCE@packages?1textures?1lightning?4jpg?$AA@ 00481de4     renderparticles.obj
 0002:00004e04       ??_C@_0CB@LGOEGPCA@packages?1textures?1electricty?4png@ 00481e04     renderparticles.obj
 0002:00004e28       ??_C@_0O@OOJJHDKO@outlinemeters?$AA@ 00481e28     renderparticles.obj
 0002:00004e38       ??_C@_09BMKCDGNF@decalfade?$AA@ 00481e38     renderparticles.obj
 0002:00004e44       ??_C@_0P@LJCANBI@lnjittermillis?$AA@ 00481e44     renderparticles.obj
 0002:00004e54       ??_C@_0P@GEMFICLF@lnjitterradius?$AA@ 00481e54     renderparticles.obj
 0002:00004e64       ??_C@_07HIANBHMD@texgenS?$AA@ 00481e64     renderparticles.obj
 0002:00004e6c       ??_C@_07DHEMIBAE@texgenT?$AA@ 00481e6c     renderparticles.obj
 0002:00004e74       ??_C@_06BBLOAEEI@center?$AA@ 00481e74     renderparticles.obj
 0002:00004e7c       ??_C@_09NKDIMCCM@animstate?$AA@ 00481e7c     renderparticles.obj
 0002:00004e88       ??_C@_0BE@LAKOEIGO@maxparticledistance?$AA@ 00481e88     renderparticles.obj
 0002:00004e9c       ??_C@_0N@LPEMHLF@particletext?$AA@ 00481e9c     renderparticles.obj
 0002:00004eac       ??_C@_0P@IHBKALCL@?$EAparticles?5?$CFd?$DP?$AA@ 00481eac     renderparticles.obj
 0002:00004ebc       ??_C@_03HPDLNGOA@?$EA?$CFs?$AA@ 00481ebc     renderparticles.obj
 0002:00004ec0       ??_C@_02HNLLPFKA@up?$AA@   00481ec0     rendersky.obj
 0002:00004ec4       ??_C@_02LEBOADDI@dn?$AA@   00481ec4     rendersky.obj
 0002:00004ec8       ??_C@_02BMJICGCB@rt?$AA@   00481ec8     rendersky.obj
 0002:00004ecc       ??_C@_02HCNENIII@lf?$AA@   00481ecc     rendersky.obj
 0002:00004ed0       ??_C@_02MNOEILMP@bk?$AA@   00481ed0     rendersky.obj
 0002:00004ed4       ??_C@_02HLHCNIN@ft?$AA@    00481ed4     rendersky.obj
 0002:00004ed8       ??_C@_0BD@PJLEBFJF@packages?1?$CFs_?$CFs?4jpg?$AA@ 00481ed8     rendersky.obj
 0002:00004eec       ??_C@_0CK@JALDGMPP@could?5not?5load?5sky?5texture?5packa@ 00481eec     rendersky.obj
 0002:00004f18       ??_C@_07MIIENBA@loadsky?$AA@ 00481f18     rendersky.obj
 0002:00004f20       ??_C@_09NHMEHIJD@no?5skybox?$AA@ 00481f20     rendersky.obj
 0002:00004f2c       ??_C@_0L@BMHEACHN@sparklyfix?$AA@ 00481f2c     rendersky.obj
 0002:00004f38       ??_C@_07HBPONMDL@showsky?$AA@ 00481f38     rendersky.obj
 0002:00004f40       ??_C@_08OCOHFIGC@ssiiiiii?$AA@ 00481f40     rendertext.obj
 0002:00004f4c       ??_C@_04EFPADHIC@font?$AA@ 00481f4c     rendertext.obj
 0002:00004f54       ??_C@_04BIOIIFBG@iiii?$AA@ 00481f54     rendertext.obj
 0002:00004f5c       ??_C@_08GCLBBF@fontchar?$AA@ 00481f5c     rendertext.obj
 0002:00004f6c       ??_C@_07EOKGHBAA@oqfrags?$AA@ 00481f6c     renderva.obj
 0002:00004f74       ??_C@_09GDOPFCPM@oqreflect?$AA@ 00481f74     renderva.obj
 0002:00004f80       ??_C@_04GBGAGCBO@oqmm?$AA@ 00481f80     renderva.obj
 0002:00004f88       ??_C@_07PNNKHJNH@outline?$AA@ 00481f88     renderva.obj
 0002:00004f90       ??_C@_09ODBPIBL@dtoutline?$AA@ 00481f90     renderva.obj
 0002:00004f9c       ??_C@_0BC@JAOOMIMF@shadowmapreceiver?$AA@ 00481f9c     renderva.obj
 0002:00004fb0       ??_C@_0L@ELFOFJNL@causticnum?$AA@ 00481fb0     renderva.obj
 0002:00004fbc       ??_C@_0N@DDACNPKD@causticscale?$AA@ 00481fbc     renderva.obj
 0002:00004fcc       ??_C@_0O@CMAOCDJI@causticmillis?$AA@ 00481fcc     renderva.obj
 0002:00004fdc       ??_C@_08FHEANHDM@caustics?$AA@ 00481fdc     renderva.obj
 0002:00004fe8       ??_C@_0CN@GIBHIMBB@?$DMmad?30?46?00?44?$DOpackages?1caustics?1c@ 00481fe8     renderva.obj
 0002:00005018       ??_C@_0L@FMHDICAN@T?5?0?5P?5?$EA?5Ca?$AA@ 00482018     renderva.obj
 0002:00005024       ??_C@_0M@CHONFEMF@frameoffset?$AA@ 00482024     renderva.obj
 0002:00005030       ??_C@_07OBGODJPC@caustic?$AA@ 00482030     renderva.obj
 0002:00005038       ??_C@_0N@OOKIBFIK@maxdynlights?$AA@ 00482038     renderva.obj
 0002:00005048       ??_C@_0N@HLCHDLOH@dynlightdist?$AA@ 00482048     renderva.obj
 0002:00005058       ??_C@_0O@EFFIENC@dynlight?$CFdpos?$AA@ 00482058     renderva.obj
 0002:00005068       ??_C@_0BA@IKGBEEGE@dynlight?$CFdcolor?$AA@ 00482068     renderva.obj
 0002:00005078       ??_C@_0M@EGCCCBAI@nocolorglsl?$AA@ 00482078     renderva.obj
 0002:00005084       ??_C@_08PNHKPKBG@fogworld?$AA@ 00482084     renderva.obj
 0002:00005090       ??_C@_0O@MBGJPOHE@orienttangent?$AA@ 00482090     renderva.obj
 0002:000050a0       ??_C@_0P@KEBFNPLE@orientbinormal?$AA@ 004820a0     renderva.obj
 0002:000050b0       ??_C@_06OIGLMBBG@oqdist?$AA@ 004820b0     renderva.obj
 0002:000050b8       ??_C@_05MMGJPMGO@zpass?$AA@ 004820b8     renderva.obj
 0002:000050c0       ??_C@_08OFIEDPCI@glowpass?$AA@ 004820c0     renderva.obj
 0002:000050cc       ??_C@_03DKGANOCP@?$DN?5T?$AA@ 004820cc     renderva.obj
 0002:000050d0       ??_C@_09KNPDCLGH@P?5?$CK?5T?5x?52?$AA@ 004820d0     renderva.obj
 0002:000050dc       ??_C@_05BCNLIPCA@P?5?$CL?5T?$AA@ 004820dc     renderva.obj
 0002:000050e4       ??_C@_04HHCDBDLF@?5?7?$AN?6?$AA@ 004820e4     shader.obj
 0002:000050ec       ??_C@_0BL@KNDCNHHG@COMPILE?5ERROR?5?$CI?$CFs?3?$CFs?$CJ?5?9?5?$CFs?$AA@ 004820ec     shader.obj
 0002:00005108       ??_C@_0L@DOLFAOFN@?5?$DM?$DMHERE?$DO?$DO?5?$AA@ 00482108     shader.obj
 0002:00005114       ??_C@_0BN@JNININC@?$CFs?3?$CFs?5EXCEEDED?5NATIVE?5LIMITS?$AA@ 00482114     shader.obj
 0002:00005134       ??_C@_0BD@MOKBKEIM@GLSL?5ERROR?5?$CI?$CFs?3?$CFs?$CJ?$AA@ 00482134     shader.obj
 0002:00005148       ??_C@_05BOMAELGN@tex?$CFd?$AA@ 00482148     shader.obj
 0002:00005150       ??_C@_01MHEDDDHA@v?$AA@    00482150     shader.obj
 0002:00005154       ??_C@_01JBBJJEPG@p?$AA@    00482154     shader.obj
 0002:00005158       ??_C@_04HGGBINEM@?$CFs?$CFd?$AA@ 00482158     shader.obj
 0002:00005160       ??_C@_04KEDEBDDP@PROG?$AA@ 00482160     shader.obj
 0002:00005168       ??_C@_0KB@GFFBDBGF@uniform?5int?5N?$DL?6uniform?5vec4?5delt@ 00482168     shader.obj
 0002:0000520c       ??_C@_07ENIIPKPN@lmcolor?$AA@ 0048220c     shader.obj
 0002:00005214       ??_C@_05LOOCKJAO@lmdir?$AA@ 00482214     shader.obj
 0002:0000521c       ??_C@_08GFIHGMBN@lightmap?$AA@ 0048221c     shader.obj
 0002:00005228       ??_C@_06FABHMPLJ@envmap?$AA@ 00482228     shader.obj
 0002:00005230       ??_C@_0L@KNCIFKOA@diffusemap?$AA@ 00482230     shader.obj
 0002:0000523c       ??_C@_09GEJJOHHL@normalmap?$AA@ 0048223c     shader.obj
 0002:00005248       ??_C@_07BBNDNJMK@glowmap?$AA@ 00482248     shader.obj
 0002:00005250       ??_C@_05CFEEDGHM@decal?$AA@ 00482250     shader.obj
 0002:00005258       ??_C@_07HNKHACIF@specmap?$AA@ 00482258     shader.obj
 0002:00005260       ??_C@_08PKINMBGJ@depthmap?$AA@ 00482260     shader.obj
 0002:0000526c       ??_C@_06OPOOPPAG@stex?$CFd?$AA@ 0048226c     shader.obj
 0002:00005274       ??_C@_07PANOCICP@shaders?$AA@ 00482274     shader.obj
 0002:0000527c       ??_C@_0BA@MEGBDEME@shaderprecision?$AA@ 0048227c     shader.obj
 0002:0000528c       ??_C@_0N@EOHKPIEH@shaderdetail?$AA@ 0048228c     shader.obj
 0002:0000529c       ??_C@_02PJBJHKHI@VS?$AA@   0048229c     shader.obj
 0002:000052a0       ??_C@_02PNJEAGMK@PS?$AA@   004822a0     shader.obj
 0002:000052a4       ??_C@_0BB@MCFIPPFG@result?4texcoord?$FL?$AA@ 004822a4     shader.obj
 0002:000052b8       ??_C@_0BD@DBGDNKCF@reserveshadowmaptc?$AA@ 004822b8     shader.obj
 0002:000052cc       ??_C@_0BC@FHLJCGIA@reservedynlighttc?$AA@ 004822cc     shader.obj
 0002:000052e0       ??_C@_0BH@NOKMHMOJ@OPTION?5ARB_fog_linear?$DL?$AA@ 004822e0     shader.obj
 0002:000052f8       ??_C@_0BA@PBNJODNI@result?4fogcoord?$AA@ 004822f8     shader.obj
 0002:00005308       ??_C@_0BH@FOPAHFMO@?$CDpragma?5CUBE2_dynlight?$AA@ 00482308     shader.obj
 0002:00005320       ??_C@_0BK@OOGCMFLL@?$CDpragma?5CUBE2_dynlight?5?$CFs?$AA@ 00482320     shader.obj
 0002:0000533c       ??_C@_02NCGPMEBG@?$DL?6?$AA@ 0048233c     shader.obj
 0002:00005340       ??_C@_01IHBHIGKO@?0?$AA@   00482340     shader.obj
 0002:00005344       ??_C@_0O@NADBJIKG@uniform?5vec4?5?$AA@ 00482344     shader.obj
 0002:00005354       ??_C@_0BC@GGHNICPH@?$CFsdynlight?$CFdpos?$CFs?$AA@ 00482354     shader.obj
 0002:00005368       ??_C@_0BE@MIJEPMDO@?$CFsdynlight?$CFdcolor?$CFs?$AA@ 00482368     shader.obj
 0002:0000537c       ??_C@_0O@BIMBNKNI@varying?5vec3?5?$AA@ 0048237c     shader.obj
 0002:0000538c       ??_C@_0BC@MJMGFALP@?$CFsdynlight?$CFddir?$CFs?$AA@ 0048238c     shader.obj
 0002:000053a0       ??_C@_0BH@HCPJHNGK@result?4texcoord?$FL?$CFd?$FN?4?$CFc?$AA@ 004823a0     shader.obj
 0002:000053b8       ??_C@_0DE@KAJGAMHB@dynlight?$CFddir?5?$DN?5gl_Vertex?4xyz?5?9?5@ 004823b8     shader.obj
 0002:000053f0       ??_C@_0EA@EFBPIJBL@SUB?5result?4texcoord?$FL?$CFd?$FN?4xyz?0?5ver@ 004823f0     shader.obj
 0002:00005430       ??_C@_0GN@CAEGFJNK@?$CFs?4rgb?5?$CL?$DN?5dynlight?$CFdcolor?4rgb?5?$CK?5@ 00482430     shader.obj
 0002:000054a0       ??_C@_0BA@HMANOFNO@TEMP?5dynlight?$DL?6?$AA@ 004824a0     shader.obj
 0002:000054b0       ??_C@_0JM@FMFGFHEP@?$CFsDP3?5dynlight?0?5fragment?4texcoor@ 004824b0     shader.obj
 0002:0000554c       ??_C@_0BH@PCMIDMDM@TEMP?5emufogcolor?$DL?5?5?5?5?5?$AA@ 0048254c     shader.obj
 0002:00005564       ??_C@_0N@KKPHAGJL@?5emufogcolor?$AA@ 00482564     shader.obj
 0002:00005574       ??_C@_0N@FKMNPMCF@result?4color?$AA@ 00482574     shader.obj
 0002:00005584       ??_C@_03JMGAKCCH@END?$AA@  00482584     shader.obj
 0002:00005588       ??_C@_0LA@BOINPGIH@TEMP?5emufog?$DL?6SUB?5emufog?0?5state?4f@ 00482588     shader.obj
 0002:00005638       ??_C@_0BA@BJEFOPDJ@?$DMdynlight?5?$CFd?$DO?$CFs?$AA@ 00482638     shader.obj
 0002:00005648       ??_C@_0BI@FMDBBDGK@?$CDpragma?5CUBE2_shadowmap?$AA@ 00482648     shader.obj
 0002:00005660       ??_C@_0BL@OPNHAOAC@?$CDpragma?5CUBE2_shadowmap?5?$CFs?$AA@ 00482660     shader.obj
 0002:0000567c       ??_C@_0BL@KOABIGFI@varying?5vec3?5shadowmaptc?$DL?6?$AA@ 0048267c     shader.obj
 0002:00005698       ??_C@_0DN@IIBHKAAG@uniform?5sampler2D?5shadowmap?$DL?6uni@ 00482698     shader.obj
 0002:000056d8       ??_C@_0BH@CAKPMDFD@uniform?5vec4?5ambient?$DL?6?$AA@ 004826d8     shader.obj
 0002:000056f0       ??_C@_0FD@JCFKDAA@shadowmaptc?5?$DN?5vec3?$CIgl_TextureMat@ 004826f0     shader.obj
 0002:00005748       ??_C@_0LI@CDHHHNFI@vec3?5smvals?5?$DN?5texture2D?$CIshadowma@ 00482748     shader.obj
 0002:00005800       ??_C@_0EE@MPEEHOCD@?$CFs?4rgb?5?$DN?5mix?$CI?$CFs?4rgb?0?5min?$CI?$CFs?4rgb?0@ 00482800     shader.obj
 0002:00005848       ??_C@_0OH@IBBKBNDJ@TEMP?5smtc?$DL?6DP4?5smtc?4x?0?5state?4mat@ 00482848     shader.obj
 0002:00005930       ??_C@_0CA@EHDNNEEO@MOV?5result?4texcoord?$FL?$CFd?$FN?0?5smtc?$DL?6?$AA@ 00482930     shader.obj
 0002:00005950       ??_C@_0MP@PIKKCMAP@TEMP?5smvals?0?5smdenom?0?5smdiff?0?5sh@ 00482950     shader.obj
 0002:00005a20       ??_C@_0JI@OOKKBPMI@CMP?5shadowed?0?5smdiff?4x?0?5smvals?4y@ 00482a20     shader.obj
 0002:00005ab8       ??_C@_0O@BAGFFCKK@?$DMshadowmap?$DO?$CFs?$AA@ 00482ab8     shader.obj
 0002:00005ac8       ??_C@_0M@BNCBNMFA@textureCube?$AA@ 00482ac8     shader.obj
 0002:00005ad4       ??_C@_0O@BAAEKABA@texture2DRect?$AA@ 00482ad4     shader.obj
 0002:00005ae4       ??_C@_04HLMPJHIP@RECT?$AA@ 00482ae4     shader.obj
 0002:00005aec       ??_C@_0BD@MOADNKHC@no?5such?5shader?3?5?$CFs?$AA@ 00482aec     shader.obj
 0002:00005b00       ??_C@_0O@DBBCHEPB@nativeshaders?$AA@ 00482b00     shader.obj
 0002:00005b10       ??_C@_04IGNAOOJA@isss?$AA@ 00482b10     shader.obj
 0002:00005b18       ??_C@_06BILHELBG@shader?$AA@ 00482b18     shader.obj
 0002:00005b20       ??_C@_09EFMBJJAE@setshader?$AA@ 00482b20     shader.obj
 0002:00005b2c       ??_C@_09MKDJHOIK@altshader?$AA@ 00482b2c     shader.obj
 0002:00005b38       ??_C@_03EFLJCJHG@ssi?$AA@  00482b38     shader.obj
 0002:00005b3c       ??_C@_0L@IJCMHGML@fastshader?$AA@ 00482b3c     shader.obj
 0002:00005b48       ??_C@_0BA@MLBEOKBB@isshaderdefined?$AA@ 00482b48     shader.obj
 0002:00005b58       ??_C@_0P@IHCBDID@isshadernative?$AA@ 00482b58     shader.obj
 0002:00005b68       ??_C@_0CC@INJMKMAM@shader?5param?5index?5must?5be?50?4?4?$CFd@ 00482b68     shader.obj
 0002:00005b8c       ??_C@_05BGAEFBEP@iffff?$AA@ 00482b8c     shader.obj
 0002:00005b94       ??_C@_0P@EILFNNMM@setvertexparam?$AA@ 00482b94     shader.obj
 0002:00005ba4       ??_C@_0O@DHGMNIHM@setpixelparam?$AA@ 00482ba4     shader.obj
 0002:00005bb4       ??_C@_05LEEJHALC@sffff?$AA@ 00482bb4     shader.obj
 0002:00005bbc       ??_C@_0BA@IGIGKCBH@setuniformparam?$AA@ 00482bbc     shader.obj
 0002:00005bcc       ??_C@_0BO@OMOHHGFG@no?5such?5fullscreen?5shader?3?5?$CFs?$AA@ 00482bcc     shader.obj
 0002:00005bec       ??_C@_08KPCLGMKC@?$CFs_scale?$AA@ 00482bec     shader.obj
 0002:00005bf8       ??_C@_07EIJNOFGB@?$CFs_init?$AA@ 00482bf8     shader.obj
 0002:00005c00       ??_C@_0BH@KALKDEJK@now?5rendering?5with?3?5?$CFs?$AA@ 00482c00     shader.obj
 0002:00005c18       ??_C@_0BE@LHEJMNAD@setfullscreenshader?$AA@ 00482c18     shader.obj
 0002:00005c2c       ??_C@_08HPAFNIFH@fsparams?$AA@ 00482c2c     shader.obj
 0002:00005c38       ??_C@_07IILFLEFO@maxtmus?$AA@ 00482c38     shader.obj
 0002:00005c40       ??_C@_08GFBLOFHL@nolights?$AA@ 00482c40     shader.obj
 0002:00005c4c       ??_C@_07CHHPOIOD@nowater?$AA@ 00482c4c     shader.obj
 0002:00005c54       ??_C@_07LGAONOM@nomasks?$AA@ 00482c54     shader.obj
 0002:00005c5c       ??_C@_0P@DGBHLMID@create?5surface?$AA@ 00482c5c     texture.obj
 0002:00005c6c       ??_C@_09OFNCFOGH@hwtexsize?$AA@ 00482c6c     texture.obj
 0002:00005c78       ??_C@_0O@OKENBOGC@hwcubetexsize?$AA@ 00482c78     texture.obj
 0002:00005c88       ??_C@_0L@NFDDLINJ@maxtexsize?$AA@ 00482c88     texture.obj
 0002:00005c94       ??_C@_09MLBAMIPG@texreduce?$AA@ 00482c94     texture.obj
 0002:00005ca0       ??_C@_0M@DHFCBLDN@texcompress?$AA@ 00482ca0     texture.obj
 0002:00005cac       ??_C@_08MLPGDECD@hwmipmap?$AA@ 00482cac     texture.obj
 0002:00005cb8       ??_C@_09OPCNOONF@trilinear?$AA@ 00482cb8     texture.obj
 0002:00005cc4       ??_C@_08LJMMPFJO@bilinear?$AA@ 00482cc4     texture.obj
 0002:00005cd0       ??_C@_0BI@EFGPANJF@could?5not?5build?5mipmaps?$AA@ 00482cd0     texture.obj
 0002:00005ce8       ??_C@_02HCGKDMEN@?1?$DO?$AA@ 00482ce8     texture.obj
 0002:00005cec       ??_C@_0M@KDACJGHI@packages?1?$CFs?$AA@ 00482cec     texture.obj
 0002:00005cf8       ??_C@_0BK@FFEJBACN@could?5not?5load?5texture?5?$CFs?$AA@ 00482cf8     texture.obj
 0002:00005d14       ??_C@_0CF@NJJFMLJI@texture?5must?5be?58?0?524?0?5or?532?5bpp@ 00482d14     texture.obj
 0002:00005d3c       ??_C@_03FPHDAAIJ@mad?$AA@  00482d3c     texture.obj
 0002:00005d40       ??_C@_06GGNOPCOG@ffmask?$AA@ 00482d40     texture.obj
 0002:00005d48       ??_C@_03BHPKJDPK@dup?$AA@  00482d48     texture.obj
 0002:00005d4c       ??_C@_0N@GHEGLPKK@texturereset?$AA@ 00482d4c     texture.obj
 0002:00005d5c       ??_C@_0O@PJBPPADC@materialreset?$AA@ 00482d5c     texture.obj
 0002:00005d6c       ??_C@_01PAPGNFGE@c?$AA@    00482d6c     texture.obj
 0002:00005d70       ??_C@_01OMGOGALD@u?$AA@    00482d70     texture.obj
 0002:00005d74       ??_C@_01LPLHEDKD@d?$AA@    00482d74     texture.obj
 0002:00005d78       ??_C@_01EFFIKLCJ@n?$AA@    00482d78     texture.obj
 0002:00005d7c       ??_C@_01JEJKBAGA@g?$AA@    00482d7c     texture.obj
 0002:00005d80       ??_C@_01GLPGHMHM@z?$AA@    00482d80     texture.obj
 0002:00005d84       ??_C@_01KGKMHCOC@e?$AA@    00482d84     texture.obj
 0002:00005d88       ??_C@_0CG@LGEOBJGI@warning?3?5too?5many?5textures?5in?5sl@ 00482d88     texture.obj
 0002:00005db0       ??_C@_06JEAIAEGD@ssiiif?$AA@ 00482db0     texture.obj
 0002:00005db8       ??_C@_07JDHEGGGP@texture?$AA@ 00482db8     texture.obj
 0002:00005dc0       ??_C@_0BM@FMMKABMH@packages?1textures?1grass?4png?$AA@ 00482dc0     texture.obj
 0002:00005ddc       ??_C@_09IKFMDNCM@autograss?$AA@ 00482ddc     texture.obj
 0002:00005de8       ??_C@_03FDCLAKJL@?$CD?$CFd?$AA@ 00482de8     texture.obj
 0002:00005dec       ??_C@_06EBAJDCMB@?$CL?$CFd?0?$CFd?$AA@ 00482dec     texture.obj
 0002:00005df4       ??_C@_0BA@BMOEELDD@?$DP?$CF?42f?0?$CF?42f?0?$CF?42f?$AA@ 00482df4     texture.obj
 0002:00005e04       ??_C@_0BB@BOAIGMLD@creatergbsurface?$AA@ 00482e04     texture.obj
 0002:00005e18       ??_C@_0N@PJJKEDAH@scalesurface?$AA@ 00482e18     texture.obj
 0002:00005e28       ??_C@_0M@CELLOILL@?$DMthumbnail?$DO?$AA@ 00482e28     texture.obj
 0002:00005e34       ??_C@_0DF@PGPGBFO@cubemap?5texture?5?$CFs?5doesn?8t?5match@ 00482e34     texture.obj
 0002:00005e6c       ??_C@_08NEMCBGPC@?$CFs_?$CK?4jpg?$AA@ 00482e6c     texture.obj
 0002:00005e78       ??_C@_08PNNOCPHD@?$CFs_?$CK?4png?$AA@ 00482e78     texture.obj
 0002:00005e84       ??_C@_0BJ@IMKIBOMO@could?5not?5load?5envmap?5?$CFs?$AA@ 00482e84     texture.obj
 0002:00005ea0       ??_C@_0L@CNNBFFPN@envmapsize?$AA@ 00482ea0     texture.obj
 0002:00005eac       ??_C@_0N@DDBJIIFG@envmapradius?$AA@ 00482eac     texture.obj
 0002:00005ebc       ??_C@_08HMCLDBKL@aaenvmap?$AA@ 00482ebc     texture.obj
 0002:00005ec8       ??_C@_0BP@CNFFFAB@generating?5environment?5maps?4?4?4?$AA@ 00482ec8     texture.obj
 0002:00005ee8       ??_C@_0N@KIOHAALM@?$AA?$AA?$AC?$AA?$AA?$AA?$AA?$AA?$AA?$AA?$AA?$AA?$AA@ 00482ee8     texture.obj
 0002:00005ef8       ??_C@_0P@OONKJPLA@flipnormalmapy?$AA@ 00482ef8     texture.obj
 0002:00005f08       ??_C@_03PFJENDKN@sss?$AA@  00482f08     texture.obj
 0002:00005f0c       ??_C@_0BA@MNFPGFJP@mergenormalmaps?$AA@ 00482f0c     texture.obj
 0002:00005f1c       ??_C@_0N@JLDFKLMO@waterreflect?$AA@ 00482f1c     water.obj
 0002:00005f2c       ??_C@_0N@MLIHBFHK@waterrefract?$AA@ 00482f2c     water.obj
 0002:00005f3c       ??_C@_0M@KNDLFDJF@watersubdiv?$AA@ 00482f3c     water.obj
 0002:00005f48       ??_C@_08GBJDFGBD@waterlod?$AA@ 00482f48     water.obj
 0002:00005f54       ??_C@_09CLJICJI@vertwater?$AA@ 00482f54     water.obj
 0002:00005f60       ??_C@_0M@IOOIKOIJ@reflectdist?$AA@ 00482f60     water.obj
 0002:00005f6c       ??_C@_08CFADOFLE@waterfog?$AA@ 00482f6c     water.obj
 0002:00005f7c       ??_C@_0M@HBMJEING@watercolour?$AA@ 00482f7c     water.obj
 0002:00005f88       ??_C@_07DOALLLLA@lavafog?$AA@ 00482f88     water.obj
 0002:00005f94       ??_C@_0L@FMCDBIPJ@lavacolour?$AA@ 00482f94     water.obj
 0002:00005fa0       ??_C@_0L@JLCBMHKL@K?5?0?5T?5?$EA?5Ka?$AA@ 00482fa0     water.obj
 0002:00005fac       ??_C@_0M@JCDNIEBB@P?5?0?5T?5?$EA?5C?$HOa?$AA@ 00482fac     water.obj
 0002:00005fb8       ??_C@_08BILPPGHI@Ka?5?$CK?5P?$HOa?$AA@ 00482fb8     water.obj
 0002:00005fc4       ??_C@_0L@DJKKEKDJ@T?5?0?5K?5?$EA?5Ca?$AA@ 00482fc4     water.obj
 0002:00005fd0       ??_C@_09CBAHMHEB@waterspec?$AA@ 00482fd0     water.obj
 0002:00005fdc       ??_C@_07NMDEAPOO@oqwater?$AA@ 00482fdc     water.obj
 0002:00005fe4       ??_C@_08OGEHJNJG@lightpos?$AA@ 00482fe4     water.obj
 0002:00005ff0       ??_C@_0L@HKBPIELH@lightcolor?$AA@ 00482ff0     water.obj
 0002:00005ffc       ??_C@_0M@LKJKOHAM@lightradius?$AA@ 00482ffc     water.obj
 0002:00006008       ??_C@_05BJGJGKJC@depth?$AA@ 00483008     water.obj
 0002:00006010       ??_C@_0M@CAPNIE@reflectsize?$AA@ 00483010     water.obj
 0002:00006044       ??_C@_0L@MCMINGLB@maxreflect?$AA@ 00483044     water.obj
 0002:00006050       ??_C@_0M@NIGLHBHC@maskreflect?$AA@ 00483050     water.obj
 0002:0000605c       ??_C@_04GHHNIPCF@push?$AA@ 0048305c     command.obj
 0002:00006064       ??_C@_03NJDAHFJE@pop?$AA@  00483064     command.obj
 0002:00006068       ??_C@_0CJ@BELNJKOL@cannot?5redefine?5builtin?5?$CFs?5with?5@ 00483068     command.obj
 0002:00006094       ??_C@_05NKHOCLEE@alias?$AA@ 00483094     command.obj
 0002:0000609c       ??_C@_04HNCBCJIN@?$CC?$AN?6?$AA?$AA@ 0048309c     command.obj
 0002:000060a4       ??_C@_02NCJKDDL@?6?$AA?$AA@ 004830a4     command.obj
 0002:000060a8       ??_C@_0N@MLMDLNLH@missing?5?$CC?$CFc?$CC?$AA@ 004830a8     command.obj
 0002:000060b8       ??_C@_0BJ@BKLIPAHN@unknown?5alias?5lookup?3?5?$CFs?$AA@ 004830b8     command.obj
 0002:000060d4       ??_C@_03MEPGMKBP@?5?7?$AN?$AA@ 004830d4     command.obj
 0002:000060d8       ??_C@_01LOCGONAA@?$AA?$AA@ 004830d8     command.obj
 0002:000060dc       ??_C@_02DLHHLEGD@?$CC?$AA?$AA@ 004830dc     command.obj
 0002:000060e0       ??_C@_02KGCLADJC@?1?5?$AA@ 004830e0     command.obj
 0002:000060e4       ??_C@_07OFKOJLII@?1?$DL?5?7?$AN?6?$AA?$AA@ 004830e4     command.obj
 0002:000060ec       ??_C@_07HJGILAGN@numargs?$AA@ 004830ec     command.obj
 0002:000060f4       ??_C@_03PEAGNKJF@?$DL?6?$AA?$AA@ 004830f4     command.obj
 0002:000060f8       ??_C@_0BL@IKNKPODF@invalid?5server?5command?3?5?$CFs?$AA@ 004830f8     command.obj
 0002:00006114       ??_C@_0BE@CNMPJHMN@unknown?5command?3?5?$CFs?$AA@ 00483114     command.obj
 0002:00006128       ??_C@_0CD@OFJGEDGN@builtin?5declared?5with?5illegal?5ty@ 00483128     command.obj
 0002:0000614c       ??_C@_0CN@OIIIAOJL@builtin?5declared?5with?5too?5many?5a@ 0048314c     command.obj
 0002:0000617c       ??_C@_07DHPDHKIF@?$CFs?5?$DN?5?$CFd?$AA@ 0048317c     command.obj
 0002:00006184       ??_C@_0BJ@GHCLHMKN@variable?5?$CFs?5is?5read?9only?$AA@ 00483184     command.obj
 0002:000061a0       ??_C@_0CH@GKAODBL@cannot?5override?5persistent?5varia@ 004831a0     command.obj
 0002:000061c8       ??_C@_0BN@PCLEJOAB@valid?5range?5for?5?$CFs?5is?5?$CFd?4?4?$CFd?$AA@ 004831c8     command.obj
 0002:000061e8       ??_C@_05JHGBNEBO@arg?$CFd?$AA@ 004831e8     command.obj
 0002:000061f0       ??_C@_0BE@GEOPOPEN@could?5not?5read?5?$CC?$CFs?$CC?$AA@ 004831f0     command.obj
 0002:00006204       ??_C@_0BD@LCLJFEJM@loaded?5script?5?8?$CFs?8?$AA@ 00483204     command.obj
 0002:00006218       ??_C@_0L@MFNMKHHD@config?4cfg?$AA@ 00483218     command.obj
 0002:00006224       ??_C@_0CD@FPEPDGHG@?1?1?5automatically?5written?5on?5exit@ 00483224     command.obj
 0002:00006248       ??_C@_06JBLMLCKL@?$CFs?5?$CFd?6?$AA@ 00483248     command.obj
 0002:00006250       ??_C@_08NBICMEHC@nextmap_?$AA@ 00483250     command.obj
 0002:0000625c       ??_C@_0N@FELOPDPM@?$CC?$CFs?$CC?5?$DN?5?$FL?$CFs?$FN?6?$AA@ 0048325c     command.obj
 0002:0000626c       ??_C@_08PDHLHPGD@writecfg?$AA@ 0048326c     command.obj
 0002:00006278       ??_C@_02HEBPBKGD@if?$AA@   00483278     command.obj
 0002:0000627c       ??_C@_04GKOOIABA@loop?$AA@ 0048327c     command.obj
 0002:00006284       ??_C@_05OODBEKIG@while?$AA@ 00483284     command.obj
 0002:0000628c       ??_C@_03CLFDNPKK@?6?7?5?$AA@ 0048328c     command.obj
 0002:00006290       ??_C@_03NJBHMCIA@?$CC?6?$AA?$AA@ 00483290     command.obj
 0002:00006294       ??_C@_04DGCIBJCJ@?6?7?5?$AA?$AA@ 00483294     command.obj
 0002:0000629c       ??_C@_04MGEIEJAD@exec?$AA@ 0048329c     command.obj
 0002:000062a4       ??_C@_01GFHCPBMG@C?$AA@    004832a4     command.obj
 0002:000062a8       ??_C@_06CMLIEHFC@concat?$AA@ 004832a8     command.obj
 0002:000062b0       ??_C@_06KJFADLGN@result?$AA@ 004832b0     command.obj
 0002:000062b8       ??_C@_01FCMHBHNC@V?$AA@    004832b8     command.obj
 0002:000062bc       ??_C@_0L@HEEGNNCI@concatword?$AA@ 004832bc     command.obj
 0002:000062c8       ??_C@_06DLEPGFEF@format?$AA@ 004832c8     command.obj
 0002:000062d0       ??_C@_02CPIDLAI@at?$AA@    004832d0     command.obj
 0002:000062d4       ??_C@_07EGMBKCGN@listlen?$AA@ 004832d4     command.obj
 0002:000062dc       ??_C@_08DFJLCIMD@getalias?$AA@ 004832dc     command.obj
 0002:000062e8       ??_C@_01MIFGBAGJ@?$CL?$AA@ 004832e8     command.obj
 0002:000062ec       ??_C@_01JOAMLHOP@?9?$AA@   004832ec     command.obj
 0002:000062f0       ??_C@_03FEJMGOGI@div?$AA@  004832f0     command.obj
 0002:000062f4       ??_C@_03FFONCNID@mod?$AA@  004832f4     command.obj
 0002:000062f8       ??_C@_01NEMOKFLO@?$DN?$AA@ 004832f8     command.obj
 0002:000062fc       ??_C@_02FDNJECIE@?$CB?$DN?$AA@ 004832fc     command.obj
 0002:00006300       ??_C@_01MNNFJEPP@?$DM?$AA@ 00483300     command.obj
 0002:00006304       ??_C@_01PPODPGHN@?$DO?$AA@ 00483304     command.obj
 0002:00006308       ??_C@_02EHCHHCKH@?$DM?$DN?$AA@ 00483308     command.obj
 0002:0000630c       ??_C@_02EEKDKGMJ@?$DO?$DN?$AA@ 0048330c     command.obj
 0002:00006310       ??_C@_01JKBOJNNK@?$FO?$AA@ 00483310     command.obj
 0002:00006314       ??_C@_01DCLJPIOD@?$CB?$AA@ 00483314     command.obj
 0002:00006318       ??_C@_02PPKAJPJL@?$CG?$CG?$AA@ 00483318     command.obj
 0002:0000631c       ??_C@_02NONPIBCD@?$HM?$HM?$AA@ 0048331c     command.obj
 0002:00006320       ??_C@_03FMFFAAHN@rnd?$AA@  00483320     command.obj
 0002:00006324       ??_C@_06OKBBGPCH@strcmp?$AA@ 00483324     command.obj
 0002:0000632c       ??_C@_04OFDNEFMC@echo?$AA@ 0048332c     command.obj
 0002:00006334       ??_C@_04IOCONEBJ@?$AM1?$CFs?$AA@ 00483334     command.obj
 0002:0000633c       ??_C@_06JLMJMCMF@strstr?$AA@ 0048333c     command.obj
 0002:00006344       ??_C@_02EDKKPMHH@is?$AA@   00483344     command.obj
 0002:00006348       ??_C@_05PCJCMMHD@sleep?$AA@ 00483348     command.obj
 0002:00006350       ??_C@_0L@FLHIGNDH@clearsleep?$AA@ 00483350     command.obj
 0002:0000635c       ??_C@_09LAJNBJLJ@gameident?$AA@ 0048335c     command.obj
 0002:00006368       ??_C@_0P@JPEGIKJO@gamedefaultmap?$AA@ 00483368     command.obj
 0002:00006378       ??_C@_08PNHIDNCK@maptitle?$AA@ 00483378     command.obj
 0002:00006384       ??_C@_07BLDHJMLG@gettime?$AA@ 00483384     command.obj
 0002:0000638c       ??_C@_0L@OJHNKAKC@data?1?$CFs?1?$CFs?$AA@ 0048338c     command.obj
 0002:0000639c       ??_7cmd_if@@6B@            0048339c     command.obj
 0002:000063ac       ??_7cmd_loop@@6B@          004833ac     command.obj
 0002:000063bc       ??_7cmd_while@@6B@         004833bc     command.obj
 0002:000063cc       ??_7cmd_echo@@6B@          004833cc     command.obj
 0002:000063d8       ??_C@_0M@CNCGAPHA@centerblend?$AA@ 004833d8     console.obj
 0002:000063e4       ??_C@_0L@FLKGECNN@centertime?$AA@ 004833e4     console.obj
 0002:000063f0       ??_C@_0M@BBLANAG@centerlines?$AA@ 004833f0     console.obj
 0002:000063fc       ??_C@_08PIIEKIDK@conblend?$AA@ 004833fc     console.obj
 0002:00006408       ??_C@_07JJEAOMPP@contime?$AA@ 00483408     console.obj
 0002:00006410       ??_C@_0M@LMPMCIOK@centerprint?$AA@ 00483410     console.obj
 0002:0000641c       ??_C@_04BDPJOMKA@?$AM6?$CFs?$AA@ 0048341c     console.obj
 0002:00006424       ??_C@_07LBNFLGKM@conskip?$AA@ 00483424     console.obj
 0002:0000642c       ??_C@_04EEHOHELF@?$CFs?$AMs?$AA@ 0048342c     console.obj
 0002:00006434       ??_C@_04HIPCDMK@?$AMr?$CFs?$AA@ 00483434     console.obj
 0002:0000643c       ??_C@_0L@CPJOIFFK@contimefmt?$AA@ 0048343c     console.obj
 0002:00006448       ??_C@_03DJABMDIA@?$CF?$CFc?$AA@ 00483448     console.obj
 0002:0000644c       ??_C@_0N@FGFEFML@?$CFs?5?$FL?$CF02x?$FN?5?$CFs?$AA@ 0048344c     console.obj
 0002:0000645c       ??_C@_0O@JJBKLGLG@toggleconsole?$AA@ 0048345c     console.obj
 0002:0000646c       ??_C@_04LNGKAPAF@?$DO?5?$CFs?$AA@ 0048346c     console.obj
 0002:00006474       ??_C@_01IDAFKMJL@_?$AA@    00483474     console.obj
 0002:00006478       ??_C@_07DCAJIFBK@consize?$AA@ 00483478     console.obj
 0002:00006480       ??_C@_0BK@CLILGADO@cannot?5override?5keymap?5?$CFs?$AA@ 00483480     console.obj
 0002:0000649c       ??_C@_06OILPNDPG@keymap?$AA@ 0048349c     console.obj
 0002:000064a4       ??_C@_08DDDKBDDH@editbind?$AA@ 004834a4     console.obj
 0002:000064b0       ??_C@_04NPNJNMMP@bind?$AA@ 004834b0     console.obj
 0002:000064b8       ??_C@_0BI@CJJDEPKP@cannot?5override?5?$CFs?5?$CC?$CFs?$CC?$AA@ 004834b8     console.obj
 0002:000064d0       ??_C@_0BB@LFGCCFPC@unknown?5key?5?$CC?$CFs?$CC?$AA@ 004834d0     console.obj
 0002:000064e4       ??_C@_07OPMKHBIM@getbind?$AA@ 004834e4     console.obj
 0002:000064ec       ??_C@_0M@CMANFLOJ@geteditbind?$AA@ 004834ec     console.obj
 0002:000064f8       ??_C@_0L@KHINIMOC@saycommand?$AA@ 004834f8     console.obj
 0002:00006504       ??_C@_06HMPDFCD@mapmsg?$AA@ 00483504     console.obj
 0002:0000650c       ??_C@_07MMNEDCBK@history?$AA@ 0048350c     console.obj
 0002:00006514       ??_C@_09HMIAIJHM@onrelease?$AA@ 00483514     console.obj
 0002:00006520       ??_C@_0BA@EKPJKACF@bind?5?$CC?$CFs?$CC?5?$FL?$CFs?$FN?6?$AA@ 00483520     console.obj
 0002:00006530       ??_C@_0BE@CHIJPOCA@editbind?5?$CC?$CFs?$CC?5?$FL?$CFs?$FN?6?$AA@ 00483530     console.obj
 0002:00006544       ??_C@_0BM@BJDNEBAC@cannot?5override?5complete?5?$CFs?$AA@ 00483544     console.obj
 0002:00006560       ??_C@_08IPNIAGNA@complete?$AA@ 00483560     console.obj
 0002:0000656c       ??_C@_0N@NPHFHANA@listcomplete?$AA@ 0048356c     console.obj
 0002:0000657c       ??_C@_04DONFEANM@list?$AA@ 0048357c     console.obj
 0002:00006584       ??_C@_0BL@JMDAFDLK@?$CFscomplete?5?$CC?$CFs?$CC?5?$CC?$CFs?$CC?5?$CC?$CFs?$CC?6?$AA@ 00483584     console.obj
 0002:000065a4       ??_7cmd_centerprint@@6B@   004835a4     console.obj
 0002:000065b0       ??_C@_05JMJKDBEJ@?$CFs?$CFs?6?$AA@ 004835b0     main.obj
 0002:000065b8       ??_C@_0BG@NOAGOOLK@Blood?5Frontier?3?5Error?$AA@ 004835b8     main.obj
 0002:000065d0       ??_C@_0DP@IFBLNJKG@Please?5restart?5Blood?5Frontier?5fo@ 004835d0     main.obj
 0002:00006610       ??_C@_0FP@ENPEIBDG@Please?5restart?5Blood?5Frontier?5wi@ 00483610     main.obj
 0002:00006670       ??_C@_05NLLBMCAF@scr_w?$AA@ 00483670     main.obj
 0002:00006678       ??_C@_05BGOLMMJL@scr_h?$AA@ 00483678     main.obj
 0002:00006680       ??_C@_09OLBJDFKA@colorbits?$AA@ 00483680     main.obj
 0002:0000668c       ??_C@_09HAGLGJOK@depthbits?$AA@ 0048368c     main.obj
 0002:00006698       ??_C@_0M@PHCAMJLF@stencilbits?$AA@ 00483698     main.obj
 0002:000066a4       ??_C@_04GDNGHOIM@fsaa?$AA@ 004836a4     main.obj
 0002:000066ac       ??_C@_05DHJKBLMH@vsync?$AA@ 004836ac     main.obj
 0002:000066b4       ??_C@_08JDEOKLLM@init?4cfg?$AA@ 004836b4     main.obj
 0002:000066c0       ??_C@_0EM@EHCMJNJA@?1?1?5automatically?5written?5on?5exit@ 004836c0     main.obj
 0002:0000670c       ??_C@_09KKDGNNMH@scr_w?5?$CFd?6?$AA@ 0048370c     main.obj
 0002:00006718       ??_C@_09FILGGNIJ@scr_h?5?$CFd?6?$AA@ 00483718     main.obj
 0002:00006724       ??_C@_0O@CAAPFHOI@colorbits?5?$CFd?6?$AA@ 00483724     main.obj
 0002:00006734       ??_C@_0O@MLNEGJNN@depthbits?5?$CFd?6?$AA@ 00483734     main.obj
 0002:00006744       ??_C@_0BA@OBJDKLAE@stencilbits?5?$CFd?6?$AA@ 00483744     main.obj
 0002:00006754       ??_C@_08BJCFOFNM@fsaa?5?$CFd?6?$AA@ 00483754     main.obj
 0002:00006760       ??_C@_09CLOGKGMP@vsync?5?$CFd?6?$AA@ 00483760     main.obj
 0002:0000676c       ??_C@_0M@IPBFEJMD@shaders?5?$CFd?6?$AA@ 0048376c     main.obj
 0002:00006778       ??_C@_0BE@NJLOJDCM@shaderprecision?5?$CFd?6?$AA@ 00483778     main.obj
 0002:0000678c       ??_C@_0P@BHPIGNGK@soundchans?5?$CFd?6?$AA@ 0048378c     main.obj
 0002:0000679c       ??_C@_0O@MMGONIIG@soundfreq?5?$CFd?6?$AA@ 0048379c     main.obj
 0002:000067ac       ??_C@_0BD@HNJFHCGB@soundbufferlen?5?$CFd?6?$AA@ 004837ac     main.obj
 0002:000067c0       ??_C@_0L@IBLDEGOD@?$CFs_?$CFli?4bmp?$AA@ 004837c0     main.obj
 0002:000067cc       ??_C@_0L@CMHOPIGK@screenshot?$AA@ 004837cc     main.obj
 0002:000067d8       ??_C@_04KNNLNNGO@quit?$AA@ 004837d8     main.obj
 0002:000067e0       ??_C@_0CK@JGEEFBPG@packages?1textures?1sauer_logo_512@ 004837e0     main.obj
 0002:00006810       ??_C@_0FG@PFMDBHMC@?$CCfullscreen?$CC?5variable?5not?5suppor@ 00483810     main.obj
 0002:00006868       ??_C@_0L@GIACNHMO@fullscreen?$AA@ 00483868     main.obj
 0002:00006874       ??_C@_09KGBNPNPA@screenres?$AA@ 00483874     main.obj
 0002:00006880       ??_C@_05KDLBCAI@gamma?$AA@ 00483880     main.obj
 0002:00006888       ??_C@_0DG@EEDDPODG@Could?5not?5set?5gamma?5?$CIcard?1driver@ 00483888     main.obj
 0002:000068c0       ??_C@_07MJPKLABF@sdl?3?5?$CFs?$AA@ 004838c0     main.obj
 0002:000068c8       ??_C@_06MMFGJAOP@maxfps?$AA@ 004838c8     main.obj
 0002:000068d0       ??_C@_0N@IFJMFGJK@unknown?5type?$AA@ 004838d0     main.obj
 0002:000068e0       ??_C@_0CO@BDCNAKBK@Blood?5Frontier?5Win32?5Exception?3?5@ 004838e0     main.obj
 0002:00006910       ??_C@_0O@BKHKJPEB@?$CFs?5?9?5?$CFs?5?$FL?$CFd?$FN?6?$AA@ 00483910     main.obj
 0002:00006920       ??_C@_0L@IGAFHJNO@clockerror?$AA@ 00483920     main.obj
 0002:0000692c       ??_C@_08FIINEPOO@clockfix?$AA@ 0048392c     main.obj
 0002:00006938       ??_C@_0O@BDNELEI@bloodfrontier?$AA@ 00483938     main.obj
 0002:00006948       ??_C@_06GNLMCJKK@online?$AA@ 00483948     main.obj
 0002:00006950       ??_C@_07KBAMPNJK@verbose?$AA@ 00483950     main.obj
 0002:00006958       ??_C@_09EMKHHLGH@grabmouse?$AA@ 00483958     main.obj
 0002:00006964       ??_C@_07MKKPGFDL@perfmin?$AA@ 00483964     main.obj
 0002:0000696c       ??_C@_07NICEIBFE@perfmax?$AA@ 0048396c     main.obj
 0002:00006974       ??_C@_07PBDFBGNJ@perffps?$AA@ 00483974     main.obj
 0002:0000697c       ??_C@_08JPPONHLJ@perfrate?$AA@ 0048397c     main.obj
 0002:00006988       ??_C@_09NENGIAFG@perflimit?$AA@ 00483988     main.obj
 0002:00006994       ??_C@_07LEIEHKOK@perfall?$AA@ 00483994     main.obj
 0002:0000699c       ??_C@_04KICFJPAD@perf?$AA@ 0048399c     main.obj
 0002:000069a4       ??_C@_06EOJOLDJO@curfps?$AA@ 004839a4     main.obj
 0002:000069ac       ??_C@_07BONHDHMI@bestfps?$AA@ 004839ac     main.obj
 0002:000069b4       ??_C@_08DAECOFIC@worstfps?$AA@ 004839b4     main.obj
 0002:000069c0       ??_C@_0BA@OEMNODMC@data?1engine?4cfg?$AA@ 004839c0     main.obj
 0002:000069d0       ??_C@_0N@JBBBBKNL@defaults?4cfg?$AA@ 004839d0     main.obj
 0002:000069e0       ??_C@_0N@PODLOBMM@autoexec?4cfg?$AA@ 004839e0     main.obj
 0002:000069f0       ??_C@_04GHJNJNPO@main?$AA@ 004839f0     main.obj
 0002:000069f8       ??_C@_02JNAPBCPB@?9h?$AA@  004839f8     main.obj
 0002:000069fc       ??_C@_02FAFFBMGP@?9w?$AA@  004839fc     main.obj
 0002:00006a00       ??_C@_09NGBIKGEG@packages?1?$AA@ 00483a00     main.obj
 0002:00006a0c       ??_C@_03CBKHGIMG@sdl?$AA@  00483a0c     main.obj
 0002:00006a10       ??_C@_08NDPNIJOB@init?3?5?$CFs?$AA@ 00483a10     main.obj
 0002:00006a1c       ??_C@_0BL@MKEADNO@Unable?5to?5initialize?5SDL?3?5?$AA@ 00483a1c     main.obj
 0002:00006a38       ??_C@_04LGLJMFNG@enet?$AA@ 00483a38     main.obj
 0002:00006a40       ??_C@_0CE@BHIAAJAA@Unable?5to?5initialise?5network?5mod@ 00483a40     main.obj
 0002:00006a64       ??_C@_0M@PNPLDAFC@video?3?5mode?$AA@ 00483a64     main.obj
 0002:00006a70       ??_C@_0CB@MEBHCKKK@Unable?5to?5create?5OpenGL?5screen?3?5@ 00483a70     main.obj
 0002:00006a94       ??_C@_0CO@MDDNGFOJ@?$CFd?5bit?5color?5buffer?5not?5supporte@ 00483a94     main.obj
 0002:00006ac4       ??_C@_0CK@HBIEBEDJ@?$CFd?5bit?5z?9buffer?5not?5supported?5?9?5@ 00483ac4     main.obj
 0002:00006af0       ??_C@_0CJ@KANCLJMI@Stencil?5buffer?5not?5supported?5?9?5d@ 00483af0     main.obj
 0002:00006b1c       ??_C@_0CM@CJOHFJJM@?$CFdx?5anti?9aliasing?5not?5supported?5@ 00483b1c     main.obj
 0002:00006b48       ??_C@_0M@JHKDHNPN@video?3?5misc?$AA@ 00483b48     main.obj
 0002:00006b54       ??_C@_0BD@LFDAPLOL@Blood?5Frontier?3?5?$CFs?$AA@ 00483b54     main.obj
 0002:00006b68       ??_C@_02IEGONPOD@gl?$AA@   00483b68     main.obj
 0002:00006b6c       ??_C@_0BA@DLMNMAPM@data?1stdlib?4cfg?$AA@ 00483b6c     main.obj
 0002:00006b80       ??_C@_0GB@FNEKHNMP@cannot?5find?5data?5files?5?$CIyou?5are?5@ 00483b80     main.obj
 0002:00006be4       ??_C@_0CA@PBOEHAGK@packages?1textures?1notexture?4png?$AA@ 00483be4     main.obj
 0002:00006c04       ??_C@_0BN@IDGEFPAK@could?5not?5find?5core?5textures?$AA@ 00483c04     main.obj
 0002:00006c24       ??_C@_07PMJAFAE@console?$AA@ 00483c24     main.obj
 0002:00006c2c       ??_C@_0O@DMBMJPND@data?1font?4cfg?$AA@ 00483c2c     main.obj
 0002:00006c3c       ??_C@_0BN@JPOPDBDK@cannot?5find?5font?5definitions?$AA@ 00483c3c     main.obj
 0002:00006c5c       ??_C@_0BK@BKCGPGEF@no?5default?5font?5specified?$AA@ 00483c5c     main.obj
 0002:00006c78       ??_C@_0BA@FMCEDLKM@initializing?4?4?4?$AA@ 00483c78     main.obj
 0002:00006c88       ??_C@_05MCBCHHEJ@world?$AA@ 00483c88     main.obj
 0002:00006c90       ??_C@_05MHNANJII@sound?$AA@ 00483c90     main.obj
 0002:00006c98       ??_C@_08KLNCIBHI@joystick?$AA@ 00483c98     main.obj
 0002:00006ca4       ??_C@_03JBMODCPM@cfg?$AA@  00483ca4     main.obj
 0002:00006ca8       ??_C@_08NHHIMCGJ@mainloop?$AA@ 00483ca8     main.obj
 0002:00006cb4       ??_C@_0N@LFMPDBKI@menudistance?$AA@ 00483cb4     menus.obj
 0002:00006cc4       ??_C@_0O@GGIGFCBE@menuautoclose?$AA@ 00483cc4     menus.obj
 0002:00006cd4       ??_C@_07PCPPIANI@showgui?$AA@ 00483cd4     menus.obj
 0002:00006cdc       ??_C@_04EEIGNHLG@menu?$AA@ 00483cdc     menus.obj
 0002:00006ce4       ??_C@_06DDLLCOJG@action?$AA@ 00483ce4     menus.obj
 0002:00006cec       ??_C@_0BA@FKELIIJA@guirollovername?$AA@ 00483cec     menus.obj
 0002:00006cfc       ??_C@_0BC@LGHBIKNO@guirolloveraction?$AA@ 00483cfc     menus.obj
 0002:00006d10       ??_C@_0BD@FGPPNLEN@guirolloverimgpath?$AA@ 00483d10     menus.obj
 0002:00006d24       ??_C@_0BF@NIPOPHML@guirolloverimgaction?$AA@ 00483d24     menus.obj
 0002:00006d3c       ??_C@_04NIDJFNBE@info?$AA@ 00483d3c     menus.obj
 0002:00006d44       ??_C@_05DIALNFFA@?$CFs?5?$CFd?$AA@ 00483d44     menus.obj
 0002:00006d4c       ??_C@_0M@OJOCKACA@checkbox_on?$AA@ 00483d4c     menus.obj
 0002:00006d58       ??_C@_0N@GDDFPPB@checkbox_off?$AA@ 00483d58     menus.obj
 0002:00006d68       ??_C@_08LLBJKDBP@radio_on?$AA@ 00483d68     menus.obj
 0002:00006d74       ??_C@_09LAAHIJMP@radio_off?$AA@ 00483d74     menus.obj
 0002:00006d80       ??_C@_0L@ONHIFANB@connect?5?$CFs?$AA@ 00483d80     menus.obj
 0002:00006d8c       ??_C@_06OKCFAAOA@newgui?$AA@ 00483d8c     menus.obj
 0002:00006d94       ??_C@_09ENOCMPME@guibutton?$AA@ 00483d94     menus.obj
 0002:00006da0       ??_C@_07MAEDOMAO@guitext?$AA@ 00483da0     menus.obj
 0002:00006da8       ??_C@_0L@JJIBGJCF@guiservers?$AA@ 00483da8     menus.obj
 0002:00006db4       ??_C@_08CCJMFKDJ@cleargui?$AA@ 00483db4     menus.obj
 0002:00006dc0       ??_C@_07NGFAGABE@guilist?$AA@ 00483dc0     menus.obj
 0002:00006dc8       ??_C@_08GCOBFBHI@guititle?$AA@ 00483dc8     menus.obj
 0002:00006dd4       ??_C@_06CGHMFOEP@guibar?$AA@ 00483dd4     menus.obj
 0002:00006ddc       ??_C@_04GEAPKPD@ssfi?$AA@  00483ddc     menus.obj
 0002:00006de4       ??_C@_08EDLLKOLB@guiimage?$AA@ 00483de4     menus.obj
 0002:00006df0       ??_C@_04ICJFPAOO@siis?$AA@ 00483df0     menus.obj
 0002:00006df8       ??_C@_09ILBLNHMK@guislider?$AA@ 00483df8     menus.obj
 0002:00006e04       ??_C@_0O@JCLJBDKA@guilistslider?$AA@ 00483e04     menus.obj
 0002:00006e14       ??_C@_04LNDBEHBF@ssis?$AA@ 00483e14     menus.obj
 0002:00006e1c       ??_C@_08CIPFIEFK@guiradio?$AA@ 00483e1c     menus.obj
 0002:00006e28       ??_C@_05HIMDNJDP@ssiis?$AA@ 00483e28     menus.obj
 0002:00006e30       ??_C@_0M@JAMJHDPC@guicheckbox?$AA@ 00483e30     menus.obj
 0002:00006e3c       ??_C@_06BJMMEEFN@guitab?$AA@ 00483e3c     menus.obj
 0002:00006e44       ??_C@_04JDCENGEI@siss?$AA@ 00483e44     menus.obj
 0002:00006e4c       ??_C@_08NNEBPDFD@guifield?$AA@ 00483e4c     menus.obj
 0002:00006e5c       ??_7mainmenucallback@@6B@  00483e5c     menus.obj
 0002:00006e64       ??_C@_08PNJILBIL@soundvol?$AA@ 00483e64     sound.obj
 0002:00006e70       ??_C@_08LIBENMBJ@musicvol?$AA@ 00483e70     sound.obj
 0002:00006e7c       ??_C@_0L@DBBLGEPI@soundchans?$AA@ 00483e7c     sound.obj
 0002:00006e88       ??_C@_09IBPBKJOB@soundfreq?$AA@ 00483e88     sound.obj
 0002:00006e94       ??_C@_0P@ONIMEKAC@soundbufferlen?$AA@ 00483e94     sound.obj
 0002:00006ea4       ??_C@_0CC@DLAGIPBA@sound?5init?5failed?5?$CISDL_mixer?$CJ?3?5?$CF@ 00483ea4     sound.obj
 0002:00006ec8       ??_C@_0BJ@LNIPLGGA@could?5not?5play?5music?3?5?$CFs?$AA@ 00483ec8     sound.obj
 0002:00006ee4       ??_C@_05LLDJOKNO@music?$AA@ 00483ee4     sound.obj
 0002:00006eec       ??_C@_0O@JLOKPBOM@registersound?$AA@ 00483eec     sound.obj
 0002:00006efc       ??_C@_03FEAIAPNA@sii?$AA@  00483efc     sound.obj
 0002:00006f00       ??_C@_08MNBOHKHI@mapsound?$AA@ 00483f00     sound.obj
 0002:00006f0c       ??_C@_06BDDNELGJ@stereo?$AA@ 00483f0c     sound.obj
 0002:00006f14       ??_C@_0BH@NBCKLDLH@unregistered?5sound?3?5?$CFd?$AA@ 00483f14     sound.obj
 0002:00006f2c       ??_C@_0BH@FEHBGDLC@packages?1sounds?1?$CFs?4wav?$AA@ 00483f2c     sound.obj
 0002:00006f44       ??_C@_0BH@JGIIEDGA@packages?1sounds?1?$CFs?4ogg?$AA@ 00483f44     sound.obj
 0002:00006f5c       ??_C@_0BD@BPLDKHLK@packages?1sounds?1?$CFs?$AA@ 00483f5c     sound.obj
 0002:00006f70       ??_C@_0BK@LIJKEEBL@failed?5to?5load?5sample?3?5?$CFs?$AA@ 00483f70     sound.obj
 0002:00006f8c       ??_C@_04HDOCAJNK@?$CFs?$CFs?$AA@ 00483f8c     tools.obj
 0002:00006f94       ??_C@_01KDCPPGHE@r?$AA@    00483f94     tools.obj
 0002:00006f98       ??_C@_07HMIPAPAI@?$CFs?2?$CK?4?$CFs?$AA@ 00483f98     tools.obj
 0002:00006fa0       ??_C@_0P@ODILFDFI@hudguns?1pistol?$AA@ 00483fa0     fps.obj
 0002:00006fb0       ??_C@_0L@PLPDEDGH@hudguns?1gl?$AA@ 00483fb0     fps.obj
 0002:00006fbc       ??_C@_0O@GOIJHLBP@hudguns?1rifle?$AA@ 00483fbc     fps.obj
 0002:00006fcc       ??_C@_0P@EFFLGMKI@hudguns?1rocket?$AA@ 00483fcc     fps.obj
 0002:00006fdc       ??_C@_0P@CEIEPOPC@hudguns?1chaing?$AA@ 00483fdc     fps.obj
 0002:00006fec       ??_C@_0O@MFLOFOMK@hudguns?1shotg?$AA@ 00483fec     fps.obj
 0002:00006ffc       ??_C@_0N@NCDDKFMA@hudguns?1fist?$AA@ 00483ffc     fps.obj
 0002:0000700c       ??_C@_0N@GCCLOPBK@respawnpoint?$AA@ 0048400c     fps.obj
 0002:0000701c       ??_C@_07LKFDAAK@jumppad?$AA@ 0048401c     fps.obj
 0002:00007024       ??_C@_07JHAJHILB@monster?$AA@ 00484024     fps.obj
 0002:0000702c       ??_C@_08EFDDNDGI@teledest?$AA@ 0048402c     fps.obj
 0002:00007038       ??_C@_08LOCMGIHJ@teleport?$AA@ 00484038     fps.obj
 0002:00007044       ??_C@_09KADGBPCF@spotlight?$AA@ 00484044     fps.obj
 0002:00007050       ??_C@_09JNOBNNGJ@particles?$AA@ 00484050     fps.obj
 0002:0000705c       ??_C@_0M@GFCPGAEM@playerstart?$AA@ 0048405c     fps.obj
 0002:00007068       ??_C@_05OEPGNJB@light?$AA@ 00484068     fps.obj
 0002:00007070       ??_C@_05KKJKHDCN@none?$DP?$AA@ 00484070     fps.obj
 0002:00007078       ??_C@_0L@BCLIOAO@checkpoint?$AA@ 00484078     fps.obj
 0002:00007084       ??_C@_06FBJJEBFB@carrot?$AA@ 00484084     fps.obj
 0002:0000708c       ??_C@_0L@OOIBIHEG@teleporter?$AA@ 0048408c     fps.obj
 0002:00007098       ??_C@_04OJAKJOIH@quad?$AA@ 00484098     fps.obj
 0002:000070a0       ??_C@_0N@IBDOAAGM@armor?1yellow?$AA@ 004840a0     fps.obj
 0002:000070b0       ??_C@_0M@MOKJCIHG@armor?1green?$AA@ 004840b0     fps.obj
 0002:000070bc       ??_C@_05GOMCJNDP@boost?$AA@ 004840bc     fps.obj
 0002:000070c4       ??_C@_0BA@JHEBGCNE@ammo?1cartridges?$AA@ 004840c4     fps.obj
 0002:000070d4       ??_C@_0O@NKNBGPLN@ammo?1grenades?$AA@ 004840d4     fps.obj
 0002:000070e4       ??_C@_0N@LONAFCNG@ammo?1rrounds?$AA@ 004840e4     fps.obj
 0002:000070f4       ??_C@_0N@NLOMGCDB@ammo?1rockets?$AA@ 004840f4     fps.obj
 0002:00007104       ??_C@_0N@CHIPPOFP@ammo?1bullets?$AA@ 00484104     fps.obj
 0002:00007114       ??_C@_0M@HHNCJMPB@ammo?1shells?$AA@ 00484114     fps.obj
 0002:00007120       ??_C@_0M@GMAAKNDE@vwep?1pistol?$AA@ 00484120     fps.obj
 0002:0000712c       ??_C@_07EEHGOGE@vwep?1gl?$AA@ 0048412c     fps.obj
 0002:00007134       ??_C@_09LMMBFFMC@vwep?1fist?$AA@ 00484134     fps.obj
 0002:00007140       ??_C@_08DCFBAJBE@a?5goblin?$AA@ 00484140     fps.obj
 0002:0000714c       ??_C@_08CPJDJGDJ@a?5knight?$AA@ 0048414c     fps.obj
 0002:00007158       ??_C@_09FPFAFKBG@a?5hellpig?$AA@ 00484158     fps.obj
 0002:00007164       ??_C@_05GIMAHAEO@bauul?$AA@ 00484164     fps.obj
 0002:0000716c       ??_C@_0L@IAOJOIMD@vwep?1rifle?$AA@ 0048416c     fps.obj
 0002:00007178       ??_C@_07CAKHMFKG@a?5slith?$AA@ 00484178     fps.obj
 0002:00007180       ??_C@_0L@CLNOMNBG@vwep?1shotg?$AA@ 00484180     fps.obj
 0002:0000718c       ??_C@_0M@IECCFDFG@ratamahatta?$AA@ 0048418c     fps.obj
 0002:00007198       ??_C@_0M@KLAPAAJO@vwep?1chaing?$AA@ 00484198     fps.obj
 0002:000071a4       ??_C@_07EAILAAKC@a?5rhino?$AA@ 004841a4     fps.obj
 0002:000071ac       ??_C@_0M@MKNAJCME@vwep?1rocket?$AA@ 004841ac     fps.obj
 0002:000071b8       ??_C@_0L@JMPCKPON@mtroop?1red?$AA@ 004841b8     fps.obj
 0002:000071c4       ??_C@_07FCDKFGEN@an?5ogro?$AA@ 004841c4     fps.obj
 0002:000071cc       ??_C@_0BB@JKKJNKCA@Instagib?5Capture?$AA@ 004841cc     fps.obj
 0002:000071e0       ??_C@_07EGAJKHF@Capture?$AA@ 004841e0     fps.obj
 0002:000071e8       ??_C@_0BD@PBKDBMJB@Team?5Tactics?5Arena?$AA@ 004841e8     fps.obj
 0002:000071fc       ??_C@_0O@CIOLCED@Tactics?5Arena?$AA@ 004841fc     fps.obj
 0002:0000720c       ??_C@_0BE@OBCMFAPL@Team?5Instagib?5Arena?$AA@ 0048420c     fps.obj
 0002:00007220       ??_C@_0P@IJACMOKN@Instagib?5Arena?$AA@ 00484220     fps.obj
 0002:00007230       ??_C@_0BA@OHAIBKD@Team?5Efficiency?$AA@ 00484230     fps.obj
 0002:00007240       ??_C@_0L@KEKBALBG@Efficiency?$AA@ 00484240     fps.obj
 0002:0000724c       ??_C@_0O@IMNILJAC@Team?5Instagib?$AA@ 0048424c     fps.obj
 0002:0000725c       ??_C@_08PBPLABCI@Instagib?$AA@ 0048425c     fps.obj
 0002:00007268       ??_C@_0BA@KHHNIIJE@Team?5Deathmatch?$AA@ 00484268     fps.obj
 0002:00007278       ??_C@_0BE@HBHJNCPE@Free?5for?5All?5?1?5Duel?$AA@ 00484278     fps.obj
 0002:0000728c       ??_C@_0BB@KKDEMHCE@Cooperative?5Edit?$AA@ 0048428c     fps.obj
 0002:000072a0       ??_C@_0N@PGFCKAME@Free?5for?5All?$AA@ 004842a0     fps.obj
 0002:000072b0       ??_C@_0BI@HAEKJJCD@Singleplayer?5Deathmatch?$AA@ 004842b0     fps.obj
 0002:000072c8       ??_C@_0BF@IMBHCIJP@Singleplayer?5Classic?$AA@ 004842c8     fps.obj
 0002:000072e0       ??_C@_0O@HALAHND@Demo?5Playback?$AA@ 004842e0     fps.obj
 0002:000072f0       ??_C@_04KIBFNLJL@evil?$AA@ 004842f0     fps.obj
 0002:000072f8       ??_C@_04DDJAGGFE@good?$AA@ 004842f8     fps.obj
 0002:00007300       ??_C@_0BD@CMKLAAGM@?$AMs?$AM1InstaCapture?$AMr?$AA@ 00484300     fps.obj
 0002:00007314       ??_C@_0O@KFJFFIBC@?$AMs?$AM1Capture?$AMr?$AA@ 00484314     fps.obj
 0002:00007324       ??_C@_0BF@COJMHHAP@?$AM2TacticsClanArena?$AMr?$AA@ 00484324     fps.obj
 0002:0000733c       ??_C@_0BD@CLCHEKAF@?$AMs?$AM2TacticsArena?$AMr?$AA@ 0048433c     fps.obj
 0002:00007350       ??_C@_0BF@ECEAGPHG@?$AMs?$AM3InstaClanArena?$AMr?$AA@ 00484350     fps.obj
 0002:00007368       ??_C@_0BB@JIJHCPBD@?$AMs?$AM3InstaArena?$AMr?$AA@ 00484368     fps.obj
 0002:0000737c       ??_C@_0BD@GGDINAGB@?$AM2TeamEfficiency?$AMr?$AA@ 0048437c     fps.obj
 0002:00007390       ??_C@_0BB@DFDJNLJG@?$AMs?$AM2Efficiency?$AMr?$AA@ 00484390     fps.obj
 0002:000073a4       ??_C@_0BA@EFMADAKH@?$AMs?$AM3TeamInsta?$AMr?$AA@ 004843a4     fps.obj
 0002:000073b4       ??_C@_0M@BAFGPJBC@?$AMs?$AM3Insta?$AMr?$AA@ 004843b4     fps.obj
 0002:000073c0       ??_C@_0P@LPDDEBHD@?$AMs?$AM0Teamplay?$AMr?$AA@ 004843c0     fps.obj
 0002:000073d0       ??_C@_0P@OODIBAOG@?$AMs?$AM0FFA?1Duel?$AMr?$AA@ 004843d0     fps.obj
 0002:000073e0       ??_C@_0P@EMBBBDAO@?$AMs?$AM5CoopEdit?$AMr?$AA@ 004843e0     fps.obj
 0002:000073f0       ??_C@_09JKCKBNK@?$AMs?$AM0FFA?$AMr?$AA@ 004843f0     fps.obj
 0002:000073fc       ??_C@_04CJJBLLDG@DMSP?$AA@ 004843fc     fps.obj
 0002:00007404       ??_C@_02NEPPOLFA@SP?$AA@   00484404     fps.obj
 0002:00007408       ??_C@_04DKDMNOEB@Demo?$AA@ 00484408     fps.obj
 0002:00007410       ??_C@_0N@IKBPGAHH@SV_TRYRELOAD?$AA@ 00484410     fps.obj
 0002:00007420       ??_C@_0L@DCLMNDLD@SV_SERVCMD?$AA@ 00484420     fps.obj
 0002:0000742c       ??_C@_09JDJLHMAK@SV_CLIENT?$AA@ 0048442c     fps.obj
 0002:00007438       ??_C@_0O@BLAOHKAD@SV_CLEARDEMOS?$AA@ 00484438     fps.obj
 0002:00007448       ??_C@_0M@DNLPONPJ@SV_STOPDEMO?$AA@ 00484448     fps.obj
 0002:00007454       ??_C@_0O@PDNEKJBG@SV_RECORDDEMO?$AA@ 00484454     fps.obj
 0002:00007464       ??_C@_0BA@CNOHJEIP@SV_DEMOPLAYBACK?$AA@ 00484464     fps.obj
 0002:00007474       ??_C@_0M@LDJOJHHF@SV_SENDDEMO?$AA@ 00484474     fps.obj
 0002:00007480       ??_C@_0L@MAKLENIK@SV_GETDEMO?$AA@ 00484480     fps.obj
 0002:0000748c       ??_C@_0BA@NCCFBBDP@SV_SENDDEMOLIST?$AA@ 0048448c     fps.obj
 0002:0000749c       ??_C@_0N@BLLIEPG@SV_LISTDEMOS?$AA@ 0048449c     fps.obj
 0002:000074ac       ??_C@_0M@HMPFONKE@SV_ANNOUNCE?$AA@ 004844ac     fps.obj
 0002:000074b8       ??_C@_0BF@CCOAKMNB@SV_FORCEINTERMISSION?$AA@ 004844b8     fps.obj
 0002:000074d0       ??_C@_0L@GCDFJHEM@SV_REPAMMO?$AA@ 004844d0     fps.obj
 0002:000074dc       ??_C@_0N@CMNCNDEJ@SV_TEAMSCORE?$AA@ 004844dc     fps.obj
 0002:000074ec       ??_C@_0M@GCPOENEH@SV_BASEINFO?$AA@ 004844ec     fps.obj
 0002:000074f8       ??_C@_08NIBMOJD@SV_BASES?$AA@ 004844f8     fps.obj
 0002:00007504       ??_C@_0L@GDJGHODP@SV_SETTEAM?$AA@ 00484504     fps.obj
 0002:00007510       ??_C@_0N@EPFJCCJA@SV_SETMASTER?$AA@ 00484510     fps.obj
 0002:00007520       ??_C@_0N@NIMLNFK@SV_SPECTATOR?$AA@ 00484520     fps.obj
 0002:00007530       ??_C@_0BB@CMNMKAHA@SV_CURRENTMASTER?$AA@ 00484530     fps.obj
 0002:00007544       ??_C@_0N@BJKOPJOI@SV_CLEARBANS?$AA@ 00484544     fps.obj
 0002:00007554       ??_C@_07FEMHGJKE@SV_KICK?$AA@ 00484554     fps.obj
 0002:0000755c       ??_C@_0O@KKEFEELL@SV_MASTERMODE?$AA@ 0048455c     fps.obj
 0002:0000756c       ??_C@_0L@JLODIMLD@SV_SENDMAP?$AA@ 0048456c     fps.obj
 0002:00007578       ??_C@_09HCCPPADE@SV_GETMAP?$AA@ 00484578     fps.obj
 0002:00007584       ??_C@_09KABHMPDH@SV_NEWMAP?$AA@ 00484584     fps.obj
 0002:00007590       ??_C@_08GJCGOAMD@SV_REMIP?$AA@ 00484590     fps.obj
 0002:0000759c       ??_C@_0L@LCCLOOKH@SV_DELCUBE?$AA@ 0048459c     fps.obj
 0002:000075a8       ??_C@_0L@CAACCJMF@SV_REPLACE?$AA@ 004845a8     fps.obj
 0002:000075b4       ??_C@_09IBNMFIAM@SV_ROTATE?$AA@ 004845b4     fps.obj
 0002:000075c0       ??_C@_08ECODBBJD@SV_PASTE?$AA@ 004845c0     fps.obj
 0002:000075cc       ??_C@_07CHEIBAED@SV_COPY?$AA@ 004845cc     fps.obj
 0002:000075d4       ??_C@_07DPCIBDGL@SV_FLIP?$AA@ 004845d4     fps.obj
 0002:000075dc       ??_C@_08COGFDADI@SV_EDITM?$AA@ 004845dc     fps.obj
 0002:000075e8       ??_C@_08LFGFJJCA@SV_EDITT?$AA@ 004845e8     fps.obj
 0002:000075f4       ??_C@_08MNJBOJPD@SV_EDITF?$AA@ 004845f4     fps.obj
 0002:00007600       ??_C@_0L@FACBLCEH@SV_EDITENT?$AA@ 00484600     fps.obj
 0002:0000760c       ??_C@_0M@PBAMMBBF@SV_EDITMODE?$AA@ 0048460c     fps.obj
 0002:00007618       ??_C@_09FOOLPPEN@SV_RESUME?$AA@ 00484618     fps.obj
 0002:00007624       ??_C@_0M@NKEBNKIE@SV_ITEMLIST?$AA@ 00484624     fps.obj
 0002:00007630       ??_C@_0L@OPPGHJDJ@SV_SERVMSG?$AA@ 00484630     fps.obj
 0002:0000763c       ??_C@_0L@PIFLIONM@SV_ITEMACC?$AA@ 0048463c     fps.obj
 0002:00007648       ??_C@_0N@NLKGKPMK@SV_MAPRELOAD?$AA@ 00484648     fps.obj
 0002:00007658       ??_C@_09OALAGAKM@SV_TIMEUP?$AA@ 00484658     fps.obj
 0002:00007664       ??_C@_0O@NCNGEBAL@SV_CLIENTPING?$AA@ 00484664     fps.obj
 0002:00007674       ??_C@_07MCPBEMLE@SV_PONG?$AA@ 00484674     fps.obj
 0002:0000767c       ??_C@_07OHJKBDGI@SV_PING?$AA@ 0048467c     fps.obj
 0002:00007684       ??_C@_09MPFCINFE@SV_DENIED?$AA@ 00484684     fps.obj
 0002:00007690       ??_C@_0O@CBMBCLDK@SV_ITEMPICKUP?$AA@ 00484690     fps.obj
 0002:000076a0       ??_C@_0N@ODNDAAJI@SV_ITEMSPAWN?$AA@ 004846a0     fps.obj
 0002:000076b0       ??_C@_0L@KCDAGDLE@SV_MAPVOTE?$AA@ 004846b0     fps.obj
 0002:000076bc       ??_C@_0N@PLCLMFEJ@SV_MAPCHANGE?$AA@ 004846bc     fps.obj
 0002:000076cc       ??_C@_08LOHBAJOP@SV_TAUNT?$AA@ 004846cc     fps.obj
 0002:000076d8       ??_C@_0N@NEBFCCII@SV_GUNSELECT?$AA@ 004846d8     fps.obj
 0002:000076e8       ??_C@_0M@MIKIDLNF@SV_ARENAWIN?$AA@ 004846e8     fps.obj
 0002:000076f4       ??_C@_0O@FKAANPHE@SV_FORCEDEATH?$AA@ 004846f4     fps.obj
 0002:00007704       ??_C@_08ICFFCFIJ@SV_SPAWN?$AA@ 00484704     fps.obj
 0002:00007710       ??_C@_0O@MKECIKFL@SV_SPAWNSTATE?$AA@ 00484710     fps.obj
 0002:00007720       ??_C@_0M@PIDODBP@SV_TRYSPAWN?$AA@ 00484720     fps.obj
 0002:0000772c       ??_C@_09KKJHHJDM@SV_SHOTFX?$AA@ 0048472c     fps.obj
 0002:00007738       ??_C@_0L@ECKLELDC@SV_HITPUSH?$AA@ 00484738     fps.obj
 0002:00007744       ??_C@_09MMEIHIFC@SV_DAMAGE?$AA@ 00484744     fps.obj
 0002:00007750       ??_C@_07FFICJOAI@SV_DIED?$AA@ 00484750     fps.obj
 0002:00007758       ??_C@_0L@ONAEEPHN@SV_SUICIDE?$AA@ 00484758     fps.obj
 0002:00007764       ??_C@_0L@LFOFINEP@SV_EXPLODE?$AA@ 00484764     fps.obj
 0002:00007770       ??_C@_08JAACIGOK@SV_SHOOT?$AA@ 00484770     fps.obj
 0002:0000777c       ??_C@_07BJFBOHDH@SV_CDIS?$AA@ 0048477c     fps.obj
 0002:00007784       ??_C@_08FGIGJFGH@SV_SOUND?$AA@ 00484784     fps.obj
 0002:00007790       ??_C@_07CBIIJEEA@SV_TEXT?$AA@ 00484790     fps.obj
 0002:00007798       ??_C@_06DBGHKLJD@SV_POS?$AA@ 00484798     fps.obj
 0002:000077a0       ??_C@_0L@JEDPKAGJ@SV_INITC2S?$AA@ 004847a0     fps.obj
 0002:000077ac       ??_C@_0L@IOOEOFKH@SV_INITS2C?$AA@ 004847ac     fps.obj
 0002:000077b8       ??_C@_08LHPBHPJM@waypoint?$AA@ 004847b8     fps.obj
 0002:000077c4       ??_C@_07IPMKCLLF@?$AMs?$AM4?$DP?$AMr?$AA@ 004847c4     fps.obj
 0002:000077cc       ??_C@_0L@OEMCJAIP@?$AMs?$AM3full?$AMr?$AA@ 004847cc     fps.obj
 0002:000077d8       ??_C@_0O@MJJCPHJI@?$AMs?$AM2private?$AMr?$AA@ 004847d8     fps.obj
 0002:000077e8       ??_C@_0N@COLKDLHM@?$AMs?$AM1locked?$AMr?$AA@ 004847e8     fps.obj
 0002:000077f8       ??_C@_0L@IABOJPG@?$AMs?$AM0open?$AMr?$AA@ 004847f8     fps.obj
 0002:00007804       ??_C@_09NBOIMAJH@time?5left?$AA@ 00484804     fps.obj
 0002:00007810       ??_C@_08LOECGGEB@map?5name?$AA@ 00484810     fps.obj
 0002:0000781c       ??_C@_09KECJGGMO@game?5mode?$AA@ 0048481c     fps.obj
 0002:00007828       ??_C@_03LJAEFNNE@max?$AA@  00484828     fps.obj
 0002:0000782c       ??_C@_02JNAHGKBG@pl?$AA@   0048482c     fps.obj
 0002:00007830       ??_C@_04OONEELOO@ping?$AA@ 00484830     fps.obj
 0002:00007838       ??_C@_0M@PPJNHBMP@description?$AA@ 00484838     fps.obj
 0002:00007844       ??_C@_04OODOLJMA@host?$AA@ 00484844     fps.obj
 0002:0000784c       ??_C@_06DJIHEMFI@status?$AA@ 0048484c     fps.obj
 0002:00007854       ??_C@_04NHHDMLCI@bite?$AA@ 00484854     fps.obj
 0002:0000785c       ??_C@_09COENHBFK@slimeball?$AA@ 0048485c     fps.obj
 0002:00007868       ??_C@_07FPPDPBDD@iceball?$AA@ 00484868     fps.obj
 0002:00007870       ??_C@_08DCAIFFKA@fireball?$AA@ 00484870     fps.obj
 0002:0000787c       ??_C@_06HBOMKLFK@pistol?$AA@ 0048487c     fps.obj
 0002:00007884       ??_C@_0BA@LINEBENL@grenadelauncher?$AA@ 00484884     fps.obj
 0002:00007894       ??_C@_05NLPPOCND@rifle?$AA@ 00484894     fps.obj
 0002:0000789c       ??_C@_0P@DBMKEOAJ@rocketlauncher?$AA@ 0048489c     fps.obj
 0002:000078ac       ??_C@_08FEJLBOPJ@chaingun?$AA@ 004848ac     fps.obj
 0002:000078b8       ??_C@_07PKBOGMMP@shotgun?$AA@ 004848b8     fps.obj
 0002:000078c0       ??_C@_04HEGFFIHN@fist?$AA@ 004848c0     fps.obj
 0002:000078c8       ??_C@_01BNIGIBBF@Q?$AA@    004848c8     fps.obj
 0002:000078cc       ??_C@_02IKLBENJG@YA?$AA@   004848cc     fps.obj
 0002:000078d0       ??_C@_02JMAJMDOM@GA?$AA@   004848d0     fps.obj
 0002:000078d4       ??_C@_02EAFMPNHD@MH?$AA@   004848d4     fps.obj
 0002:000078d8       ??_C@_01IGIGCIAN@H?$AA@    004848d8     fps.obj
 0002:000078dc       ??_C@_02ENLJPMBB@PI?$AA@   004848dc     fps.obj
 0002:000078e0       ??_C@_02CJKHLNKB@GL?$AA@   004848e0     fps.obj
 0002:000078e4       ??_C@_02EODNCIHP@RI?$AA@   004848e4     fps.obj
 0002:000078e8       ??_C@_02DDEKNMDK@RL?$AA@   004848e8     fps.obj
 0002:000078ec       ??_C@_02MNFKMMLG@CG?$AA@   004848ec     fps.obj
 0002:000078f0       ??_C@_02NBHMGPMG@SG?$AA@   004848f0     fps.obj
 0002:000078f4       ??_C@_08EDNBOHIM@sfx?1back?$AA@ 004848f4     fps.obj
 0002:00007900       ??_C@_09BDJNLDAH@sfx?1input?$AA@ 00484900     fps.obj
 0002:0000790c       ??_C@_06MEOHGENE@gameid?$AA@ 0048490c     fps.obj
 0002:00007914       ??_C@_07KOKEIICM@botrate?$AA@ 00484914     fps.obj
 0002:0000791c       ??_C@_07KMHAENDM@botauto?$AA@ 0048491c     fps.obj
 0002:00007924       ??_C@_07CEGOLIPK@botdrop?$AA@ 00484924     fps.obj
 0002:0000792c       ??_C@_06NCNKLJKM@botnum?$AA@ 0048492c     fps.obj
 0002:00007934       ??_C@_0L@IBGCCMOA@botwaydist?$AA@ 00484934     fps.obj
 0002:00007940       ??_C@_0L@MIPMFLGB@botwaynear?$AA@ 00484940     fps.obj
 0002:0000794c       ??_C@_03LFPLOMCK@ri2?$AA@  0048494c     fps.obj
 0002:00007950       ??_C@_03OMLEGILF@rii?$AA@  00484950     fps.obj
 0002:00007954       ??_C@_04BOGJAFCD@risi?$AA@ 00484954     fps.obj
 0002:0000795c       ??_C@_07HBLMFEPD@riissii?$AA@ 0048495c     fps.obj
 0002:00007964       ??_C@_02POGCAHMO@th?$AA@   00484964     fps.obj
 0002:00007968       ??_C@_02FGFKDEHA@rd?$AA@   00484968     fps.obj
 0002:0000796c       ??_C@_02EDGGGOGE@nd?$AA@   0048496c     fps.obj
 0002:00007970       ??_C@_02BNFKEMBG@st?$AA@   00484970     fps.obj
 0002:00007974       ??_C@_0BP@LGFBFFGH@you?5are?5?$CFd?$CFs?5in?5the?5duel?5queue?$AA@ 00484974     fps.obj
 0002:00007994       ??_C@_0BD@DABMHOCA@duel?5?$CD?$CFd?0?5?$CFs?5vs?5?$CFs?$AA@ 00484994     fps.obj
 0002:000079a8       ??_C@_0BN@JLCCLOFH@?$CFs?5won?5the?5duel?5for?5team?5?$CFs?$CB?$AA@ 004849a8     fps.obj
 0002:000079c8       ??_C@_0BB@FPPKFMBG@?$CFs?5won?5the?5duel?$CB?$AA@ 004849c8     fps.obj
 0002:000079dc       ??_C@_0BE@HDDKNNPH@both?5duellers?5died?$CB?$AA@ 004849dc     fps.obj
 0002:000079f0       ??_C@_03FMJJJCGO@ris?$AA@  004849f0     fps.obj
 0002:000079f4       ??_C@_03KMOANNGL@ri3?$AA@  004849f4     fps.obj
 0002:000079f8       ??_C@_0BH@EFFCGLG@?$CFs?5forced?5?$CFs?5on?5map?5?$CFs?$AA@ 004849f8     fps.obj
 0002:00007a10       ??_C@_0CO@JLACOPBF@?$CFs?5suggests?5?$CFs?5on?5map?5?$CFs?5?$CIselect@ 00484a10     fps.obj
 0002:00007a40       ??_C@_04LPPFNJFO@riis?$AA@ 00484a40     fps.obj
 0002:00007a48       ??_C@_0L@CPKBBHMH@demorecord?$AA@ 00484a48     fps.obj
 0002:00007a54       ??_C@_02LKLDBFPJ@MB?$AA@   00484a54     fps.obj
 0002:00007a58       ??_C@_02IGHDCPKL@kB?$AA@   00484a58     fps.obj
 0002:00007a5c       ??_C@_0BD@DGFCCFFP@?$CFs?3?5?$CFs?0?5?$CFs?0?5?$CF?42f?$CFs?$AA@ 00484a5c     fps.obj
 0002:00007a70       ??_C@_0BD@MHEMNAHP@demo?5?$CC?$CFs?$CC?5recorded?$AA@ 00484a70     fps.obj
 0002:00007a84       ??_C@_0P@KHAJHHDM@recording?5demo?$AA@ 00484a84     fps.obj
 0002:00007a94       ??_C@_0BB@JKJONNAF@SAUERBRATEN_DEMO?$AA@ 00484a94     fps.obj
 0002:00007aa8       ??_C@_0BC@POHFLPFB@cleared?5all?5demos?$AA@ 00484aa8     fps.obj
 0002:00007abc       ??_C@_0BA@NBBADEHC@cleared?5demo?5?$CFd?$AA@ 00484abc     fps.obj
 0002:00007acc       ??_C@_03IINIKNLB@rim?$AA@  00484acc     fps.obj
 0002:00007ad0       ??_C@_06BKHPJHPP@?$CFs?4dmo?$AA@ 00484ad0     fps.obj
 0002:00007ad8       ??_C@_0BJ@FGMPABJP@could?5not?5read?5demo?5?$CC?$CFs?$CC?$AA@ 00484ad8     fps.obj
 0002:00007af4       ??_C@_0BI@GNMJEANF@?$CC?$CFs?$CC?5is?5not?5a?5demo?5file?$AA@ 00484af4     fps.obj
 0002:00007b0c       ??_C@_05MAMALHE@older?$AA@ 00484b0c     fps.obj
 0002:00007b14       ??_C@_05IIOMECNB@newer?$AA@ 00484b14     fps.obj
 0002:00007b1c       ??_C@_0DD@MPEAEFCB@demo?5?$CC?$CFs?$CC?5requires?5an?5?$CFs?5version@ 00484b1c     fps.obj
 0002:00007b50       ??_C@_0BC@HOBCLJFH@playing?5demo?5?$CC?$CFs?$CC?$AA@ 00484b50     fps.obj
 0002:00007b64       ??_C@_0BH@DDHBGPNA@demo?5playback?5finished?$AA@ 00484b64     fps.obj
 0002:00007b7c       ??_C@_0BH@MDKGCMOP@vote?5passed?5by?5default?$AA@ 00484b7c     fps.obj
 0002:00007b94       ??_C@_0BI@JODGAEPN@vote?5passed?5by?5majority?$AA@ 00484b94     fps.obj
 0002:00007bac       ??_C@_02ODPEEKDN@ri?$AA@   00484bac     fps.obj
 0002:00007bb0       ??_C@_08LDNJCLHG@not?5dead?$AA@ 00484bb0     fps.obj
 0002:00007bbc       ??_C@_0M@CJKPMCBJ@not?5spawned?$AA@ 00484bbc     fps.obj
 0002:00007bc8       ??_C@_0BD@GIAEFEDP@forbidden?5to?5spawn?$AA@ 00484bc8     fps.obj
 0002:00007bdc       ??_C@_0L@NCOGILPC@you?5are?5?$CFs?$AA@ 00484bdc     fps.obj
 0002:00007be8       ??_C@_07LFIJDALL@unnamed?$AA@ 00484be8     fps.obj
 0002:00007bf0       ??_C@_03EPBEAEKA@ri8?$AA@  00484bf0     fps.obj
 0002:00007bf4       ??_C@_02KKMIICDD@i2?$AA@   00484bf4     fps.obj
 0002:00007bf8       ??_C@_0BF@IOLNPHMJ@mastermode?5is?5now?5?$CFd?$AA@ 00484bf8     fps.obj
 0002:00007c10       ??_C@_0CJ@HNMCMLJD@mastermode?5?$CFd?5is?5disabled?5on?5thi@ 00484c10     fps.obj
 0002:00007c3c       ??_C@_0BB@IMLLIGON@cleared?5all?5bans?$AA@ 00484c3c     fps.obj
 0002:00007c50       ??_C@_07MHHIKOPA@enabled?$AA@ 00484c50     fps.obj
 0002:00007c58       ??_C@_08BEHKFNNO@disabled?$AA@ 00484c58     fps.obj
 0002:00007c64       ??_C@_0CE@BBEABPBK@demo?5recording?5is?5?$CFs?5for?5next?5ma@ 00484c64     fps.obj
 0002:00007c88       ??_C@_0BG@GDOFJFGK@server?5sending?5map?4?4?4?$AA@ 00484c88     fps.obj
 0002:00007ca0       ??_C@_0P@BOFDIBHG@no?5map?5to?5send?$AA@ 00484ca0     fps.obj
 0002:00007cb0       ??_C@_04DMOIMBME@ri2x?$AA@ 00484cb0     fps.obj
 0002:00007cb8       ??_C@_04DNCKKLPD@ri3x?$AA@ 00484cb8     fps.obj
 0002:00007cc0       ??_C@_0CA@FDLOPOGE@?$CDMOD?$CD?5version?5Blood?5Frontier?5?$CFd?$AA@ 00484cc0     fps.obj
 0002:00007ce0       ??_C@_04KEKACOKB@ri7v?$AA@ 00484ce0     fps.obj
 0002:00007ce8       ??_C@_03NBJHCJCO@ri6?$AA@  00484ce8     fps.obj
 0002:00007cec       ??_C@_03ODKBELKM@ri4?$AA@  00484cec     fps.obj
 0002:00007cf0       ??_C@_04DALNCOCF@ri9x?$AA@ 00484cf0     fps.obj
 0002:00007cf8       ??_C@_0BF@JDIDJCBN@invalid?5game?5id?5?8?$CFd?8?$AA@ 00484cf8     fps.obj
 0002:00007d10       ??_C@_05JEBDMKHG@admin?$AA@ 00484d10     fps.obj
 0002:00007d18       ??_C@_06ECGAGODA@master?$AA@ 00484d18     fps.obj
 0002:00007d20       ??_C@_07FJOEOACK@claimed?$AA@ 00484d20     fps.obj
 0002:00007d28       ??_C@_0N@IHHDMIFC@relinquished?$AA@ 00484d28     fps.obj
 0002:00007d38       ??_C@_08EPEHIMMI@?$CFs?5?$CFs?5?$CFs?$AA@ 00484d38     fps.obj
 0002:00007d44       ??_C@_0BE@NEEBKBBN@bloodfrontierserver?$AA@ 00484d44     fps.obj
 0002:00007d58       ??_C@_0P@POFAAMFB@acord?4woop?4us?1?$AA@ 00484d58     fps.obj
 0002:00007d68       ??_C@_0BO@NAPIODLK@sauerbraten?4org?1masterserver?1?$AA@ 00484d68     fps.obj
 0002:00007d88       ??_C@_04CGFJFPFD@none?$AA@ 00484d88     fps.obj
 0002:00007d90       ??_C@_0M@GNEFELIP@serversplit?$AA@ 00484d90     fps.obj
 0002:00007d9c       ??_C@_0BI@MEIABLAD@serversort?5?$DN?5?$CC?$CFd?5?$CFd?5?$CFd?$CC?$AA@ 00484d9c     fps.obj
 0002:00007db4       ??_C@_0L@COGJHEJP@serversort?$AA@ 00484db4     fps.obj
 0002:00007dc0       ??_C@_0BE@DHEBOAID@listlen?5$serversort?$AA@ 00484dc0     fps.obj
 0002:00007dd4       ??_C@_0BC@KKFEBOHM@at?5$serversort?5?$CFd?$AA@ 00484dd4     fps.obj
 0002:00007de8       ??_C@_0BG@PAHBNGIG@serversort?5?$DN?5?$CC?$CFd?$CFs?$CFs?$CC?$AA@ 00484de8     fps.obj
 0002:00007e00       ??_C@_06HJHJCKIO@server?$AA@ 00484e00     fps.obj
 0002:00007e08       ??_C@_03KLIPLJLL@min?$AA@  00484e08     fps.obj
 0002:00007e0c       ??_C@_04FIAKMPII@mins?$AA@ 00484e0c     fps.obj
 0002:00007e14       ??_C@_05OPEIBKFE@?$CFd?5?$CFs?$AA@ 00484e14     fps.obj
 0002:00007e1c       ??_C@_0DF@IEJLMEPD@?$FL?$CFs?5uploaded?5map?5to?5server?0?5?$CC?1ge@ 00484e1c     fps.obj
 0002:00007e54       ??_C@_0O@EKFJGJDJ@?$CFs?5?$AMs?$AM5?$CI?$CFd?$CJ?$AMr?$AA@ 00484e54     fps.obj
 0002:00007e64       ??_C@_03CJHCFFJJ@bfg?$AA@  00484e64     fps.obj
 0002:00007e68       ??_C@_03EGBKCEAL@unk?$AA@  00484e68     fps.obj
 0002:00007e6c       ??_C@_05IHOGHNDL@Alpha?$AA@ 00484e6c     fps.obj
 0002:00007e74       ??_C@_0M@BJNKDDJM@Sauerbraten?$AA@ 00484e74     fps.obj
 0002:00007e80       ??_C@_07NBCGADJA@Unknown?$AA@ 00484e80     fps.obj
 0002:00007e88       ??_C@_05IANKJFMN@usm01?$AA@ 00484e88     fps.obj
 0002:00007e90       ??_C@_05LFDPEMJN@metl4?$AA@ 00484e90     fps.obj
 0002:00007e98       ??_C@_05FAGFPHJG@start?$AA@ 00484e98     fps.obj
 0002:00007ea0       ??_C@_0P@BEDEDFEK@?$CFs?5set?5?$CFs?5?$DN?5?$CFd?$AA@ 00484ea0     fps.obj
 0002:00007eb0       ??_C@_0CB@BCAPBMJB@?$AM2Blood?5Frontier?5support?5enabled@ 00484eb0     fps.obj
 0002:00007ed4       ??_C@_05CFMALAOA@reset?$AA@ 00484ed4     fps.obj
 0002:00007edc       ??_C@_0BG@LPGAKKH@?$CFs?5reset?5all?5powerups?$AA@ 00484edc     fps.obj
 0002:00007ef4       ??_C@_06DOEJMPPH@shells?$AA@ 00484ef4     fps.obj
 0002:00007efc       ??_C@_07MOKFMADJ@bullets?$AA@ 00484efc     fps.obj
 0002:00007f04       ??_C@_07DCMGFMFH@rockets?$AA@ 00484f04     fps.obj
 0002:00007f0c       ??_C@_0M@LKDFPMNF@riflerounds?$AA@ 00484f0c     fps.obj
 0002:00007f18       ??_C@_08HOOJIBOO@grenades?$AA@ 00484f18     fps.obj
 0002:00007f24       ??_C@_0L@EBGFAHAE@cartridges?$AA@ 00484f24     fps.obj
 0002:00007f30       ??_C@_06KJINILIP@health?$AA@ 00484f30     fps.obj
 0002:00007f38       ??_C@_0M@LPDJFKGJ@healthboost?$AA@ 00484f38     fps.obj
 0002:00007f44       ??_C@_0M@LMAKOAIO@greenarmour?$AA@ 00484f44     fps.obj
 0002:00007f50       ??_C@_0N@OPLOOMAJ@yellowarmour?$AA@ 00484f50     fps.obj
 0002:00007f60       ??_C@_0L@KPHGGDIO@quaddamage?$AA@ 00484f60     fps.obj
 0002:00007f6c       ??_C@_03MCADLMAF@off?$AA@  00484f6c     fps.obj
 0002:00007f70       ??_C@_05LAPONLG@false?$AA@ 00484f70     fps.obj
 0002:00007f78       ??_C@_02LIELOMNJ@on?$AA@   00484f78     fps.obj
 0002:00007f7c       ??_C@_04LOAJBDKD@true?$AA@ 00484f7c     fps.obj
 0002:00007f84       ??_C@_0N@CFEKEIKI@?$CFs?5?$CFs?5the?5?$CFs?$AA@ 00484f84     fps.obj
 0002:00007f94       ??_C@_0BM@LKNBCMLM@powerup?5?$CFs?5is?5currently?3?5?$CFs?$AA@ 00484f94     fps.obj
 0002:00007fb0       ??_C@_0BE@KICDHKDC@invalid?5powerup?3?5?$CFs?$AA@ 00484fb0     fps.obj
 0002:00007fc4       ??_C@_0BI@HLAPLKAI@insufficient?5parameters?$AA@ 00484fc4     fps.obj
 0002:00007fdc       ??_C@_0CA@HKGEEFLA@not?5available?5in?5this?5game?5mode?$AA@ 00484fdc     fps.obj
 0002:00007ffc       ??_C@_0BJ@PHDGAOHH@?$CFs?5reset?5all?5spawnstates?$AA@ 00484ffc     fps.obj
 0002:00008018       ??_C@_09MHNPKMIF@maxhealth?$AA@ 00485018     fps.obj
 0002:00008024       ??_C@_06EEGMCOHM@armour?$AA@ 00485024     fps.obj
 0002:0000802c       ??_C@_0L@PNNNILEH@armourtype?$AA@ 0048502c     fps.obj
 0002:00008038       ??_C@_09IEFKLMDK@gunselect?$AA@ 00485038     fps.obj
 0002:00008044       ??_C@_0BL@LBAKKPNM@?$CFs?5set?5spawnstate?5?$CFs?5to?5?$CFs?$AA@ 00485044     fps.obj
 0002:00008060       ??_C@_0BL@LEIJCLEK@?$CFs?5set?5spawnstate?5?$CFs?5to?5?$CFd?$AA@ 00485060     fps.obj
 0002:0000807c       ??_C@_0CC@KBABEGNG@?$CFs?5reset?5spawnstate?5?$CFs?5to?5defaul@ 0048507c     fps.obj
 0002:000080a0       ??_C@_0BP@PDMGGDO@spawnstate?5?$CFs?5is?5currently?3?5?$CFs?$AA@ 004850a0     fps.obj
 0002:000080c0       ??_C@_0BP@KLPOCKI@spawnstate?5?$CFs?5is?5currently?3?5?$CFd?$AA@ 004850c0     fps.obj
 0002:000080e0       ??_C@_0CA@IOBFDAOF@spawnstate?5?$CFs?5is?5using?5defaults?$AA@ 004850e0     fps.obj
 0002:00008100       ??_C@_0BH@GOBHFNPI@invalid?5spawnstate?3?5?$CFs?$AA@ 00485100     fps.obj
 0002:00008118       ??_C@_07CPCPJPKL@version?$AA@ 00485118     fps.obj
 0002:00008120       ??_C@_0BE@NMDAEJPF@insufficient?5access?$AA@ 00485120     fps.obj
 0002:00008134       ??_C@_09KPHKOKCC@timelimit?$AA@ 00485134     fps.obj
 0002:00008140       ??_C@_09GCIEGDDN@fraglimit?$AA@ 00485140     fps.obj
 0002:0000814c       ??_C@_08KKHMPEME@duelgame?$AA@ 0048514c     fps.obj
 0002:00008158       ??_C@_0M@NLHMLIOK@damagescale?$AA@ 00485158     fps.obj
 0002:00008164       ??_C@_09HMDPLEIL@instakill?$AA@ 00485164     fps.obj
 0002:00008170       ??_C@_0L@OGMAFFAP@teamdamage?$AA@ 00485170     fps.obj
 0002:0000817c       ??_C@_0L@HKPJDDMH@spawnstate?$AA@ 0048517c     fps.obj
 0002:00008188       ??_C@_09EKNBGHDE@maxdebris?$AA@ 00485188     fps.obj
 0002:00008194       ??_C@_0BC@KEBJEJIK@weaponswitchstyle?$AA@ 00485194     fps.obj
 0002:000081a8       ??_C@_05PILEPJFP@ri2iv?$AA@ 004851a8     fps.obj
 0002:000081b0       ??_C@_05HGJMKPKK@blood?$AA@ 004851b0     fps.obj
 0002:000081b8       ??_C@_03HKLIFCHG@?$EA?$CFd?$AA@ 004851b8     fps.obj
 0002:000081bc       ??_C@_07FMDFIFHF@ri2i6iv?$AA@ 004851bc     fps.obj
 0002:000081c4       ??_C@_0BE@EONANEAG@projectiles?1grenade?$AA@ 004851c4     fps.obj
 0002:000081d8       ??_C@_04FBGCDMBM@gibc?$AA@ 004851d8     fps.obj
 0002:000081e0       ??_C@_04LCJGOFNH@gibh?$AA@ 004851e0     fps.obj
 0002:000081e8       ??_C@_0BB@CCPOEFIK@debris?1debris0?$CFd?$AA@ 004851e8     fps.obj
 0002:000081fc       ??_C@_0BD@JGHENKAG@projectiles?1rocket?$AA@ 004851fc     fps.obj
 0002:00008210       ??_C@_0CG@FODOFOEK@warning?3?5unknown?5monster?5in?5spaw@ 00485210     fps.obj
 0002:00008238       ??_C@_05ODMCMJAJ@skill?$AA@ 00485238     fps.obj
 0002:00008240       ??_C@_0L@BGEAJACC@dmsprounds?$AA@ 00485240     fps.obj
 0002:0000824c       ??_C@_0BM@KJGPJJDD@?$AM2you?5have?5cleared?5the?5map?$CB?$AA@ 0048524c     fps.obj
 0002:00008268       ??_C@_0BI@GIPJPDJJ@?$AM2you?5reached?5the?5exit?$CB?$AA@ 00485268     fps.obj
 0002:00008280       ??_C@_0BN@NPOKJKDD@?$AM2?$CFd?5monster?$CIs?$CJ?5still?5lurk?4?4?$AA@ 00485280     fps.obj
 0002:000082a0       ??_C@_0BB@OIAEKIFJ@?$AM2wave?5?$CFd?5clear?$CB?$AA@ 004852a0     fps.obj
 0002:000082b4       ??_C@_0BC@BKNAJDOE@?$AM2invasion?5clear?$CB?$AA@ 004852b4     fps.obj
 0002:000082c8       ??_C@_0CG@ENHKMEEF@?$AM2wave?5?$CFd?5of?5?$CFd?0?5?$CFd?5monsters?4?4?5f@ 004852c8     fps.obj
 0002:000082f0       ??_C@_0CD@BMCBFEBI@?$AM2final?5wave?0?5?$CFd?5monsters?4?4?5figh@ 004852f0     fps.obj
 0002:00008314       ??_C@_0CC@OLBAINAD@?$AM2the?5invasion?5has?5begun?4?4?5fight@ 00485314     fps.obj
 0002:00008338       ??_C@_0L@BBBLFENB@scoresinfo?$AA@ 00485338     fps.obj
 0002:00008344       ??_C@_0O@JAPEKPMJ@showclientnum?$AA@ 00485344     fps.obj
 0002:00008354       ??_C@_06HNNNPEME@showpj?$AA@ 00485354     fps.obj
 0002:0000835c       ??_C@_08GPAGONDG@showping?$AA@ 0048535c     fps.obj
 0002:00008368       ??_C@_0P@MHDOHHIN@showspectators?$AA@ 00485368     fps.obj
 0002:00008378       ??_C@_0P@PBEHPNIA@highlightscore?$AA@ 00485378     fps.obj
 0002:00008388       ??_C@_0P@DEKFAGMD@showconnecting?$AA@ 00485388     fps.obj
 0002:00008398       ??_C@_09MGJEJNJP@?$FLnew?5map?$FN?$AA@ 00485398     fps.obj
 0002:000083a4       ??_C@_0P@FPMCFCJN@?0?5intermission?$AA@ 004853a4     fps.obj
 0002:000083b4       ??_C@_06JGJIJFNK@minute?$AA@ 004853b4     fps.obj
 0002:000083bc       ??_C@_07GCICIJGK@minutes?$AA@ 004853bc     fps.obj
 0002:000083c4       ??_C@_0BC@EBOEEOHM@?0?5?$CFd?5?$CFs?5remaining?$AA@ 004853c4     fps.obj
 0002:000083d8       ??_C@_06BALNJMNP@player?$AA@ 004853d8     fps.obj
 0002:000083e0       ??_C@_0CI@MLNNOHID@?$CFs?3?5?$AMs?$AM0?$CFd?$AMr?5frag?$CIs?$CJ?0?5?$AMs?$AM0?$CFd?$AMr?5d@ 004853e0     fps.obj
 0002:00008408       ??_C@_0DM@JNLFBMH@damage?3?5?$AMs?$AM0?$CFd?$AMr?5hp?0?5wasted?3?5?$AMs?$AM@ 00485408     fps.obj
 0002:00008444       ??_C@_0BP@BFJGDCCC@time?5taken?3?5?$AMs?$AM0?$CFd?$AMr?5second?$CIs?$CJ?$AA@ 00485444     fps.obj
 0002:00008464       ??_C@_0DA@ENJGLKGC@penalty?5for?5?$AMs?$AM0?$CFd?$AMr?5deaths?3?5?$AMs?$AM@ 00485464     fps.obj
 0002:00008494       ??_C@_0DM@FMFBIAKN@penalty?5for?5?$AMs?$AM0?$CFd?$AMr?5monsters?5re@ 00485494     fps.obj
 0002:000084d0       ??_C@_0CM@KPCOCPGG@penalty?5for?5skill?5level?3?5?$AMs?$AM0?$CFd?$AM@ 004854d0     fps.obj
 0002:000084fc       ??_C@_0CN@MCMHPHEC@penalty?5for?5missed?5shots?3?5?$AMs?$AM0?$CFd@ 004854fc     fps.obj
 0002:0000852c       ??_C@_0N@OCMBFNBJ@bestscore_?$CFs?$AA@ 0048552c     fps.obj
 0002:0000853c       ??_C@_0DE@DPFMDKBH@SCORE?3?5?$AMs?$AM0?$CFd?$AMr?5second?$CIs?$CJ?0?5best?3@ 0048553c     fps.obj
 0002:00008570       ??_C@_0M@FOBNCKGL@player_blue?$AA@ 00485570     fps.obj
 0002:0000857c       ??_C@_0L@PCBKLPKP@player_red?$AA@ 0048557c     fps.obj
 0002:00008588       ??_C@_07NFIAGOAC@?$CFs?3?5WIN?$AA@ 00485588     fps.obj
 0002:00008590       ??_C@_06GBEGMGE@?$CFs?3?5?$CFd?$AA@ 00485590     fps.obj
 0002:00008598       ??_C@_05NJJCGGEC@frags?$AA@ 00485598     fps.obj
 0002:000085a0       ??_C@_02MLFNMNJA@pj?$AA@   004855a0     fps.obj
 0002:000085a4       ??_C@_03MBBJPJFD@LAG?$AA@  004855a4     fps.obj
 0002:000085a8       ??_C@_04MEMAJGDJ@name?$AA@ 004855a8     fps.obj
 0002:000085b0       ??_C@_02LBFBBFLN@cn?$AA@   004855b0     fps.obj
 0002:000085b4       ??_C@_09FNMDCDOI@spectator?$AA@ 004855b4     fps.obj
 0002:000085c0       ??_C@_0P@DPBPPFDB@?$CFd?5spectator?$CFs?$AA@ 004855c0     fps.obj
 0002:000085d0       ??_C@_09GACCLGCF@teamskins?$AA@ 004855d0     fps.obj
 0002:000085dc       ??_C@_06JEKCODGC@mtroop?$AA@ 004855dc     fps.obj
 0002:000085e4       ??_C@_0M@MGKBOCMH@mtroop?1blue?$AA@ 004855e4     fps.obj
 0002:000085f0       ??_C@_04LADICFHB@?5?$CL?$CFd?$AA@ 004855f0     fps.obj
 0002:000085f8       ??_C@_0CO@PBCGPFCA@?$AM2you?5have?5a?5permanent?5?$CL10?5healt@ 004855f8     fps.obj
 0002:00008628       ??_C@_0BE@FEODHDPI@?$AM2you?5got?5the?5quad?$CB?$AA@ 00485628     fps.obj
 0002:0000863c       ??_C@_0CD@NCENENAK@no?5teleport?5destination?5for?5tag?5@ 0048563c     fps.obj
 0002:00008660       ??_C@_0BF@FPENCJCK@?$AM2respawn?5point?5set?$CB?$AA@ 00485660     fps.obj
 0002:00008678       ??_C@_0BG@IFLFJHGO@?$AM2quad?5damage?5is?5over?$AA@ 00485678     fps.obj
 0002:00008690       ??_C@_03FGAPDFOB@ri9?$AA@  00485690     fps.obj
 0002:00008694       ??_C@_09FGKPNPDH@showallwp?$AA@ 00485694     fps.obj
 0002:000086a0       ??_C@_0CB@NFEKDBEC@no?5camera?5destination?5for?5tag?5?$CFd@ 004856a0     fps.obj
 0002:000086c4       ??_C@_0P@HHCDCAD@camera_name_?$CFd?$AA@ 004856c4     fps.obj
 0002:000086d4       ??_C@_0L@GLBJLEFO@centerchat?$AA@ 004856d4     fps.obj
 0002:000086e0       ??_C@_0BL@EKIBGJIP@access?5denied?0?5you?5need?5?$CFs?$AA@ 004856e0     fps.obj
 0002:000086fc       ??_C@_0BB@HABAPOIG@your?5name?5is?3?5?$CFs?$AA@ 004856fc     fps.obj
 0002:00008710       ??_C@_0BB@IHACMKAP@your?5team?5is?3?5?$CFs?$AA@ 00485710     fps.obj
 0002:00008724       ??_C@_0BF@PMBKNMNJ@name?5?$CC?$CFs?$CC?6team?5?$CC?$CFs?$CC?6?$AA@ 00485724     fps.obj
 0002:0000873c       ??_C@_0DC@KLLBGCCJ@editing?5in?5multiplayer?5requires?5@ 0048573c     fps.obj
 0002:00008770       ??_C@_0CI@DPEFILPM@inconsistent?5msg?5size?5for?5?$CFd?5?$CI?$CFd@ 00485770     fps.obj
 0002:00008798       ??_C@_08LDBJDJCP@?$CFs?3?$AM0?5?$CFs?$AA@ 00485798     fps.obj
 0002:000087a4       ??_C@_02FDNJLAOG@rs?$AA@   004857a4     fps.obj
 0002:000087a8       ??_C@_0CB@BGCJEIBC@server?5does?5not?5support?5commands@ 004857a8     fps.obj
 0002:000087cc       ??_C@_04GPMDFGEJ@type?$AA@ 004857cc     fps.obj
 0002:000087d4       ??_C@_0DO@BNFOIPBN@you?5are?5using?5a?5different?5game?5p@ 004857d4     fps.obj
 0002:00008814       ??_C@_0DA@HHKNIMPN@arena?5round?5is?5over?$CB?5next?5round?5@ 00485814     fps.obj
 0002:00008844       ??_C@_0P@DOPPFOAF@everyone?5died?$CB?$AA@ 00485844     fps.obj
 0002:00008854       ??_C@_0BK@EJJAFIPH@team?5?$CFs?5has?5won?5the?5round?$AA@ 00485854     fps.obj
 0002:00008870       ??_C@_0BP@INAMFHBE@you?5are?5the?5last?5man?5standing?$CB?$AA@ 00485870     fps.obj
 0002:00008890       ??_C@_0BM@CNEMEMJI@?$CFs?5is?5the?5last?5man?5standing?$AA@ 00485890     fps.obj
 0002:000088ac       ??_C@_08JPLJCGBB@capture_?$AA@ 004858ac     fps.obj
 0002:000088b8       ??_C@_0N@OFMOEPDI@nextmap_?$CFs?$CFs?$AA@ 004858b8     fps.obj
 0002:000088c8       ??_C@_03PNAFEOBD@rsi?$AA@  004858c8     fps.obj
 0002:000088cc       ??_C@_0BG@FECIBIAO@?$CFs?5is?5now?5known?5as?5?$CFs?$AA@ 004858cc     fps.obj
 0002:000088e4       ??_C@_0O@HFFMEDJP@connected?3?5?$CFs?$AA@ 004858e4     fps.obj
 0002:000088f4       ??_C@_0BN@OFGDGKOL@new?5round?5starting?4?4?4?5fight?$CB?$AA@ 004858f4     fps.obj
 0002:00008914       ??_C@_0M@HCIBHDFK@?$CFs?5remipped?$AA@ 00485914     fps.obj
 0002:00008920       ??_C@_0BD@BCMLINKK@no?5demos?5available?$AA@ 00485920     fps.obj
 0002:00008934       ??_C@_06IICEOLJD@?$CFd?4?5?$CFs?$AA@ 00485934     fps.obj
 0002:0000893c       ??_C@_0CI@LDAJLEHO@?$AM2quad?5damage?5will?5spawn?5in?510?5s@ 0048593c     fps.obj
 0002:00008964       ??_C@_0CH@EJAJLGHH@?$AM2?$CL10?5health?5will?5spawn?5in?510?5se@ 00485964     fps.obj
 0002:0000898c       ??_C@_0CA@JPADDEPK@?$CFs?5started?5a?5new?5map?5of?5size?5?$CFd?$AA@ 0048598c     fps.obj
 0002:000089ac       ??_C@_0BP@DMDBLJHM@?$CFs?5enlarged?5the?5map?5to?5size?5?$CFd?$AA@ 004859ac     fps.obj
 0002:000089cc       ??_C@_06EKMKFNM@?$CFd?4dmo?$AA@ 004859cc     fps.obj
 0002:000089d4       ??_C@_0BD@PDICCAJJ@received?5demo?5?$CC?$CFs?$CC?$AA@ 004859d4     fps.obj
 0002:000089e8       ??_C@_09GNMCPHEI@getmap_?$CFd?$AA@ 004859e8     fps.obj
 0002:000089f4       ??_C@_0BF@KGPBFEJA@packages?1base?1?$CFs?4ogz?$AA@ 004859f4     fps.obj
 0002:00008a0c       ??_C@_0N@NKJJANHK@received?5map?$AA@ 00485a0c     fps.obj
 0002:00008a1c       ??_C@_0CF@BMLADHAP@?$CCgetmap?$CC?5only?5works?5in?5coopedit?5@ 00485a1c     fps.obj
 0002:00008a44       ??_C@_0P@CIINECKH@getting?5map?4?4?4?$AA@ 00485a44     fps.obj
 0002:00008a54       ??_C@_0BA@HCEGONKB@getting?5demo?4?4?4?$AA@ 00485a54     fps.obj
 0002:00008a64       ??_C@_0BD@PNFHCPJM@getting?5demo?5?$CFd?4?4?4?$AA@ 00485a64     fps.obj
 0002:00008a78       ??_C@_0BB@ODIOBPAN@listing?5demos?4?4?4?$AA@ 00485a78     fps.obj
 0002:00008a8c       ??_C@_0CG@PEBANIAF@?$CCsendmap?$CC?5only?5works?5in?5coopedit@ 00485a8c     fps.obj
 0002:00008ab4       ??_C@_0P@GENDJFIL@sending?5map?4?4?4?$AA@ 00485ab4     fps.obj
 0002:00008ac4       ??_C@_0L@HIBEGFOL@sendmap_?$CFd?$AA@ 00485ac4     fps.obj
 0002:00008ad0       ??_C@_0BB@KCDKBDMJ@map?5is?5too?5large?$AA@ 00485ad0     fps.obj
 0002:00008ae4       ??_C@_0BD@MOOOPCEJ@could?5not?5read?5map?$AA@ 00485ae4     fps.obj
 0002:00008af8       ??_C@_05GFCLKPCK@?$CDMOD?$CD?$AA@ 00485af8     fps.obj
 0002:00008b00       ??_C@_0P@CFPIGAPH@Blood?5Frontier?$AA@ 00485b00     fps.obj
 0002:00008b10       ??_C@_0BK@GHGIBKBC@version?5Blood?5Frontier?5?$CFd?$AA@ 00485b10     fps.obj
 0002:00008b2c       ??_C@_09GIBHELIF@flags?1red?$AA@ 00485b2c     fps.obj
 0002:00008b38       ??_C@_0L@IFDMOOEJ@flags?1blue?$AA@ 00485b38     fps.obj
 0002:00008b44       ??_C@_0O@EOAFBHCK@flags?1neutral?$AA@ 00485b44     fps.obj
 0002:00008b54       ??_C@_0BC@OBDJOAHP@?$AM?$CFd?$CFs?5?$AM0vs?4?5?$AM?$CFd?$CFs?$AA@ 00485b54     fps.obj
 0002:00008b68       ??_C@_0O@JDOLPHFK@maxradarscale?$AA@ 00485b68     fps.obj
 0002:00008b78       ??_C@_0BP@PLKAMLBO@packages?1textures?1blip_red?4png?$AA@ 00485b78     fps.obj
 0002:00008b98       ??_C@_0CA@MPKJAGLG@packages?1textures?1blip_grey?4png?$AA@ 00485b98     fps.obj
 0002:00008bb8       ??_C@_0CA@PPMFDOMO@packages?1textures?1blip_blue?4png?$AA@ 00485bb8     fps.obj
 0002:00008bd8       ??_C@_0BM@HLPNGFPJ@packages?1textures?1radar?4png?$AA@ 00485bd8     fps.obj
 0002:00008bf4       ??_C@_07FFMPHCAP@base_?$CFd?$AA@ 00485bf4     fps.obj
 0002:00008bfc       ??_C@_07GGJDMCMF@base?5?$CFd?$AA@ 00485bfc     fps.obj
 0002:00008c04       ??_C@_0BB@OPHIKLDO@?$AM2?$CFs?5captured?5?$CFs?$AA@ 00485c04     fps.obj
 0002:00008c18       ??_C@_0N@BLJPIGCI@?$AM2?$CFs?5lost?5?$CFs?$AA@ 00485c18     fps.obj
 0002:00008c28       ??_C@_0BL@LHADIMPB@team?5?$CFs?5captured?5all?5bases?$AA@ 00485c28     fps.obj
 0002:00008c44       ??_C@_08JLHJOODG@watervel?$AA@ 00485c44     fps.obj
 0002:00008c50       ??_C@_07OBBOENAC@jumpvel?$AA@ 00485c50     fps.obj
 0002:00008c58       ??_C@_07GFBFDLBM@gravity?$AA@ 00485c58     fps.obj
 0002:00008c60       ??_C@_05HJCMGBKF@speed?$AA@ 00485c60     fps.obj
 0002:00008c68       ??_C@_09KCJIJCMG@watertype?$AA@ 00485c68     fps.obj
 0002:00008c74       ??_C@_0CN@NNJPBDLE@WARNING?3?5no?5waypoints?5found?0?5gen@ 00485c74     fps.obj
 0002:00008ca4       ??_C@_03EHEMCPIE@bot?$AA@  00485ca4     fps.obj
 0002:00008ca8       ??_C@_0CM@PKIKJMNA@bot?5inconsistent?5msg?5size?5for?5?$CFd@ 00485ca8     fps.obj
 0002:00008cd4       ??_C@_0BB@DFNFNNDN@bot?5sending?5init?$AA@ 00485cd4     fps.obj
 0002:00008ce8       ??_C@_0DK@MPKAGMDI@bot?5using?5a?5different?5game?5proto@ 00485ce8     fps.obj
 0002:00008d24       ??_C@_0CA@CHGHPMCO@bot?5connected?5successfully?5?$CI?$CFd?$CJ?$AA@ 00485d24     fps.obj
 0002:00008d44       ??_C@_0BB@EEINGNDF@bot?5msg?3?5?$CFd?5?$CI?$CFs?$CJ?$AA@ 00485d44     fps.obj
 0002:00008d58       ??_C@_0N@CBDEBMJE@capturespawn?$AA@ 00485d58     fps.obj
 0002:00008d68       ??_C@_0M@LBJDFOAG@cameracycle?$AA@ 00485d68     fps.obj
 0002:00008d74       ??_C@_09NBNKIDFG@crosshair?$AA@ 00485d74     fps.obj
 0002:00008d80       ??_C@_0M@GHGANHPO@wobblescale?$AA@ 00485d80     fps.obj
 0002:00008d8c       ??_C@_09BEGFCLDL@wobbleyaw?$AA@ 00485d8c     fps.obj
 0002:00008d98       ??_C@_0M@HCHBCDCM@wobblepitch?$AA@ 00485d98     fps.obj
 0002:00008da4       ??_C@_0L@PPCLKCBH@wobbleroll?$AA@ 00485da4     fps.obj
 0002:00008db0       ??_C@_08KLJAEEDP@hudstyle?$AA@ 00485db0     fps.obj
 0002:00008dbc       ??_C@_07CIEMACKI@rankhud?$AA@ 00485dbc     fps.obj
 0002:00008dc4       ??_C@_08HAKBFBBB@ranktime?$AA@ 00485dc4     fps.obj
 0002:00008dd0       ??_C@_0CF@MKLPMIPM@mode?5?$CFd?5not?5supported?5in?5multipl@ 00485dd0     fps.obj
 0002:00008df8       ??_C@_0CM@GOOJJOEG@?$AM2you?5must?5wait?5?$CFd?5second?$CFs?5befo@ 00485df8     fps.obj
 0002:00008e24       ??_C@_0CE@EPLBJMOI@?$AM2waiting?5for?5new?5round?5to?5start@ 00485e24     fps.obj
 0002:00008e48       ??_C@_0EL@PAMFDBKH@?$AM2You?5wasted?5another?5life?$CB?5The?5m@ 00485e48     fps.obj
 0002:00008e94       ??_C@_03NJEPMOFL@you?$AA@  00485e94     fps.obj
 0002:00008e98       ??_C@_0BH@KALFADBB@?$AM2?$CFs?5got?5killed?5by?5?$CFs?$CB?$AA@ 00485e98     fps.obj
 0002:00008eb0       ??_C@_0BA@NMCDCIB@?$AM2?$CFs?5suicided?$CFs?$AA@ 00485eb0     fps.obj
 0002:00008ec0       ??_C@_0CF@BAPPEKBO@?$AM2you?5got?5fragged?5by?5a?5teammate?5@ 00485ec0     fps.obj
 0002:00008ee8       ??_C@_0BN@IMAOEANC@?$AM2?$CFs?5fragged?5a?5teammate?5?$CI?$CFs?$CJ?$AA@ 00485ee8     fps.obj
 0002:00008f08       ??_C@_0BI@GALNMFAB@?$AM2you?5got?5fragged?5by?5?$CFs?$AA@ 00485f08     fps.obj
 0002:00008f20       ??_C@_0BA@LNFIKDLB@?$AM2?$CFs?5fragged?5?$CFs?$AA@ 00485f20     fps.obj
 0002:00008f30       ??_C@_0BJ@DJDEBEKH@?$AM2intermission?3?5you?5win?$CB?$AA@ 00485f30     fps.obj
 0002:00008f4c       ??_C@_0BK@PHKFLKBK@?$AM2intermission?3?5you?5lose?$CB?$AA@ 00485f4c     fps.obj
 0002:00008f68       ??_C@_0CE@FBELFJJG@?$AM2intermission?3?5the?5game?5has?5end@ 00485f68     fps.obj
 0002:00008f8c       ??_C@_0BI@EEKAGHIG@?$AM2time?5remaining?3?5?$CFd?5?$CFs?$AA@ 00485f8c     fps.obj
 0002:00008fa4       ??_C@_09ONOEJFNM@clientnum?$AA@ 00485fa4     fps.obj
 0002:00008fb0       ??_C@_0BH@HBGOAALC@player?5?$CFs?5disconnected?$AA@ 00485fb0     fps.obj
 0002:00008fc8       ??_C@_0CJ@BADBDCCN@?$AM2try?5to?5beat?5your?5best?5score?5so@ 00485fc8     fps.obj
 0002:00008ff4       ??_C@_0BA@NGCCFBAF@packages?1?$CFs?4cfx?$AA@ 00485ff4     fps.obj
 0002:00009004       ??_C@_0BA@NBOENBF@?$CFs?$CFs?5?$AMs?$AM5?$CI?$CFd?$CJ?$AMr?$AA@ 00486004     fps.obj
 0002:00009014       ??_C@_06OCCCEMNE@hudgun?$AA@ 00486014     fps.obj
 0002:0000901c       ??_C@_0L@MGHCPOIM@hudgunsway?$AA@ 0048601c     fps.obj
 0002:00009028       ??_C@_0BM@ICLCKBJH@packages?1textures?1items?4png?$AA@ 00486028     fps.obj
 0002:00009044       ??_C@_0BJ@ECFNCCJE@packages?1icons?1blank?4jpg?$AA@ 00486044     fps.obj
 0002:00009060       ??_C@_0BI@PKCOMHHE@Fragged?$CB?5Down?5for?5?$CF?41fs?$AA@ 00486060     fps.obj
 0002:00009078       ??_C@_0CB@KNCCIEGD@Fragged?$CB?5Press?5attack?5to?5respawn@ 00486078     fps.obj
 0002:0000909c       ??_C@_05ONPKFDNJ@ri9i4?$AA@ 0048609c     fps.obj
 0002:000090a4       ??_C@_05PEOBGCJI@ri9i5?$AA@ 004860a4     fps.obj
 0002:000090ac       ??_C@_05NPMMDBFL@ri9i6?$AA@ 004860ac     fps.obj
 0002:000090b4       ??_C@_0BD@NEALIAKF@camera?5?$CFd?5selected?$AA@ 004860b4     fps.obj
 0002:000090c8       ??_C@_0BK@LEDAODGN@spectator?5camera?5selected?$AA@ 004860c8     fps.obj
 0002:000090e4       ??_C@_0BF@PHIKOCGH@chasecam?5?$CFs?5selected?$AA@ 004860e4     fps.obj
 0002:000090fc       ??_C@_0BL@OBLOGAGK@no?5other?5cameras?5available?$AA@ 004860fc     fps.obj
 0002:00009118       ??_C@_0CA@EIAKHFOJ@need?5to?5be?5editing?5or?5spectator?$AA@ 00486118     fps.obj
 0002:00009138       ??_C@_0L@HBIOOILI@?$AM1the?5lead?$AA@ 00486138     fps.obj
 0002:00009144       ??_C@_0O@LGGAAKBE@?$AM3first?5blood?$AA@ 00486144     fps.obj
 0002:00009154       ??_C@_0BA@MJJKAFHD@You?8ve?5taken?5?$CFs?$AA@ 00486154     fps.obj
 0002:00009164       ??_C@_0BI@IPJMEGHG@?$AM2?$CFs?5?$AMftakes?5?$AM2the?5lead?$AA@ 00486164     fps.obj
 0002:0000917c       ??_C@_09GPBNAHIB@?$CL?$CFd?5frags?$AA@ 0048617c     fps.obj
 0002:00009188       ??_C@_0BC@HLFHGLJE@tied?5for?5the?5lead?$AA@ 00486188     fps.obj
 0002:0000919c       ??_C@_0BE@JLGHLFOI@?$CFs?$CFs?$CFs?5?$AM3VS?$AMf?5?$CFs?6?$CFs?$AA@ 0048619c     fps.obj
 0002:000091b0       ??_C@_0P@GPHNIMNI@?$CFs?$CFs?$AM?$CFd?$CFd?$AMf?5?$CFs?$AA@ 004861b0     fps.obj
 0002:000091c0       ??_C@_0BB@DLAELDAF@?$CFs?$CFs?$CFs?5?$AM3VS?$AMf?5?$CFs?$AA@ 004861c0     fps.obj
 0002:000091d4       ??_C@_0BA@BMHFIOJL@?$CFs?5?$AM3VS?$AMf?5?$CFs?6?$CFs?$AA@ 004861d4     fps.obj
 0002:000091e4       ??_C@_0L@DOAIDLK@?$AM?$CFd?$CFd?$AMf?5?$CFs?$AA@ 004861e4     fps.obj
 0002:000091f0       ??_C@_0N@PMHAMLCM@?$CFs?5?$AM3VS?$AMf?5?$CFs?$AA@ 004861f0     fps.obj
 0002:00009200       ??_C@_0N@BOIBKKPB@?$AM2?$CFd?$CFs?5place?$AA@ 00486200     fps.obj
 0002:00009210       ??_C@_06GEPNGEJI@weapon?$AA@ 00486210     fps.obj
 0002:00009218       ??_C@_09BHMOJHBI@getweapon?$AA@ 00486218     fps.obj
 0002:00009224       ??_C@_0L@NHHNPEKO@showscores?$AA@ 00486224     fps.obj
 0002:00009230       ??_C@_09GOGMBNHN@entdelink?$AA@ 00486230     fps.obj
 0002:0000923c       ??_C@_07JHEAIAKF@entlink?$AA@ 0048623c     fps.obj
 0002:00009244       ??_C@_03BANJEMDJ@say?$AA@  00486244     fps.obj
 0002:00009248       ??_C@_04KADBPNCB@team?$AA@ 00486248     fps.obj
 0002:00009250       ??_C@_03HBNNNHNM@map?$AA@  00486250     fps.obj
 0002:00009254       ??_C@_09EJOBGHFK@clearbans?$AA@ 00486254     fps.obj
 0002:00009260       ??_C@_04FNIJDBCC@kick?$AA@ 00486260     fps.obj
 0002:00009268       ??_C@_04MABHPDAO@goto?$AA@ 00486268     fps.obj
 0002:00009270       ??_C@_0L@BKPOPNCH@mastermode?$AA@ 00486270     fps.obj
 0002:0000927c       ??_C@_09BPBGLMCC@setmaster?$AA@ 0048627c     fps.obj
 0002:00009288       ??_C@_07GINDGPLD@setteam?$AA@ 00486288     fps.obj
 0002:00009290       ??_C@_06NHIPHNDD@getmap?$AA@ 00486290     fps.obj
 0002:00009298       ??_C@_07JAKGJNDP@sendmap?$AA@ 00486298     fps.obj
 0002:000092a0       ??_C@_09FBPEBKEE@listdemos?$AA@ 004862a0     fps.obj
 0002:000092ac       ??_C@_07MLOOFMAG@getdemo?$AA@ 004862ac     fps.obj
 0002:000092b4       ??_C@_0L@EDGPBAIK@recorddemo?$AA@ 004862b4     fps.obj
 0002:000092c0       ??_C@_08EMDOEDEB@stopdemo?$AA@ 004862c0     fps.obj
 0002:000092cc       ??_C@_0L@KLLFMDJP@cleardemos?$AA@ 004862cc     fps.obj
 0002:000092d8       ??_C@_07PENDDLHK@getname?$AA@ 004862d8     fps.obj
 0002:000092e0       ??_C@_07JACCFAGC@getteam?$AA@ 004862e0     fps.obj
 0002:000092e8       ??_C@_07GJHAIGMA@repammo?$AA@ 004862e8     fps.obj
 0002:000092f0       ??_C@_04GMGOKAFF@mode?$AA@ 004862f0     fps.obj
 0002:000092f8       ??_C@_04BJJEOANI@kill?$AA@ 004862f8     fps.obj
 0002:00009300       ??_C@_09PDCOBCIN@cameradir?$AA@ 00486300     fps.obj
 0002:0000930c       ??_C@_0L@INJHAMEF@centerrank?$AA@ 0048630c     fps.obj
 0002:00009318       ??_C@_0L@FGMAGKAJ@gotocamera?$AA@ 00486318     fps.obj
 0002:00009324       ??_C@_0M@MFGJPELM@getgamemode?$AA@ 00486324     fps.obj
 0002:00009334       ??_7igame@@6B@             00486334     fps.obj
 0002:00009344       ??_7icliententities@@6B@   00486344     fps.obj
 0002:00009398       ??_7iclientcom@@6B@        00486398     fps.obj
 0002:000093d0       ??_7ibotcom@@6B@           004863d0     fps.obj
 0002:000093f4       ??_7iphysics@@6B@          004863f4     fps.obj
 0002:00009444       ??_7igameclient@@6B@       00486444     fps.obj
 0002:000094fc       ??_7igameserver@@6B@       004864fc     fps.obj
 0002:00009574       ??_7fpsserver@@6B@         00486574     fps.obj
 0002:000095ec       ??_7servmode@fpsserver@@6B@ 004865ec     fps.obj
 0002:00009624       ??_7arenaservmode@fpsserver@@6B@ 00486624     fps.obj
 0002:0000965c       ??_7captureservmode@fpsserver@@6B@ 0048665c     fps.obj
 0002:00009694       ??_7duelservmode@fpsserver@@6B@ 00486694     fps.obj
 0002:000096cc       ??_7var_serversplit@fpsserver@@6B@ 004866cc     fps.obj
 0002:000096dc       ??_7cmd_version@?1???0fpsserver@@QAE@XZ@6B@ 004866dc     fps.obj
 0002:000096ec       ??_7?$tident@Ufpsserver@@@@6B@ 004866ec     fps.obj
 0002:000096fc       ??_7cmd_timelimit@?2???0fpsserver@@QAE@XZ@6B@ 004866fc     fps.obj
 0002:0000970c       ??_7cmd_fraglimit@?3???0fpsserver@@QAE@XZ@6B@ 0048670c     fps.obj
 0002:0000971c       ??_7cmd_duelgame@?4???0fpsserver@@QAE@XZ@6B@ 0048671c     fps.obj
 0002:0000972c       ??_7cmd_damagescale@?5???0fpsserver@@QAE@XZ@6B@ 0048672c     fps.obj
 0002:0000973c       ??_7cmd_instakill@?6???0fpsserver@@QAE@XZ@6B@ 0048673c     fps.obj
 0002:0000974c       ??_7cmd_teamdamage@?7???0fpsserver@@QAE@XZ@6B@ 0048674c     fps.obj
 0002:0000975c       ??_7cmd_powerup@?8???0fpsserver@@QAE@XZ@6B@ 0048675c     fps.obj
 0002:0000976c       ??_7cmd_spawnstate@?9???0fpsserver@@QAE@XZ@6B@ 0048676c     fps.obj
 0002:0000977c       ??_7fpsclient@@6B@         0048677c     fps.obj
 0002:00009830       ??_7var_maxdebris@weaponstate@fpsclient@@6B@ 00486830     fps.obj
 0002:00009840       ??_7var_weaponswitchstyle@weaponstate@fpsclient@@6B@ 00486840     fps.obj
 0002:00009850       ??_7var_blood@weaponstate@fpsclient@@6B@ 00486850     fps.obj
 0002:00009860       ??_7var_skill@monsterset@fpsclient@@6B@ 00486860     fps.obj
 0002:00009870       ??_7var_dmsprounds@monsterset@fpsclient@@6B@ 00486870     fps.obj
 0002:00009880       ??_7scoreboard@fpsclient@@6B@ 00486880     fps.obj
 0002:0000988c       ??_7var_scoresinfo@scoreboard@fpsclient@@6B@ 0048688c     fps.obj
 0002:0000989c       ??_7var_showclientnum@scoreboard@fpsclient@@6B@ 0048689c     fps.obj
 0002:000098ac       ??_7var_showpj@scoreboard@fpsclient@@6B@ 004868ac     fps.obj
 0002:000098bc       ??_7var_showping@scoreboard@fpsclient@@6B@ 004868bc     fps.obj
 0002:000098cc       ??_7var_showspectators@scoreboard@fpsclient@@6B@ 004868cc     fps.obj
 0002:000098dc       ??_7var_highlightscore@scoreboard@fpsclient@@6B@ 004868dc     fps.obj
 0002:000098ec       ??_7var_showconnecting@scoreboard@fpsclient@@6B@ 004868ec     fps.obj
 0002:000098fc       ??_7var_teamskins@fpsrender@fpsclient@@6B@ 004868fc     fps.obj
 0002:0000990c       ??_7entities@fpsclient@@6B@ 0048690c     fps.obj
 0002:00009960       ??_7var_showallwp@entities@fpsclient@@6B@ 00486960     fps.obj
 0002:00009970       ??_7clientcom@fpsclient@@6B@ 00486970     fps.obj
 0002:000099a8       ??_7var_centerchat@clientcom@fpsclient@@6B@ 004869a8     fps.obj
 0002:000099b8       ??_7var_maxradarscale@captureclient@fpsclient@@6B@ 004869b8     fps.obj
 0002:000099cc       ??_7physics@fpsclient@@6B@ 004869cc     fps.obj
 0002:00009a18       ??_7botcom@fpsclient@@6B@  00486a18     fps.obj
 0002:00009a38       ??_7var_capturespawn@fpsclient@@6B@ 00486a38     fps.obj
 0002:00009a48       ??_7var_cameracycle@fpsclient@@6B@ 00486a48     fps.obj
 0002:00009a58       ??_7var_crosshair@fpsclient@@6B@ 00486a58     fps.obj
 0002:00009a68       ??_7var_wobblescale@fpsclient@@6B@ 00486a68     fps.obj
 0002:00009a78       ??_7var_wobbleyaw@fpsclient@@6B@ 00486a78     fps.obj
 0002:00009a88       ??_7var_wobblepitch@fpsclient@@6B@ 00486a88     fps.obj
 0002:00009a98       ??_7var_wobbleroll@fpsclient@@6B@ 00486a98     fps.obj
 0002:00009aa8       ??_7var_hudstyle@fpsclient@@6B@ 00486aa8     fps.obj
 0002:00009ab8       ??_7var_rankhud@fpsclient@@6B@ 00486ab8     fps.obj
 0002:00009ac8       ??_7var_ranktime@fpsclient@@6B@ 00486ac8     fps.obj
 0002:00009ad8       ??_7var_hudgun@fpsclient@@6B@ 00486ad8     fps.obj
 0002:00009ae8       ??_7var_hudgunsway@fpsclient@@6B@ 00486ae8     fps.obj
 0002:00009af8       ??_7cmd_weapon@?1???0weaponstate@fpsclient@@QAE@AAU2@@Z@6B@ 00486af8     fps.obj
 0002:00009b08       ??_7?$tident@Uweaponstate@fpsclient@@@@6B@ 00486b08     fps.obj
 0002:00009b18       ??_7cmd_getweapon@?2???0weaponstate@fpsclient@@QAE@AAU2@@Z@6B@ 00486b18     fps.obj
 0002:00009b28       ??_7cmd_showscores@?1???0scoreboard@fpsclient@@QAE@AAU2@@Z@6B@ 00486b28     fps.obj
 0002:00009b38       ??_7?$tident@Uscoreboard@fpsclient@@@@6B@ 00486b38     fps.obj
 0002:00009b48       ??_7cmd_entdelink@?1???0entities@fpsclient@@QAE@AAU2@@Z@6B@ 00486b48     fps.obj
 0002:00009b58       ??_7?$tident@Uentities@fpsclient@@@@6B@ 00486b58     fps.obj
 0002:00009b68       ??_7cmd_entlink@?2???0entities@fpsclient@@QAE@AAU2@@Z@6B@ 00486b68     fps.obj
 0002:00009b78       ??_7cmd_say@?1???0clientcom@fpsclient@@QAE@AAU2@@Z@6B@ 00486b78     fps.obj
 0002:00009b88       ??_7?$tident@Uclientcom@fpsclient@@@@6B@ 00486b88     fps.obj
 0002:00009b98       ??_7cmd_name@?2???0clientcom@fpsclient@@QAE@AAU2@@Z@6B@ 00486b98     fps.obj
 0002:00009ba8       ??_7cmd_team@?3???0clientcom@fpsclient@@QAE@AAU2@@Z@6B@ 00486ba8     fps.obj
 0002:00009bb8       ??_7cmd_map@?4???0clientcom@fpsclient@@QAE@AAU2@@Z@6B@ 00486bb8     fps.obj
 0002:00009bc8       ??_7cmd_clearbans@?5???0clientcom@fpsclient@@QAE@AAU2@@Z@6B@ 00486bc8     fps.obj
 0002:00009bd8       ??_7cmd_kick@?6???0clientcom@fpsclient@@QAE@AAU2@@Z@6B@ 00486bd8     fps.obj
 0002:00009be8       ??_7cmd_goto@?7???0clientcom@fpsclient@@QAE@AAU2@@Z@6B@ 00486be8     fps.obj
 0002:00009bf8       ??_7cmd_spectator@?8???0clientcom@fpsclient@@QAE@AAU2@@Z@6B@ 00486bf8     fps.obj
 0002:00009c08       ??_7cmd_mastermode@?9???0clientcom@fpsclient@@QAE@AAU2@@Z@6B@ 00486c08     fps.obj
 0002:00009c18       ??_7cmd_setmaster@?L@???0clientcom@fpsclient@@QAE@AAU2@@Z@6B@ 00486c18     fps.obj
 0002:00009c28       ??_7cmd_setteam@?M@???0clientcom@fpsclient@@QAE@AAU2@@Z@6B@ 00486c28     fps.obj
 0002:00009c38       ??_7cmd_getmap@?N@???0clientcom@fpsclient@@QAE@AAU2@@Z@6B@ 00486c38     fps.obj
 0002:00009c48       ??_7cmd_sendmap@?O@???0clientcom@fpsclient@@QAE@AAU2@@Z@6B@ 00486c48     fps.obj
 0002:00009c58       ??_7cmd_listdemos@?P@???0clientcom@fpsclient@@QAE@AAU2@@Z@6B@ 00486c58     fps.obj
 0002:00009c68       ??_7cmd_getdemo@?BA@???0clientcom@fpsclient@@QAE@AAU2@@Z@6B@ 00486c68     fps.obj
 0002:00009c78       ??_7cmd_recorddemo@?BB@???0clientcom@fpsclient@@QAE@AAU2@@Z@6B@ 00486c78     fps.obj
 0002:00009c88       ??_7cmd_stopdemo@?BC@???0clientcom@fpsclient@@QAE@AAU2@@Z@6B@ 00486c88     fps.obj
 0002:00009c98       ??_7cmd_cleardemos@?BD@???0clientcom@fpsclient@@QAE@AAU2@@Z@6B@ 00486c98     fps.obj
 0002:00009ca8       ??_7cmd_getname@?BE@???0clientcom@fpsclient@@QAE@AAU2@@Z@6B@ 00486ca8     fps.obj
 0002:00009cb8       ??_7cmd_getteam@?BF@???0clientcom@fpsclient@@QAE@AAU2@@Z@6B@ 00486cb8     fps.obj
 0002:00009cc8       ??_7cmd_repammo@?1???0captureclient@fpsclient@@QAE@AAU2@@Z@6B@ 00486cc8     fps.obj
 0002:00009cd8       ??_7?$tident@Ucaptureclient@fpsclient@@@@6B@ 00486cd8     fps.obj
 0002:00009ce8       ??_7var_gravity@?1???0physics@fpsclient@@QAE@AAU2@@Z@6B@ 00486ce8     fps.obj
 0002:00009cf8       ??_7?$tident@Uphysics@fpsclient@@@@6B@ 00486cf8     fps.obj
 0002:00009d08       ??_7var_speed@?2???0physics@fpsclient@@QAE@AAU2@@Z@6B@ 00486d08     fps.obj
 0002:00009d18       ??_7var_jumpvel@?3???0physics@fpsclient@@QAE@AAU2@@Z@6B@ 00486d18     fps.obj
 0002:00009d28       ??_7var_watertype@?4???0physics@fpsclient@@QAE@AAU2@@Z@6B@ 00486d28     fps.obj
 0002:00009d38       ??_7var_watervel@?5???0physics@fpsclient@@QAE@AAU2@@Z@6B@ 00486d38     fps.obj
 0002:00009d48       ??_7cmd_mode@?1???0fpsclient@@QAE@XZ@6B@ 00486d48     fps.obj
 0002:00009d58       ??_7?$tident@Ufpsclient@@@@6B@ 00486d58     fps.obj
 0002:00009d68       ??_7cmd_kill@?2???0fpsclient@@QAE@XZ@6B@ 00486d68     fps.obj
 0002:00009d78       ??_7cmd_taunt@?3???0fpsclient@@QAE@XZ@6B@ 00486d78     fps.obj
 0002:00009d88       ??_7cmd_cameradir@?4???0fpsclient@@QAE@XZ@6B@ 00486d88     fps.obj
 0002:00009d98       ??_7cmd_centerrank@?5???0fpsclient@@QAE@XZ@6B@ 00486d98     fps.obj
 0002:00009da8       ??_7cmd_gotocamera@?6???0fpsclient@@QAE@XZ@6B@ 00486da8     fps.obj
 0002:00009db8       ??_7cmd_getgamemode@?7???0fpsclient@@QAE@XZ@6B@ 00486db8     fps.obj
 0002:00009dc8       ??_7fpsgame@@6B@           00486dc8     fps.obj
 0002:00009dd4       ??_C@_0O@LJEFNOCE@joyshowevents?$AA@ 00486dd4     joystick.obj
 0002:00009de4       ??_C@_06BFJFNKJK@CENTER?$AA@ 00486de4     joystick.obj
 0002:00009dec       ??_C@_05JDNNHOJA@NORTH?$AA@ 00486dec     joystick.obj
 0002:00009df4       ??_C@_02PHLEDNGH@NE?$AA@   00486df4     joystick.obj
 0002:00009df8       ??_C@_04DKELOIDK@EAST?$AA@ 00486df8     joystick.obj
 0002:00009e00       ??_C@_02ODEKANEE@SE?$AA@   00486e00     joystick.obj
 0002:00009e04       ??_C@_05LBECFHGM@SOUTH?$AA@ 00486e04     joystick.obj
 0002:00009e0c       ??_C@_02JLLOHNJH@SW?$AA@   00486e0c     joystick.obj
 0002:00009e10       ??_C@_04KPAJLLIP@WEST?$AA@ 00486e10     joystick.obj
 0002:00009e18       ??_C@_02IPEAENLE@NW?$AA@   00486e18     joystick.obj
 0002:00009e1c       ??_C@_04FANAOELO@DOWN?$AA@ 00486e1c     joystick.obj
 0002:00009e24       ??_C@_02NAHCJHOC@UP?$AA@   00486e24     joystick.obj
 0002:00009e28       ??_C@_0BA@JNNNBDHA@JOYBUTTON?$CFd?3?5?$CFs?$AA@ 00486e28     joystick.obj
 0002:00009e38       ??_C@_0O@OICMLAHN@JOYAXIS?$CFd?3?5?$CFd?$AA@ 00486e38     joystick.obj
 0002:00009e48       ??_C@_0L@LFLNAPBH@JOYPAD?$CFd?$CFs?$AA@ 00486e48     joystick.obj
 0002:00009e54       ??_C@_0BG@JHIOLAJ@newgui?5joyfovxaxis?5?$FL?6?$AA@ 00486e54     joystick.obj
 0002:00009e6c       ??_C@_09OMFCLDEA@?$FLaxis?5?$CFd?$FN?$AA@ 00486e6c     joystick.obj
 0002:00009e78       ??_C@_08FGGNBGIA@?5axis?5?$CFd?$AA@ 00486e78     joystick.obj
 0002:00009e84       ??_C@_0BI@BABAEFFG@joyfovxaxis?5?$CFd?$DL?5joymenu?$AA@ 00486e84     joystick.obj
 0002:00009e9c       ??_C@_0BF@BHAAIDGN@guibutton?5?$CC?$CFs?$CC?5?$CC?$CFs?$CC?6?$AA@ 00486e9c     joystick.obj
 0002:00009eb4       ??_C@_02JODFHDIE@?$FN?6?$AA@ 00486eb4     joystick.obj
 0002:00009eb8       ??_C@_0BG@BOADPPEK@newgui?5joyfovyaxis?5?$FL?6?$AA@ 00486eb8     joystick.obj
 0002:00009ed0       ??_C@_0BI@PPECPDLH@joyfovyaxis?5?$CFd?$DL?5joymenu?$AA@ 00486ed0     joystick.obj
 0002:00009ee8       ??_C@_0BJ@CALKIDDJ@newgui?5joymousebutton?5?$FL?6?$AA@ 00486ee8     joystick.obj
 0002:00009f04       ??_C@_0CB@JKCEBKGC@guititle?5?$CCemulate?5mouse?5button?$CC?6@ 00486f04     joystick.obj
 0002:00009f28       ??_C@_0DE@HPCGPFHC@guibutton?5?$CC?$FLnot?5set?$FN?$CC?5?$CCjoymouseb@ 00486f28     joystick.obj
 0002:00009f5c       ??_C@_0DD@PELCDMEE@guibutton?5?$CC?5not?5set?$CC?5?$CCjoymousebu@ 00486f5c     joystick.obj
 0002:00009f90       ??_C@_0M@NKIMJMP@?$FLbutton?5?$CFd?$FN?$AA@ 00486f90     joystick.obj
 0002:00009f9c       ??_C@_0M@MCOBOLIO@?5button?5?$CFd?5?$AA@ 00486f9c     joystick.obj
 0002:00009fa8       ??_C@_0BL@EPMMMAPH@joymousebutton?5?$CFd?$DL?5joymenu?$AA@ 00486fa8     joystick.obj
 0002:00009fc4       ??_C@_0BD@FDDOBHDI@newgui?5joystick?5?$FL?6?$AA@ 00486fc4     joystick.obj
 0002:00009fd8       ??_C@_0CC@PPKMNIHI@guitext?5?$CCJoystick?5Configuration?$CC@ 00486fd8     joystick.obj
 0002:00009ffc       ??_C@_08DJJAKHCP@guibar?5?6?$AA@ 00486ffc     joystick.obj
 0002:0000a008       ??_C@_0DN@FBDBLNIL@guibutton?5?$CClook?5left?1right?7?$FLaxis@ 00487008     joystick.obj
 0002:0000a048       ??_C@_0DK@CBILJCFF@guibutton?5?$CClook?5up?1down?7?$FLaxis?5?$CFd@ 00487048     joystick.obj
 0002:0000a084       ??_C@_0BM@CLDGBJGL@guitext?5?$CClook?5sensitivity?$CC?6?$AA@ 00487084     joystick.obj
 0002:0000a0a0       ??_C@_0BM@BFNHELPG@guislider?5?$CCjoysensitivity?$CC?6?$AA@ 004870a0     joystick.obj
 0002:0000a0bc       ??_C@_0CK@GICHMCNG@guicheckbox?5?$CCinvert?5look?$CC?5?$CCjoyfo@ 004870bc     joystick.obj
 0002:0000a0e8       ??_C@_0CL@KJMFHPHA@guicheckbox?5?$CCshow?5events?$CC?5?$CCjoysh@ 004870e8     joystick.obj
 0002:0000a118       ??_C@_0EB@HOAOIBEH@guibutton?5?$CCemulate?5mouse?5?7?$FLbutto@ 00487118     joystick.obj
 0002:0000a15c       ??_C@_0DE@BBBGAFHI@guibutton?5?$CCemulate?5mouse?$CC?5?$CCshowg@ 0048715c     joystick.obj
 0002:0000a190       ??_C@_0BC@OHKKDIBL@guitab?5?$CCbuttons?$CC?6?$AA@ 00487190     joystick.obj
 0002:0000a1a4       ??_C@_0M@GOACLGGI@joybutton?$CFd?$AA@ 004871a4     joystick.obj
 0002:0000a1b0       ??_C@_04KAJGAOMC@?4?4?4?5?$AA@ 004871b0     joystick.obj
 0002:0000a1b8       ??_C@_0BA@KJBEDGMC@button?5?$CFd?7?7?$FL?$CFs?$FN?$AA@ 004871b8     joystick.obj
 0002:0000a1c8       ??_C@_0L@PLNBCLM@showgui?5?$CFs?$AA@ 004871c8     joystick.obj
 0002:0000a1d4       ??_C@_0O@KMHJNOEN@guitab?5?$CCpad?$CC?6?$AA@ 004871d4     joystick.obj
 0002:0000a1e4       ??_C@_0L@GDGCHHEK@joyhat?$CFd?$CFs?$AA@ 004871e4     joystick.obj
 0002:0000a1f0       ??_C@_0BB@DDCBMNHJ@pad?5?$CFd?5?$CFs?5?5?7?$FL?$CFs?$FN?$AA@ 004871f0     joystick.obj
 0002:0000a204       ??_C@_0P@KKCBNDHO@guitab?5?$CCaxis?$CC?6?$AA@ 00487204     joystick.obj
 0002:0000a214       ??_C@_0CC@LIDICNM@guitext?5?$CCaxis?5event?5sensitivity?$CC@ 00487214     joystick.obj
 0002:0000a238       ??_C@_0BM@JIJGAADH@guislider?5?$CCjoyaxisminmove?$CC?6?$AA@ 00487238     joystick.obj
 0002:0000a254       ??_C@_0M@KPPLHGNA@joyaxis?$CFd?$CFs?$AA@ 00487254     joystick.obj
 0002:0000a260       ??_C@_0BA@BHJOKDPK@axis?5?$CFd?5?$CFs?7?$FL?$CFs?$FN?$AA@ 00487260     joystick.obj
 0002:0000a270       ??_C@_0N@DJEHKABL@newgui?5?$CFs?5?$FL?6?$AA@ 00487270     joystick.obj
 0002:0000a280       ??_C@_0BE@FGKLPPHG@bind?5?$CFs?5?$FL?$FN?$DL?5joymenu?$AA@ 00487280     joystick.obj
 0002:0000a294       ??_C@_0BJ@DCLNGGGK@guibutton?5?$CC?$FLnone?$FN?$CC?5?$CC?$CFs?$CC?6?$AA@ 00487294     joystick.obj
 0002:0000a2b0       ??_C@_0BI@BLKAPGEI@guibutton?5?$CC?5none?$CC?5?$CC?$CFs?$CC?6?$AA@ 004872b0     joystick.obj
 0002:0000a2c8       ??_C@_04LIFAFMCE@?$FL?$CFs?$FN?$AA@ 004872c8     joystick.obj
 0002:0000a2d0       ??_C@_03EEBNCBOD@?5?$CFs?$AA@ 004872d0     joystick.obj
 0002:0000a2d4       ??_C@_0CK@FIMGHCN@guibutton?5?$CC?$CFs?$CC?5?$FL?5bind?5?$CFs?5?$FL?$CFs?$FN?$DL?5j@ 004872d4     joystick.obj
 0002:0000a300       ??_C@_0N@PAEBJFLL@joyactionnum?$AA@ 00487300     joystick.obj
 0002:0000a310       ??_C@_09LLFNMJOJ@joyaction?$AA@ 00487310     joystick.obj
 0002:0000a31c       ??_C@_0BA@JGFIKNPI@joyactionsaynum?$AA@ 0048731c     joystick.obj
 0002:0000a32c       ??_C@_0N@GHLDMGAA@joyactionsay?$AA@ 0048732c     joystick.obj
 0002:0000a33c       ??_C@_0L@JCNDECAA@joymenunum?$AA@ 0048733c     joystick.obj
 0002:0000a348       ??_C@_07PHHOCDLE@joymenu?$AA@ 00487348     joystick.obj
 0002:0000a350       ??_C@_0P@FFIFHDNP@joyfovxaxisnum?$AA@ 00487350     joystick.obj
 0002:0000a360       ??_C@_0M@IIIJFNMF@joyfovxaxis?$AA@ 00487360     joystick.obj
 0002:0000a36c       ??_C@_0P@ECPOGHJM@joyfovyaxisnum?$AA@ 0048736c     joystick.obj
 0002:0000a37c       ??_C@_0M@EDNFIOGA@joyfovyaxis?$AA@ 0048737c     joystick.obj
 0002:0000a388       ??_C@_0BC@PEFOJID@joysensitivitynum?$AA@ 00487388     joystick.obj
 0002:0000a39c       ??_C@_0P@PLKDJFBM@joysensitivity?$AA@ 0048739c     joystick.obj
 0002:0000a3ac       ??_C@_0BC@ODKLFKOO@joyaxisminmovenum?$AA@ 004873ac     joystick.obj
 0002:0000a3c0       ??_C@_0P@NENAMHPK@joyaxisminmove?$AA@ 004873c0     joystick.obj
 0002:0000a3d0       ??_C@_0BA@HHLEHMEN@joyfovinvertnum?$AA@ 004873d0     joystick.obj
 0002:0000a3e0       ??_C@_0N@GEAOENNB@joyfovinvert?$AA@ 004873e0     joystick.obj
 0002:0000a3f0       ??_C@_0BC@LCAODMOP@joymousebuttonnum?$AA@ 004873f0     joystick.obj
 0002:0000a404       ??_C@_0P@MJJNODBL@joymousebutton?$AA@ 00487404     joystick.obj
 0002:0000a414       ??_C@_0BN@NKHOMHBO@?$CFd?5of?5?$CFd?5joystick?$CIs?$CJ?5enabled?$AA@ 00487414     joystick.obj
 0002:0000a434       ??_C@_0BO@HNNIKNFL@joystick?5?$CD?$CFd?5swapped?5with?5?$CD?$CFd?$AA@ 00487434     joystick.obj
 0002:0000a454       ??_C@_0BO@DCPJHHOP@valid?5joystick?5range?5is?50?4?4?$CFd?$AA@ 00487454     joystick.obj
 0002:0000a474       ??_C@_07ECFKDNLF@swapjoy?$AA@ 00487474     joystick.obj
 0002:0000a480       ??_7cmd_joyactionnum@?BC@???0joystick@@QAE@H@Z@6B@ 00487480     joystick.obj
 0002:0000a490       ??_7?$tident@Ujoystick@@@@6B@ 00487490     joystick.obj
 0002:0000a4a0       ??_7cmd_joyaction@?BE@???0joystick@@QAE@H@Z@6B@ 004874a0     joystick.obj
 0002:0000a4b0       ??_7cmd_joyactionsaynum@?BH@???0joystick@@QAE@H@Z@6B@ 004874b0     joystick.obj
 0002:0000a4c0       ??_7cmd_joyactionsay@?BJ@???0joystick@@QAE@H@Z@6B@ 004874c0     joystick.obj
 0002:0000a4d0       ??_7cmd_joymenunum@?BM@???0joystick@@QAE@H@Z@6B@ 004874d0     joystick.obj
 0002:0000a4e0       ??_7cmd_joymenu@?BO@???0joystick@@QAE@H@Z@6B@ 004874e0     joystick.obj
 0002:0000a4f0       ??_7cmd_joyfovxaxisnum@?CC@???0joystick@@QAE@H@Z@6B@ 004874f0     joystick.obj
 0002:0000a500       ??_7cmd_joyfovxaxis@?CF@???0joystick@@QAE@H@Z@6B@ 00487500     joystick.obj
 0002:0000a510       ??_7cmd_joyfovyaxisnum@?CJ@???0joystick@@QAE@H@Z@6B@ 00487510     joystick.obj
 0002:0000a520       ??_7cmd_joyfovyaxis@?CM@???0joystick@@QAE@H@Z@6B@ 00487520     joystick.obj
 0002:0000a530       ??_7cmd_joysensitivitynum@?DA@???0joystick@@QAE@H@Z@6B@ 00487530     joystick.obj
 0002:0000a540       ??_7cmd_joysensitivity@?DD@???0joystick@@QAE@H@Z@6B@ 00487540     joystick.obj
 0002:0000a550       ??_7cmd_joyaxisminmovenum@?DH@???0joystick@@QAE@H@Z@6B@ 00487550     joystick.obj
 0002:0000a560       ??_7cmd_joyaxisminmove@?DK@???0joystick@@QAE@H@Z@6B@ 00487560     joystick.obj
 0002:0000a570       ??_7cmd_joyfovinvertnum@?DO@???0joystick@@QAE@H@Z@6B@ 00487570     joystick.obj
 0002:0000a580       ??_7cmd_joyfovinvert@?EB@???0joystick@@QAE@H@Z@6B@ 00487580     joystick.obj
 0002:0000a590       ??_7cmd_joymousebuttonnum@?EF@???0joystick@@QAE@H@Z@6B@ 00487590     joystick.obj
 0002:0000a5a0       ??_7cmd_joymousebutton@?EI@???0joystick@@QAE@H@Z@6B@ 004875a0     joystick.obj
 0002:0000a5ac       __real@43b40000            004875ac      CIL library: CIL module
 0002:0000a5b0       __real@4076800000000000    004875b0      CIL library: CIL module
 0002:0000a5b8       __real@00000000            004875b8      CIL library: CIL module
 0002:0000a5bc       __real@c2b40000            004875bc      CIL library: CIL module
 0002:0000a5c0       __real@42b40000            004875c0      CIL library: CIL module
 0002:0000a5c4       __real@3f800000            004875c4      CIL library: CIL module
 0002:0000a5c8       __real@3f000000            004875c8      CIL library: CIL module
 0002:0000a5cc       __real@41f00000            004875cc      CIL library: CIL module
 0002:0000a5d0       __real@40c00000            004875d0      CIL library: CIL module
 0002:0000a5d4       __real@41a00000            004875d4      CIL library: CIL module
 0002:0000a5d8       __real@41000000            004875d8      CIL library: CIL module
 0002:0000a5dc       __real@40800000            004875dc      CIL library: CIL module
 0002:0000a5e0       __real@3e4ccccd            004875e0      CIL library: CIL module
 0002:0000a5e4       __real@3f5df3b6            004875e4      CIL library: CIL module
 0002:0000a5e8       __real@40833333            004875e8      CIL library: CIL module
 0002:0000a5ec       __real@bf800000            004875ec      CIL library: CIL module
 0002:0000a5f0       __real@42c80000            004875f0      CIL library: CIL module
 0002:0000a5f4       __real@43480000            004875f4      CIL library: CIL module
 0002:0000a5f8       __real@42fa0000            004875f8      CIL library: CIL module
 0002:0000a600       __real@3ff19999a0000000    00487600      CIL library: CIL module
 0002:0000a608       __real@3fc0000000000000    00487608      CIL library: CIL module
 0002:0000a610       __real@3ff0000000000000    00487610      CIL library: CIL module
 0002:0000a618       __real@3feccccccccccccd    00487618      CIL library: CIL module
 0002:0000a620       __real@4018000000000000    00487620      CIL library: CIL module
 0002:0000a628       __real@4066800000000000    00487628      CIL library: CIL module
 0002:0000a630       __real@40b57c0000000000    00487630      CIL library: CIL module
 0002:0000a638       __real@3f666666            00487638      CIL library: CIL module
 0002:0000a63c       __real@40400000            0048763c      CIL library: CIL module
 0002:0000a640       __real@3e99999a            00487640      CIL library: CIL module
 0002:0000a648       __real@3fd0000000000000    00487648      CIL library: CIL module
 0002:0000a650       __real@4000000000000000    00487650      CIL library: CIL module
 0002:0000a658       __real@0000000000000000    00487658      CIL library: CIL module
 0002:0000a660       __real@3fe147ae20000000    00487660      CIL library: CIL module
 0002:0000a668       __real@407f400000000000    00487668      CIL library: CIL module
 0002:0000a670       __real@3fe0000000000000    00487670      CIL library: CIL module
 0002:0000a678       __real@406fe00000000000    00487678      CIL library: CIL module
 0002:0000a680       __real@3fe6a09e80000000    00487680      CIL library: CIL module
 0002:0000a688       __real@3f50000000000000    00487688      CIL library: CIL module
 0002:0000a690       __real@4040800000000000    00487690      CIL library: CIL module
 0002:0000a698       __real@403e000000000000    00487698      CIL library: CIL module
 0002:0000a6a0       __real@4039000000000000    004876a0      CIL library: CIL module
 0002:0000a6a8       __real@4030000000000000    004876a8      CIL library: CIL module
 0002:0000a6b0       __real@41c00000            004876b0      CIL library: CIL module
 0002:0000a6b8       __real@40b0000000000000    004876b8      CIL library: CIL module
 0002:0000a6c0       __real@402c000000000000    004876c0      CIL library: CIL module
 0002:0000a6c8       __real@d01502f9            004876c8      CIL library: CIL module
 0002:0000a6d0       __real@4010000000000000    004876d0      CIL library: CIL module
 0002:0000a6d8       __real@3ff921fb53c8d4f1    004876d8      CIL library: CIL module
 0002:0000a6e0       __real@400921fb53c8d4f1    004876e0      CIL library: CIL module
 0002:0000a6e8       __real@4022000000000000    004876e8      CIL library: CIL module
 0002:0000a6f0       __real@4f800000            004876f0      CIL library: CIL module
 0002:0000a6f8       __real@3fe99999a0000000    004876f8      CIL library: CIL module
 0002:0000a700       __real@4037000000000000    00487700      CIL library: CIL module
 0002:0000a708       __real@404d800000000000    00487708      CIL library: CIL module
 0002:0000a710       __real@3fc99999a0000000    00487710      CIL library: CIL module
 0002:0000a718       __real@3fb99999a0000000    00487718      CIL library: CIL module
 0002:0000a720       __real@437f0000            00487720      CIL library: CIL module
 0002:0000a728       __real@3f847ae140000000    00487728      CIL library: CIL module
 0002:0000a730       __real@408f400000000000    00487730      CIL library: CIL module
 0002:0000a738       __real@43fffeb8            00487738      CIL library: CIL module
 0002:0000a740       __real@407fffd700000000    00487740      CIL library: CIL module
 0002:0000a748       __real@c008000000000000    00487748      CIL library: CIL module
 0002:0000a750       __real@bfd0000000000000    00487750      CIL library: CIL module
 0002:0000a758       __real@4048000000000000    00487758      CIL library: CIL module
 0002:0000a760       __real@3f91df46a0000000    00487760      CIL library: CIL module
 0002:0000a768       __real@430c6bf520000000    00487768      CIL library: CIL module
 0002:0000a770       __real@5a0e1bca            00487770      CIL library: CIL module
 0002:0000a774       __real@41600000            00487774      CIL library: CIL module
 0002:0000a778       __real@43870000            00487778      CIL library: CIL module
 0002:0000a77c       __real@be4ccccd            0048777c      CIL library: CIL module
 0002:0000a780       __real@bff0000000000000    00487780      CIL library: CIL module
 0002:0000a788       __real@40a0000000000000    00487788      CIL library: CIL module
 0002:0000a790       __real@c040000000000000    00487790      CIL library: CIL module
 0002:0000a798       __real@3f19999a            00487798      CIL library: CIL module
 0002:0000a7a0       __real@3eb0000000000000    004877a0      CIL library: CIL module
 0002:0000a7a8       __real@43960000            004877a8      CIL library: CIL module
 0002:0000a7ac       __real@44160000            004877ac      CIL library: CIL module
 0002:0000a7b0       __real@409f400000000000    004877b0      CIL library: CIL module
 0002:0000a7b8       __real@4050000000000000    004877b8      CIL library: CIL module
 0002:0000a7c0       __real@4020000000000000    004877c0      CIL library: CIL module
 0002:0000a7c8       __real@4056800000000000    004877c8      CIL library: CIL module
 0002:0000a7d0       __real@400921fb60000000    004877d0      CIL library: CIL module
 0002:0000a7d8       __real@401921fb60000000    004877d8      CIL library: CIL module
 0002:0000a7e0       __real@3fc5555560000000    004877e0      CIL library: CIL module
 0002:0000a7e8       __real@3fb5555560000000    004877e8      CIL library: CIL module
 0002:0000a7f0       __real@401921fb53c8d4f1    004877f0      CIL library: CIL module
 0002:0000a7f8       __real@3f60624de0000000    004877f8      CIL library: CIL module
 0002:0000a800       __real@401c666660000000    00487800      CIL library: CIL module
 0002:0000a808       __real@4002666660000000    00487808      CIL library: CIL module
 0002:0000a810       __real@402a000000000000    00487810      CIL library: CIL module
 0002:0000a818       __real@3f3a36e2e0000000    00487818      CIL library: CIL module
 0002:0000a820       __real@c000000000000000    00487820      CIL library: CIL module
 0002:0000a828       __real@3ff8000000000000    00487828      CIL library: CIL module
 0002:0000a830       __real@3a83126f            00487830      CIL library: CIL module
 0002:0000a838       __real@3fe8000000000000    00487838      CIL library: CIL module
 0002:0000a840       __real@40000000            00487840      CIL library: CIL module
 0002:0000a848       __real@3fb0000000000000    00487848      CIL library: CIL module
 0002:0000a850       __real@4046800000000000    00487850      CIL library: CIL module
 0002:0000a858       __real@bdcccccd            00487858      CIL library: CIL module
 0002:0000a85c       __real@bff33334            0048785c      CIL library: CIL module
 0002:0000a860       __real@bff19999a0000000    00487860      CIL library: CIL module
 0002:0000a868       __real@40a7700000000000    00487868      CIL library: CIL module
 0002:0000a870       __real@3fdcccccc0000000    00487870      CIL library: CIL module
 0002:0000a878       __real@3fe19999a0000000    00487878      CIL library: CIL module
 0002:0000a880       __real@3f589374c0000000    00487880      CIL library: CIL module
 0002:0000a888       __real@3fd99999a0000000    00487888      CIL library: CIL module
 0002:0000a890       __real@bfe0000000000000    00487890      CIL library: CIL module
 0002:0000a898       __real@4059000000000000    00487898      CIL library: CIL module
 0002:0000a8a0       __real@46fffe00            004878a0      CIL library: CIL module
 0002:0000a8a4       __real@c7000000            004878a4      CIL library: CIL module
 0002:0000a8a8       __real@da0e1bca            004878a8      CIL library: CIL module
 0002:0000a8b0       __real@40d3880000000000    004878b0      CIL library: CIL module
 0002:0000a8b8       __real@3f3504f4            004878b8      CIL library: CIL module
 0002:0000a8bc       __real@501502f9            004878bc      CIL library: CIL module
 0002:0000a8c0       __real@3dcccccd            004878c0      CIL library: CIL module
 0002:0000a8c4       __real@3fc00000            004878c4      CIL library: CIL module
 0002:0000a8c8       __real@406ffcccc0000000    004878c8      CIL library: CIL module
 0002:0000a8d0       __real@4024000000000000    004878d0      CIL library: CIL module
 0002:0000a8d8       __real@3fb47ae140000000    004878d8      CIL library: CIL module
 0002:0000a8e0       __real@c021eb8520000000    004878e0      CIL library: CIL module
 0002:0000a8e8       __real@bfe2e147a0000000    004878e8      CIL library: CIL module
 0002:0000a8f0       __real@c058ae1480000000    004878f0      CIL library: CIL module
 0002:0000a8f8       __real@c082bfeb80000000    004878f8      CIL library: CIL module
 0002:0000a900       __real@3f9eb851e0000000    00487900      CIL library: CIL module
 0002:0000a908       __real@3ff6b851e0000000    00487908      CIL library: CIL module
 0002:0000a910       __real@3ffbb67ae0000000    00487910      CIL library: CIL module
 0002:0000a918       __real@43000000            00487918      CIL library: CIL module
 0002:0000a920       __real@4008000000000000    00487920      CIL library: CIL module
 0002:0000a928       __real@3e800000            00487928      CIL library: CIL module
 0002:0000a930       __real@3f1a36e2e0000000    00487930      CIL library: CIL module
 0002:0000a938       __real@3c23d70a            00487938      CIL library: CIL module
 0002:0000a940       __real@3f60000000000000    00487940      CIL library: CIL module
 0002:0000a948       __real@40dfffc000000000    00487948      CIL library: CIL module
 0002:0000a950       __real@4040000000000000    00487950      CIL library: CIL module
 0002:0000a958       __real@42c00000            00487958      CIL library: CIL module
 0002:0000a95c       __real@3f400000            0048795c      CIL library: CIL module
 0002:0000a960       __real@4014000000000000    00487960      CIL library: CIL module
 0002:0000a968       __real@3f70000000000000    00487968      CIL library: CIL module
 0002:0000a970       __real@4341c37940000000    00487970      CIL library: CIL module
 0002:0000a978       __real@3f50624de0000000    00487978      CIL library: CIL module
 0002:0000a980       __real@41400000            00487980      CIL library: CIL module
 0002:0000a984       __real@42800000            00487984      CIL library: CIL module
 0002:0000a988       __real@3fc999999999999a    00487988      CIL library: CIL module
 0002:0000a990       __real@3fe6666666666666    00487990      CIL library: CIL module
 0002:0000a998       __real@3fd3333333333333    00487998      CIL library: CIL module
 0002:0000a9a0       __real@3fd999999999999a    004879a0      CIL library: CIL module
 0002:0000a9a8       __real@3fee666660000000    004879a8      CIL library: CIL module
 0002:0000a9b0       __real@404f800000000000    004879b0      CIL library: CIL module
 0002:0000a9b8       __real@c076800000000000    004879b8      CIL library: CIL module
 0002:0000a9c0       __real@3f90000000000000    004879c0      CIL library: CIL module
 0002:0000a9c8       __real@3fe3333340000000    004879c8      CIL library: CIL module
 0002:0000a9d0       __real@4034000000000000    004879d0      CIL library: CIL module
 0002:0000a9d8       __real@3fa66666            004879d8      CIL library: CIL module
 0002:0000a9e0       __real@3fdf5c2900000000    004879e0      CIL library: CIL module
 0002:0000a9e8       __real@3fa0000000000000    004879e8      CIL library: CIL module
 0002:0000a9f0       __real@40a00000            004879f0      CIL library: CIL module
 0002:0000a9f8       __real@401c000000000000    004879f8      CIL library: CIL module
 0002:0000aa00       __real@42400000            00487a00      CIL library: CIL module
 0002:0000aa04       __real@3cf5c28f            00487a04      CIL library: CIL module
 0002:0000aa08       __real@3f8ccccd            00487a08      CIL library: CIL module
 0002:0000aa0c       __real@38000100            00487a0c      CIL library: CIL module
 0002:0000aa10       __real@4072c00000000000    00487a10      CIL library: CIL module
 0002:0000aa18       __real@3f4ccccd            00487a18      CIL library: CIL module
 0002:0000aa1c       __real@3ec00000            00487a1c      CIL library: CIL module
 0002:0000aa20       __real@3fefae1480000000    00487a20      CIL library: CIL module
 0002:0000aa28       __real@c1000000            00487a28      CIL library: CIL module
 0002:0000aa2c       __real@3bd844d0            00487a2c      CIL library: CIL module
 0002:0000aa30       __real@3c343958            00487a30      CIL library: CIL module
 0002:0000aa38       __real@4097700000000000    00487a38      CIL library: CIL module
 0002:0000aa40       __real@3e19999a            00487a40      CIL library: CIL module
 0002:0000aa48       __real@3f999999a0000000    00487a48      CIL library: CIL module
 0002:0000aa50       __real@409c200000000000    00487a50      CIL library: CIL module
 0002:0000aa58       __real@3f80000000000000    00487a58      CIL library: CIL module
 0002:0000aa60       __real@4078000000000000    00487a60      CIL library: CIL module
 0002:0000aa68       __real@3fa99999a0000000    00487a68      CIL library: CIL module
 0002:0000aa70       __real@408c200000000000    00487a70      CIL library: CIL module
 0002:0000aa78       __real@40b7700000000000    00487a78      CIL library: CIL module
 0002:0000aa80       __real@43400000            00487a80      CIL library: CIL module
 0002:0000aa84       __real@56b5e621            00487a84      CIL library: CIL module
 0002:0000aa88       __real@404e000000000000    00487a88      CIL library: CIL module
 0002:0000aa90       __real@4049000000000000    00487a90      CIL library: CIL module
 0002:0000aa98       __real@42480000            00487a98      CIL library: CIL module
 0002:0000aaa0       __real@4054000000000000    00487aa0      CIL library: CIL module
 0002:0000aaa8       __real@3ff4000000000000    00487aa8      CIL library: CIL module
 0002:0000aab0       __real@c052c00000000000    00487ab0      CIL library: CIL module
 0002:0000aab8       __real@40c3880000000000    00487ab8      CIL library: CIL module
 0002:0000aac0       __real@40b3880000000000    00487ac0      CIL library: CIL module
 0002:0000aac8       __real@bfc00000            00487ac8      CIL library: CIL module
 0002:0000aad0       __real@3ff2666660000000    00487ad0      CIL library: CIL module
 0002:0000aad8       __real@3ecccccd            00487ad8      CIL library: CIL module
 0002:0000aae0       __real@4080100000000000    00487ae0      CIL library: CIL module
 0002:0000aae8       __real@4058200000000000    00487ae8      CIL library: CIL module
 0002:0000aaf0       __real@4060100000000000    00487af0      CIL library: CIL module
 0002:0000aaf8       __real@c08f400000000000    00487af8      CIL library: CIL module
 0002:0000ab00       __real@4202a05f20000000    00487b00      CIL library: CIL module
 0002:0000ab08       __real@41200000            00487b08      CIL library: CIL module
 0002:0000ab0c       __real@bf8ccccd            00487b0c      CIL library: CIL module
 0002:0000ab10       __real@43340000            00487b10      CIL library: CIL module
 0002:0000ab18       __real@412e848000000000    00487b18      CIL library: CIL module
 0002:0000ab20       __real@c066800000000000    00487b20      CIL library: CIL module
 0002:0000ab28       __real@4031000000000000    00487b28      CIL library: CIL module
 0002:0000ab30       __real@40c7f1e6            00487b30      CIL library: CIL module
 0002:0000ab34       __real@4095adef            00487b34      CIL library: CIL module
 0002:0000ab38       __real@4046d3f2            00487b38      CIL library: CIL module
 0002:0000ab3c       __real@3fb2b8c2            00487b3c      CIL library: CIL module
 0002:0000ab40       __real@3fc49809            00487b40      CIL library: CIL module
 0002:0000ab44       __real@40aecfeb            00487b44      CIL library: CIL module
 0002:0000ab48       __real@407917e8            00487b48      CIL library: CIL module
 0002:0000ab4c       __real@40148ffb            00487b4c      CIL library: CIL module
 0002:0000ab50       __real@3f860a92            00487b50      CIL library: CIL module
 0002:0000ab54       __real@3f402037            00487b54      CIL library: CIL module
 0002:0000ab58       __real@40bba866            00487b58      CIL library: CIL module
 0002:0000ab5c       __real@4089646f            00487b5c      CIL library: CIL module
 0002:0000ab60       __real@402e40f1            00487b60      CIL library: CIL module
 0002:0000ab64       __real@3f9c61aa            00487b64      CIL library: CIL module
 0002:0000ab68       __real@3f937207            00487b68      CIL library: CIL module
 0002:0000ab6c       __real@40a2866a            00487b6c      CIL library: CIL module
 0002:0000ab70       __real@406084e7            00487b70      CIL library: CIL module
 0002:0000ab74       __real@3ff7f9f4            00487b74      CIL library: CIL module
 0002:0000ab78       __real@3f5f66f3            00487b78      CIL library: CIL module
 0002:0000ab7c       __real@3ebba866            00487b7c      CIL library: CIL module
 0002:0000ab80       __real@40af400000000000    00487b80      CIL library: CIL module
 0002:0000ab88       __real@461c4000            00487b88      CIL library: CIL module
 0002:0000ab90       __real@c010000000000000    00487b90      CIL library: CIL module
 0002:0000ab98       __real@3f50624dd2f1a9fc    00487b98      CIL library: CIL module
 0002:0000aba0       __real@405cc00000000000    00487ba0      CIL library: CIL module
 0002:0000aba8       __real@c06fe00000000000    00487ba8      CIL library: CIL module
 0002:0000abb0       __real@38d1b717            00487bb0      CIL library: CIL module
 0002:0000abb8       __real@3fb1df46a0000000    00487bb8      CIL library: CIL module
 0002:0000abc0       __real@40a9000000000000    00487bc0      CIL library: CIL module
 0002:0000abc8       __real@4029000000000000    00487bc8      CIL library: CIL module
 0002:0000abd0       __real@42a00000            00487bd0      CIL library: CIL module
 0002:0000abd8       __real@3f747ae140000000    00487bd8      CIL library: CIL module
 0002:0000abe0       __real@c004000000000000    00487be0      CIL library: CIL module
 0002:0000abe8       __real@c0400000            00487be8      CIL library: CIL module
 0002:0000abec       __real@3f333333            00487bec      CIL library: CIL module
 0002:0000abf0       __real@3d23d70a            00487bf0      CIL library: CIL module
 0002:0000abf8       __real@402e000000000000    00487bf8      CIL library: CIL module
 0002:0000ac00       __real@3fe6666660000000    00487c00      CIL library: CIL module
 0002:0000ac08       __load_config_used         00487c08     msvcrt:loadcfg.obj
 0002:0000acb8       ??_R4type_info@@6B@        00487cb8     msvcrt:ti_inst.obj
 0002:0000accc       ??_R3type_info@@8          00487ccc     msvcrt:ti_inst.obj
 0002:0000acdc       ??_R2type_info@@8          00487cdc     msvcrt:ti_inst.obj
 0002:0000ace4       ??_R1A@?0A@EA@type_info@@8 00487ce4     msvcrt:ti_inst.obj
 0002:0000ad00       ??_R4texturegui@@6B@       00487d00     octaedit.obj
 0002:0000ad14       ??_R3texturegui@@8         00487d14     octaedit.obj
 0002:0000ad24       ??_R2texturegui@@8         00487d24     octaedit.obj
 0002:0000ad30       ??_R1A@?0A@EA@texturegui@@8 00487d30     octaedit.obj
 0002:0000ad4c       ??_R4cmd_hmapcancel@@6B@   00487d4c     octaedit.obj
 0002:0000ad60       ??_R3cmd_hmapcancel@@8     00487d60     octaedit.obj
 0002:0000ad70       ??_R2cmd_hmapcancel@@8     00487d70     octaedit.obj
 0002:0000ad7c       ??_R1A@?0A@EA@cmd_hmapcancel@@8 00487d7c     octaedit.obj
 0002:0000ad98       ??_R4cmd_addhtex@@6B@      00487d98     octaedit.obj
 0002:0000adac       ??_R3cmd_addhtex@@8        00487dac     octaedit.obj
 0002:0000adbc       ??_R2cmd_addhtex@@8        00487dbc     octaedit.obj
 0002:0000adc8       ??_R1A@?0A@EA@cmd_addhtex@@8 00487dc8     octaedit.obj
 0002:0000ade4       ??_R4cmd_havesel@@6B@      00487de4     octaedit.obj
 0002:0000adf8       ??_R3cmd_havesel@@8        00487df8     octaedit.obj
 0002:0000ae08       ??_R2cmd_havesel@@8        00487e08     octaedit.obj
 0002:0000ae14       ??_R1A@?0A@EA@cmd_havesel@@8 00487e14     octaedit.obj
 0002:0000ae30       ??_R4g3d_callback@@6B@     00487e30     octaedit.obj
 0002:0000ae44       ??_R3g3d_callback@@8       00487e44     octaedit.obj
 0002:0000ae54       ??_R2g3d_callback@@8       00487e54     octaedit.obj
 0002:0000ae5c       ??_R1A@?0A@EA@g3d_callback@@8 00487e5c     octaedit.obj
 0002:0000ae78       ??_R4?$tident@X@@6B@       00487e78     octaedit.obj
 0002:0000ae8c       ??_R3?$tident@X@@8         00487e8c     octaedit.obj
 0002:0000ae9c       ??_R2?$tident@X@@8         00487e9c     octaedit.obj
 0002:0000aea4       ??_R1A@?0A@EA@?$tident@X@@8 00487ea4     octaedit.obj
 0002:0000aec0       ??_R4cmd_attack@@6B@       00487ec0     physics.obj
 0002:0000aed4       ??_R3cmd_attack@@8         00487ed4     physics.obj
 0002:0000aee4       ??_R2cmd_attack@@8         00487ee4     physics.obj
 0002:0000aef0       ??_R1A@?0A@EA@cmd_attack@@8 00487ef0     physics.obj
 0002:0000af0c       ??_R4cmd_jump@@6B@         00487f0c     physics.obj
 0002:0000af20       ??_R3cmd_jump@@8           00487f20     physics.obj
 0002:0000af30       ??_R2cmd_jump@@8           00487f30     physics.obj
 0002:0000af3c       ??_R1A@?0A@EA@cmd_jump@@8  00487f3c     physics.obj
 0002:0000af58       ??_R4cmd_right@@6B@        00487f58     physics.obj
 0002:0000af6c       ??_R3cmd_right@@8          00487f6c     physics.obj
 0002:0000af7c       ??_R2cmd_right@@8          00487f7c     physics.obj
 0002:0000af88       ??_R1A@?0A@EA@cmd_right@@8 00487f88     physics.obj
 0002:0000afa4       ??_R4cmd_left@@6B@         00487fa4     physics.obj
 0002:0000afb8       ??_R3cmd_left@@8           00487fb8     physics.obj
 0002:0000afc8       ??_R2cmd_left@@8           00487fc8     physics.obj
 0002:0000afd4       ??_R1A@?0A@EA@cmd_left@@8  00487fd4     physics.obj
 0002:0000aff0       ??_R4cmd_forward@@6B@      00487ff0     physics.obj
 0002:0000b004       ??_R3cmd_forward@@8        00488004     physics.obj
 0002:0000b014       ??_R2cmd_forward@@8        00488014     physics.obj
 0002:0000b020       ??_R1A@?0A@EA@cmd_forward@@8 00488020     physics.obj
 0002:0000b03c       ??_R4cmd_backward@@6B@     0048803c     physics.obj
 0002:0000b050       ??_R3cmd_backward@@8       00488050     physics.obj
 0002:0000b060       ??_R2cmd_backward@@8       00488060     physics.obj
 0002:0000b06c       ??_R1A@?0A@EA@cmd_backward@@8 0048806c     physics.obj
 0002:0000b088       ??_R4cmd_entget@@6B@       00488088     world.obj
 0002:0000b09c       ??_R3cmd_entget@@8         0048809c     world.obj
 0002:0000b0ac       ??_R2cmd_entget@@8         004880ac     world.obj
 0002:0000b0b8       ??_R1A@?0A@EA@cmd_entget@@8 004880b8     world.obj
 0002:0000b0d4       ??_R4cmd_insel@@6B@        004880d4     world.obj
 0002:0000b0e8       ??_R3cmd_insel@@8          004880e8     world.obj
 0002:0000b0f8       ??_R2cmd_insel@@8          004880f8     world.obj
 0002:0000b104       ??_R1A@?0A@EA@cmd_insel@@8 00488104     world.obj
 0002:0000b120       ??_R4cmd_entloop@@6B@      00488120     world.obj
 0002:0000b134       ??_R3cmd_entloop@@8        00488134     world.obj
 0002:0000b144       ??_R2cmd_entloop@@8        00488144     world.obj
 0002:0000b150       ??_R1A@?0A@EA@cmd_entloop@@8 00488150     world.obj
 0002:0000b16c       ??_R4cmd_entselect@@6B@    0048816c     world.obj
 0002:0000b180       ??_R3cmd_entselect@@8      00488180     world.obj
 0002:0000b190       ??_R2cmd_entselect@@8      00488190     world.obj
 0002:0000b19c       ??_R1A@?0A@EA@cmd_entselect@@8 0048819c     world.obj
 0002:0000b1b8       ??_R4cmd_enthavesel@@6B@   004881b8     world.obj
 0002:0000b1cc       ??_R3cmd_enthavesel@@8     004881cc     world.obj
 0002:0000b1dc       ??_R2cmd_enthavesel@@8     004881dc     world.obj
 0002:0000b1e8       ??_R1A@?0A@EA@cmd_enthavesel@@8 004881e8     world.obj
 0002:0000b204       ??_R4gui@@6B@              00488204     3dgui.obj
 0002:0000b218       ??_R3gui@@8                00488218     3dgui.obj
 0002:0000b228       ??_R2gui@@8                00488228     3dgui.obj
 0002:0000b234       ??_R1A@?0A@EA@gui@@8       00488234     3dgui.obj
 0002:0000b250       ??_R4g3d_gui@@6B@          00488250     3dgui.obj
 0002:0000b264       ??_R3g3d_gui@@8            00488264     3dgui.obj
 0002:0000b274       ??_R2g3d_gui@@8            00488274     3dgui.obj
 0002:0000b27c       ??_R1A@?0A@EA@g3d_gui@@8   0048827c     3dgui.obj
 0002:0000b298       ??_R4md3meshgroup@md3@@6B@ 00488298     rendermodel.obj
 0002:0000b2ac       ??_R3md3meshgroup@md3@@8   004882ac     rendermodel.obj
 0002:0000b2bc       ??_R2md3meshgroup@md3@@8   004882bc     rendermodel.obj
 0002:0000b2c8       ??_R1A@?0A@EA@md3meshgroup@md3@@8 004882c8     rendermodel.obj
 0002:0000b2e4       ??_R4md3@@6B@              004882e4     rendermodel.obj
 0002:0000b2f8       ??_R3md3@@8                004882f8     rendermodel.obj
 0002:0000b308       ??_R2md3@@8                00488308     rendermodel.obj
 0002:0000b318       ??_R1A@?0A@EA@md3@@8       00488318     rendermodel.obj
 0002:0000b334       ??_R4md2part@md2@@6B@      00488334     rendermodel.obj
 0002:0000b348       ??_R3md2part@md2@@8        00488348     rendermodel.obj
 0002:0000b358       ??_R2md2part@md2@@8        00488358     rendermodel.obj
 0002:0000b364       ??_R1A@?0A@EA@md2part@md2@@8 00488364     rendermodel.obj
 0002:0000b380       ??_R4md2meshgroup@md2@@6B@ 00488380     rendermodel.obj
 0002:0000b394       ??_R3md2meshgroup@md2@@8   00488394     rendermodel.obj
 0002:0000b3a4       ??_R2md2meshgroup@md2@@8   004883a4     rendermodel.obj
 0002:0000b3b0       ??_R1A@?0A@EA@md2meshgroup@md2@@8 004883b0     rendermodel.obj
 0002:0000b3cc       ??_R4md2@@6B@              004883cc     rendermodel.obj
 0002:0000b3e0       ??_R3md2@@8                004883e0     rendermodel.obj
 0002:0000b3f0       ??_R2md2@@8                004883f0     rendermodel.obj
 0002:0000b400       ??_R1A@?0A@EA@md2@@8       00488400     rendermodel.obj
 0002:0000b41c       ??_R4meshgroup@vertmodel@@6B@ 0048841c     rendermodel.obj
 0002:0000b430       ??_R3meshgroup@vertmodel@@8 00488430     rendermodel.obj
 0002:0000b440       ??_R2meshgroup@vertmodel@@8 00488440     rendermodel.obj
 0002:0000b448       ??_R1A@?0A@EA@meshgroup@vertmodel@@8 00488448     rendermodel.obj
 0002:0000b464       ??_R4part@vertmodel@@6B@   00488464     rendermodel.obj
 0002:0000b478       ??_R3part@vertmodel@@8     00488478     rendermodel.obj
 0002:0000b488       ??_R2part@vertmodel@@8     00488488     rendermodel.obj
 0002:0000b490       ??_R1A@?0A@EA@part@vertmodel@@8 00488490     rendermodel.obj
 0002:0000b4ac       ??_R4vertmodel@@6B@        004884ac     rendermodel.obj
 0002:0000b4c0       ??_R3vertmodel@@8          004884c0     rendermodel.obj
 0002:0000b4d0       ??_R2vertmodel@@8          004884d0     rendermodel.obj
 0002:0000b4dc       ??_R1A@?0A@EA@vertmodel@@8 004884dc     rendermodel.obj
 0002:0000b4f8       ??_R4model@@6B@            004884f8     rendermodel.obj
 0002:0000b50c       ??_R3model@@8              0048850c     rendermodel.obj
 0002:0000b51c       ??_R2model@@8              0048851c     rendermodel.obj
 0002:0000b524       ??_R1A@?0A@EA@model@@8     00488524     rendermodel.obj
 0002:0000b540       ??_R4cmd_echo@@6B@         00488540     command.obj
 0002:0000b554       ??_R3cmd_echo@@8           00488554     command.obj
 0002:0000b564       ??_R2cmd_echo@@8           00488564     command.obj
 0002:0000b570       ??_R1A@?0A@EA@cmd_echo@@8  00488570     command.obj
 0002:0000b58c       ??_R4cmd_while@@6B@        0048858c     command.obj
 0002:0000b5a0       ??_R3cmd_while@@8          004885a0     command.obj
 0002:0000b5b0       ??_R2cmd_while@@8          004885b0     command.obj
 0002:0000b5bc       ??_R1A@?0A@EA@cmd_while@@8 004885bc     command.obj
 0002:0000b5d8       ??_R4cmd_loop@@6B@         004885d8     command.obj
 0002:0000b5ec       ??_R3cmd_loop@@8           004885ec     command.obj
 0002:0000b5fc       ??_R2cmd_loop@@8           004885fc     command.obj
 0002:0000b608       ??_R1A@?0A@EA@cmd_loop@@8  00488608     command.obj
 0002:0000b624       ??_R4cmd_if@@6B@           00488624     command.obj
 0002:0000b638       ??_R3cmd_if@@8             00488638     command.obj
 0002:0000b648       ??_R2cmd_if@@8             00488648     command.obj
 0002:0000b654       ??_R1A@?0A@EA@cmd_if@@8    00488654     command.obj
 0002:0000b670       ??_R4cmd_centerprint@@6B@  00488670     console.obj
 0002:0000b684       ??_R3cmd_centerprint@@8    00488684     console.obj
 0002:0000b694       ??_R2cmd_centerprint@@8    00488694     console.obj
 0002:0000b6a0       ??_R1A@?0A@EA@cmd_centerprint@@8 004886a0     console.obj
 0002:0000b6bc       ??_R4mainmenucallback@@6B@ 004886bc     menus.obj
 0002:0000b6d0       ??_R3mainmenucallback@@8   004886d0     menus.obj
 0002:0000b6e0       ??_R2mainmenucallback@@8   004886e0     menus.obj
 0002:0000b6ec       ??_R1A@?0A@EA@mainmenucallback@@8 004886ec     menus.obj
 0002:0000b708       ??_R4fpsgame@@6B@          00488708     fps.obj
 0002:0000b71c       ??_R3fpsgame@@8            0048871c     fps.obj
 0002:0000b72c       ??_R2fpsgame@@8            0048872c     fps.obj
 0002:0000b738       ??_R1A@?0A@EA@fpsgame@@8   00488738     fps.obj
 0002:0000b754       ??_R4cmd_getgamemode@?7???0fpsclient@@QAE@XZ@6B@ 00488754     fps.obj
 0002:0000b768       ??_R3cmd_getgamemode@?7???0fpsclient@@QAE@XZ@8 00488768     fps.obj
 0002:0000b778       ??_R2cmd_getgamemode@?7???0fpsclient@@QAE@XZ@8 00488778     fps.obj
 0002:0000b784       ??_R1A@?0A@EA@cmd_getgamemode@?7???0fpsclient@@QAE@XZ@8 00488784     fps.obj
 0002:0000b7a0       ??_R4cmd_gotocamera@?6???0fpsclient@@QAE@XZ@6B@ 004887a0     fps.obj
 0002:0000b7b4       ??_R3cmd_gotocamera@?6???0fpsclient@@QAE@XZ@8 004887b4     fps.obj
 0002:0000b7c4       ??_R2cmd_gotocamera@?6???0fpsclient@@QAE@XZ@8 004887c4     fps.obj
 0002:0000b7d0       ??_R1A@?0A@EA@cmd_gotocamera@?6???0fpsclient@@QAE@XZ@8 004887d0     fps.obj
 0002:0000b7ec       ??_R4cmd_centerrank@?5???0fpsclient@@QAE@XZ@6B@ 004887ec     fps.obj
 0002:0000b800       ??_R3cmd_centerrank@?5???0fpsclient@@QAE@XZ@8 00488800     fps.obj
 0002:0000b810       ??_R2cmd_centerrank@?5???0fpsclient@@QAE@XZ@8 00488810     fps.obj
 0002:0000b81c       ??_R1A@?0A@EA@cmd_centerrank@?5???0fpsclient@@QAE@XZ@8 0048881c     fps.obj
 0002:0000b838       ??_R4cmd_cameradir@?4???0fpsclient@@QAE@XZ@6B@ 00488838     fps.obj
 0002:0000b84c       ??_R3cmd_cameradir@?4???0fpsclient@@QAE@XZ@8 0048884c     fps.obj
 0002:0000b85c       ??_R2cmd_cameradir@?4???0fpsclient@@QAE@XZ@8 0048885c     fps.obj
 0002:0000b868       ??_R1A@?0A@EA@cmd_cameradir@?4???0fpsclient@@QAE@XZ@8 00488868     fps.obj
 0002:0000b884       ??_R4cmd_taunt@?3???0fpsclient@@QAE@XZ@6B@ 00488884     fps.obj
 0002:0000b898       ??_R3cmd_taunt@?3???0fpsclient@@QAE@XZ@8 00488898     fps.obj
 0002:0000b8a8       ??_R2cmd_taunt@?3???0fpsclient@@QAE@XZ@8 004888a8     fps.obj
 0002:0000b8b4       ??_R1A@?0A@EA@cmd_taunt@?3???0fpsclient@@QAE@XZ@8 004888b4     fps.obj
 0002:0000b8d0       ??_R4cmd_kill@?2???0fpsclient@@QAE@XZ@6B@ 004888d0     fps.obj
 0002:0000b8e4       ??_R3cmd_kill@?2???0fpsclient@@QAE@XZ@8 004888e4     fps.obj
 0002:0000b8f4       ??_R2cmd_kill@?2???0fpsclient@@QAE@XZ@8 004888f4     fps.obj
 0002:0000b900       ??_R1A@?0A@EA@cmd_kill@?2???0fpsclient@@QAE@XZ@8 00488900     fps.obj
 0002:0000b91c       ??_R4?$tident@Ufpsclient@@@@6B@ 0048891c     fps.obj
 0002:0000b930       ??_R4cmd_mode@?1???0fpsclient@@QAE@XZ@6B@ 00488930     fps.obj
 0002:0000b944       ??_R3cmd_mode@?1???0fpsclient@@QAE@XZ@8 00488944     fps.obj
 0002:0000b954       ??_R2cmd_mode@?1???0fpsclient@@QAE@XZ@8 00488954     fps.obj
 0002:0000b960       ??_R1A@?0A@EA@?$tident@Ufpsclient@@@@8 00488960     fps.obj
 0002:0000b97c       ??_R3?$tident@Ufpsclient@@@@8 0048897c     fps.obj
 0002:0000b98c       ??_R2?$tident@Ufpsclient@@@@8 0048898c     fps.obj
 0002:0000b994       ??_R1A@?0A@EA@cmd_mode@?1???0fpsclient@@QAE@XZ@8 00488994     fps.obj
 0002:0000b9b0       ??_R4var_watervel@?5???0physics@fpsclient@@QAE@AAU2@@Z@6B@ 004889b0     fps.obj
 0002:0000b9c4       ??_R3var_watervel@?5???0physics@fpsclient@@QAE@AAU2@@Z@8 004889c4     fps.obj
 0002:0000b9d4       ??_R2var_watervel@?5???0physics@fpsclient@@QAE@AAU2@@Z@8 004889d4     fps.obj
 0002:0000b9e0       ??_R1A@?0A@EA@var_watervel@?5???0physics@fpsclient@@QAE@AAU2@@Z@8 004889e0     fps.obj
 0002:0000b9fc       ??_R4var_watertype@?4???0physics@fpsclient@@QAE@AAU2@@Z@6B@ 004889fc     fps.obj
 0002:0000ba10       ??_R3var_watertype@?4???0physics@fpsclient@@QAE@AAU2@@Z@8 00488a10     fps.obj
 0002:0000ba20       ??_R2var_watertype@?4???0physics@fpsclient@@QAE@AAU2@@Z@8 00488a20     fps.obj
 0002:0000ba2c       ??_R1A@?0A@EA@var_watertype@?4???0physics@fpsclient@@QAE@AAU2@@Z@8 00488a2c     fps.obj
 0002:0000ba48       ??_R4var_jumpvel@?3???0physics@fpsclient@@QAE@AAU2@@Z@6B@ 00488a48     fps.obj
 0002:0000ba5c       ??_R3var_jumpvel@?3???0physics@fpsclient@@QAE@AAU2@@Z@8 00488a5c     fps.obj
 0002:0000ba6c       ??_R2var_jumpvel@?3???0physics@fpsclient@@QAE@AAU2@@Z@8 00488a6c     fps.obj
 0002:0000ba78       ??_R1A@?0A@EA@var_jumpvel@?3???0physics@fpsclient@@QAE@AAU2@@Z@8 00488a78     fps.obj
 0002:0000ba94       ??_R4var_speed@?2???0physics@fpsclient@@QAE@AAU2@@Z@6B@ 00488a94     fps.obj
 0002:0000baa8       ??_R3var_speed@?2???0physics@fpsclient@@QAE@AAU2@@Z@8 00488aa8     fps.obj
 0002:0000bab8       ??_R2var_speed@?2???0physics@fpsclient@@QAE@AAU2@@Z@8 00488ab8     fps.obj
 0002:0000bac4       ??_R1A@?0A@EA@var_speed@?2???0physics@fpsclient@@QAE@AAU2@@Z@8 00488ac4     fps.obj
 0002:0000bae0       ??_R4?$tident@Uphysics@fpsclient@@@@6B@ 00488ae0     fps.obj
 0002:0000baf4       ??_R4var_gravity@?1???0physics@fpsclient@@QAE@AAU2@@Z@6B@ 00488af4     fps.obj
 0002:0000bb08       ??_R3var_gravity@?1???0physics@fpsclient@@QAE@AAU2@@Z@8 00488b08     fps.obj
 0002:0000bb18       ??_R2var_gravity@?1???0physics@fpsclient@@QAE@AAU2@@Z@8 00488b18     fps.obj
 0002:0000bb24       ??_R1A@?0A@EA@?$tident@Uphysics@fpsclient@@@@8 00488b24     fps.obj
 0002:0000bb40       ??_R3?$tident@Uphysics@fpsclient@@@@8 00488b40     fps.obj
 0002:0000bb50       ??_R2?$tident@Uphysics@fpsclient@@@@8 00488b50     fps.obj
 0002:0000bb58       ??_R1A@?0A@EA@var_gravity@?1???0physics@fpsclient@@QAE@AAU2@@Z@8 00488b58     fps.obj
 0002:0000bb74       ??_R4?$tident@Ucaptureclient@fpsclient@@@@6B@ 00488b74     fps.obj
 0002:0000bb88       ??_R4cmd_repammo@?1???0captureclient@fpsclient@@QAE@AAU2@@Z@6B@ 00488b88     fps.obj
 0002:0000bb9c       ??_R3cmd_repammo@?1???0captureclient@fpsclient@@QAE@AAU2@@Z@8 00488b9c     fps.obj
 0002:0000bbac       ??_R2cmd_repammo@?1???0captureclient@fpsclient@@QAE@AAU2@@Z@8 00488bac     fps.obj
 0002:0000bbb8       ??_R1A@?0A@EA@?$tident@Ucaptureclient@fpsclient@@@@8 00488bb8     fps.obj
 0002:0000bbd4       ??_R3?$tident@Ucaptureclient@fpsclient@@@@8 00488bd4     fps.obj
 0002:0000bbe4       ??_R2?$tident@Ucaptureclient@fpsclient@@@@8 00488be4     fps.obj
 0002:0000bbec       ??_R1A@?0A@EA@cmd_repammo@?1???0captureclient@fpsclient@@QAE@AAU2@@Z@8 00488bec     fps.obj
 0002:0000bc08       ??_R4cmd_getteam@?BF@???0clientcom@fpsclient@@QAE@AAU2@@Z@6B@ 00488c08     fps.obj
 0002:0000bc1c       ??_R3cmd_getteam@?BF@???0clientcom@fpsclient@@QAE@AAU2@@Z@8 00488c1c     fps.obj
 0002:0000bc2c       ??_R2cmd_getteam@?BF@???0clientcom@fpsclient@@QAE@AAU2@@Z@8 00488c2c     fps.obj
 0002:0000bc38       ??_R1A@?0A@EA@cmd_getteam@?BF@???0clientcom@fpsclient@@QAE@AAU2@@Z@8 00488c38     fps.obj
 0002:0000bc54       ??_R4cmd_getname@?BE@???0clientcom@fpsclient@@QAE@AAU2@@Z@6B@ 00488c54     fps.obj
 0002:0000bc68       ??_R3cmd_getname@?BE@???0clientcom@fpsclient@@QAE@AAU2@@Z@8 00488c68     fps.obj
 0002:0000bc78       ??_R2cmd_getname@?BE@???0clientcom@fpsclient@@QAE@AAU2@@Z@8 00488c78     fps.obj
 0002:0000bc84       ??_R1A@?0A@EA@cmd_getname@?BE@???0clientcom@fpsclient@@QAE@AAU2@@Z@8 00488c84     fps.obj
 0002:0000bca0       ??_R4cmd_cleardemos@?BD@???0clientcom@fpsclient@@QAE@AAU2@@Z@6B@ 00488ca0     fps.obj
 0002:0000bcb4       ??_R3cmd_cleardemos@?BD@???0clientcom@fpsclient@@QAE@AAU2@@Z@8 00488cb4     fps.obj
 0002:0000bcc4       ??_R2cmd_cleardemos@?BD@???0clientcom@fpsclient@@QAE@AAU2@@Z@8 00488cc4     fps.obj
 0002:0000bcd0       ??_R1A@?0A@EA@cmd_cleardemos@?BD@???0clientcom@fpsclient@@QAE@AAU2@@Z@8 00488cd0     fps.obj
 0002:0000bcec       ??_R4cmd_stopdemo@?BC@???0clientcom@fpsclient@@QAE@AAU2@@Z@6B@ 00488cec     fps.obj
 0002:0000bd00       ??_R3cmd_stopdemo@?BC@???0clientcom@fpsclient@@QAE@AAU2@@Z@8 00488d00     fps.obj
 0002:0000bd10       ??_R2cmd_stopdemo@?BC@???0clientcom@fpsclient@@QAE@AAU2@@Z@8 00488d10     fps.obj
 0002:0000bd1c       ??_R1A@?0A@EA@cmd_stopdemo@?BC@???0clientcom@fpsclient@@QAE@AAU2@@Z@8 00488d1c     fps.obj
 0002:0000bd38       ??_R4cmd_recorddemo@?BB@???0clientcom@fpsclient@@QAE@AAU2@@Z@6B@ 00488d38     fps.obj
 0002:0000bd4c       ??_R3cmd_recorddemo@?BB@???0clientcom@fpsclient@@QAE@AAU2@@Z@8 00488d4c     fps.obj
 0002:0000bd5c       ??_R2cmd_recorddemo@?BB@???0clientcom@fpsclient@@QAE@AAU2@@Z@8 00488d5c     fps.obj
 0002:0000bd68       ??_R1A@?0A@EA@cmd_recorddemo@?BB@???0clientcom@fpsclient@@QAE@AAU2@@Z@8 00488d68     fps.obj
 0002:0000bd84       ??_R4cmd_getdemo@?BA@???0clientcom@fpsclient@@QAE@AAU2@@Z@6B@ 00488d84     fps.obj
 0002:0000bd98       ??_R3cmd_getdemo@?BA@???0clientcom@fpsclient@@QAE@AAU2@@Z@8 00488d98     fps.obj
 0002:0000bda8       ??_R2cmd_getdemo@?BA@???0clientcom@fpsclient@@QAE@AAU2@@Z@8 00488da8     fps.obj
 0002:0000bdb4       ??_R1A@?0A@EA@cmd_getdemo@?BA@???0clientcom@fpsclient@@QAE@AAU2@@Z@8 00488db4     fps.obj
 0002:0000bdd0       ??_R4cmd_listdemos@?P@???0clientcom@fpsclient@@QAE@AAU2@@Z@6B@ 00488dd0     fps.obj
 0002:0000bde4       ??_R3cmd_listdemos@?P@???0clientcom@fpsclient@@QAE@AAU2@@Z@8 00488de4     fps.obj
 0002:0000bdf4       ??_R2cmd_listdemos@?P@???0clientcom@fpsclient@@QAE@AAU2@@Z@8 00488df4     fps.obj
 0002:0000be00       ??_R1A@?0A@EA@cmd_listdemos@?P@???0clientcom@fpsclient@@QAE@AAU2@@Z@8 00488e00     fps.obj
 0002:0000be1c       ??_R4cmd_sendmap@?O@???0clientcom@fpsclient@@QAE@AAU2@@Z@6B@ 00488e1c     fps.obj
 0002:0000be30       ??_R3cmd_sendmap@?O@???0clientcom@fpsclient@@QAE@AAU2@@Z@8 00488e30     fps.obj
 0002:0000be40       ??_R2cmd_sendmap@?O@???0clientcom@fpsclient@@QAE@AAU2@@Z@8 00488e40     fps.obj
 0002:0000be4c       ??_R1A@?0A@EA@cmd_sendmap@?O@???0clientcom@fpsclient@@QAE@AAU2@@Z@8 00488e4c     fps.obj
 0002:0000be68       ??_R4cmd_getmap@?N@???0clientcom@fpsclient@@QAE@AAU2@@Z@6B@ 00488e68     fps.obj
 0002:0000be7c       ??_R3cmd_getmap@?N@???0clientcom@fpsclient@@QAE@AAU2@@Z@8 00488e7c     fps.obj
 0002:0000be8c       ??_R2cmd_getmap@?N@???0clientcom@fpsclient@@QAE@AAU2@@Z@8 00488e8c     fps.obj
 0002:0000be98       ??_R1A@?0A@EA@cmd_getmap@?N@???0clientcom@fpsclient@@QAE@AAU2@@Z@8 00488e98     fps.obj
 0002:0000beb4       ??_R4cmd_setteam@?M@???0clientcom@fpsclient@@QAE@AAU2@@Z@6B@ 00488eb4     fps.obj
 0002:0000bec8       ??_R3cmd_setteam@?M@???0clientcom@fpsclient@@QAE@AAU2@@Z@8 00488ec8     fps.obj
 0002:0000bed8       ??_R2cmd_setteam@?M@???0clientcom@fpsclient@@QAE@AAU2@@Z@8 00488ed8     fps.obj
 0002:0000bee4       ??_R1A@?0A@EA@cmd_setteam@?M@???0clientcom@fpsclient@@QAE@AAU2@@Z@8 00488ee4     fps.obj
 0002:0000bf00       ??_R4cmd_setmaster@?L@???0clientcom@fpsclient@@QAE@AAU2@@Z@6B@ 00488f00     fps.obj
 0002:0000bf14       ??_R3cmd_setmaster@?L@???0clientcom@fpsclient@@QAE@AAU2@@Z@8 00488f14     fps.obj
 0002:0000bf24       ??_R2cmd_setmaster@?L@???0clientcom@fpsclient@@QAE@AAU2@@Z@8 00488f24     fps.obj
 0002:0000bf30       ??_R1A@?0A@EA@cmd_setmaster@?L@???0clientcom@fpsclient@@QAE@AAU2@@Z@8 00488f30     fps.obj
 0002:0000bf4c       ??_R4cmd_mastermode@?9???0clientcom@fpsclient@@QAE@AAU2@@Z@6B@ 00488f4c     fps.obj
 0002:0000bf60       ??_R3cmd_mastermode@?9???0clientcom@fpsclient@@QAE@AAU2@@Z@8 00488f60     fps.obj
 0002:0000bf70       ??_R2cmd_mastermode@?9???0clientcom@fpsclient@@QAE@AAU2@@Z@8 00488f70     fps.obj
 0002:0000bf7c       ??_R1A@?0A@EA@cmd_mastermode@?9???0clientcom@fpsclient@@QAE@AAU2@@Z@8 00488f7c     fps.obj
 0002:0000bf98       ??_R4cmd_spectator@?8???0clientcom@fpsclient@@QAE@AAU2@@Z@6B@ 00488f98     fps.obj
 0002:0000bfac       ??_R3cmd_spectator@?8???0clientcom@fpsclient@@QAE@AAU2@@Z@8 00488fac     fps.obj
 0002:0000bfbc       ??_R2cmd_spectator@?8???0clientcom@fpsclient@@QAE@AAU2@@Z@8 00488fbc     fps.obj
 0002:0000bfc8       ??_R1A@?0A@EA@cmd_spectator@?8???0clientcom@fpsclient@@QAE@AAU2@@Z@8 00488fc8     fps.obj
 0002:0000bfe4       ??_R4cmd_goto@?7???0clientcom@fpsclient@@QAE@AAU2@@Z@6B@ 00488fe4     fps.obj
 0002:0000bff8       ??_R3cmd_goto@?7???0clientcom@fpsclient@@QAE@AAU2@@Z@8 00488ff8     fps.obj
 0002:0000c008       ??_R2cmd_goto@?7???0clientcom@fpsclient@@QAE@AAU2@@Z@8 00489008     fps.obj
 0002:0000c014       ??_R1A@?0A@EA@cmd_goto@?7???0clientcom@fpsclient@@QAE@AAU2@@Z@8 00489014     fps.obj
 0002:0000c030       ??_R4cmd_kick@?6???0clientcom@fpsclient@@QAE@AAU2@@Z@6B@ 00489030     fps.obj
 0002:0000c044       ??_R3cmd_kick@?6???0clientcom@fpsclient@@QAE@AAU2@@Z@8 00489044     fps.obj
 0002:0000c054       ??_R2cmd_kick@?6???0clientcom@fpsclient@@QAE@AAU2@@Z@8 00489054     fps.obj
 0002:0000c060       ??_R1A@?0A@EA@cmd_kick@?6???0clientcom@fpsclient@@QAE@AAU2@@Z@8 00489060     fps.obj
 0002:0000c07c       ??_R4cmd_clearbans@?5???0clientcom@fpsclient@@QAE@AAU2@@Z@6B@ 0048907c     fps.obj
 0002:0000c090       ??_R3cmd_clearbans@?5???0clientcom@fpsclient@@QAE@AAU2@@Z@8 00489090     fps.obj
 0002:0000c0a0       ??_R2cmd_clearbans@?5???0clientcom@fpsclient@@QAE@AAU2@@Z@8 004890a0     fps.obj
 0002:0000c0ac       ??_R1A@?0A@EA@cmd_clearbans@?5???0clientcom@fpsclient@@QAE@AAU2@@Z@8 004890ac     fps.obj
 0002:0000c0c8       ??_R4cmd_map@?4???0clientcom@fpsclient@@QAE@AAU2@@Z@6B@ 004890c8     fps.obj
 0002:0000c0dc       ??_R3cmd_map@?4???0clientcom@fpsclient@@QAE@AAU2@@Z@8 004890dc     fps.obj
 0002:0000c0ec       ??_R2cmd_map@?4???0clientcom@fpsclient@@QAE@AAU2@@Z@8 004890ec     fps.obj
 0002:0000c0f8       ??_R1A@?0A@EA@cmd_map@?4???0clientcom@fpsclient@@QAE@AAU2@@Z@8 004890f8     fps.obj
 0002:0000c114       ??_R4cmd_team@?3???0clientcom@fpsclient@@QAE@AAU2@@Z@6B@ 00489114     fps.obj
 0002:0000c128       ??_R3cmd_team@?3???0clientcom@fpsclient@@QAE@AAU2@@Z@8 00489128     fps.obj
 0002:0000c138       ??_R2cmd_team@?3???0clientcom@fpsclient@@QAE@AAU2@@Z@8 00489138     fps.obj
 0002:0000c144       ??_R1A@?0A@EA@cmd_team@?3???0clientcom@fpsclient@@QAE@AAU2@@Z@8 00489144     fps.obj
 0002:0000c160       ??_R4cmd_name@?2???0clientcom@fpsclient@@QAE@AAU2@@Z@6B@ 00489160     fps.obj
 0002:0000c174       ??_R3cmd_name@?2???0clientcom@fpsclient@@QAE@AAU2@@Z@8 00489174     fps.obj
 0002:0000c184       ??_R2cmd_name@?2???0clientcom@fpsclient@@QAE@AAU2@@Z@8 00489184     fps.obj
 0002:0000c190       ??_R1A@?0A@EA@cmd_name@?2???0clientcom@fpsclient@@QAE@AAU2@@Z@8 00489190     fps.obj
 0002:0000c1ac       ??_R4?$tident@Uclientcom@fpsclient@@@@6B@ 004891ac     fps.obj
 0002:0000c1c0       ??_R4cmd_say@?1???0clientcom@fpsclient@@QAE@AAU2@@Z@6B@ 004891c0     fps.obj
 0002:0000c1d4       ??_R3cmd_say@?1???0clientcom@fpsclient@@QAE@AAU2@@Z@8 004891d4     fps.obj
 0002:0000c1e4       ??_R2cmd_say@?1???0clientcom@fpsclient@@QAE@AAU2@@Z@8 004891e4     fps.obj
 0002:0000c1f0       ??_R1A@?0A@EA@?$tident@Uclientcom@fpsclient@@@@8 004891f0     fps.obj
 0002:0000c20c       ??_R3?$tident@Uclientcom@fpsclient@@@@8 0048920c     fps.obj
 0002:0000c21c       ??_R2?$tident@Uclientcom@fpsclient@@@@8 0048921c     fps.obj
 0002:0000c224       ??_R1A@?0A@EA@cmd_say@?1???0clientcom@fpsclient@@QAE@AAU2@@Z@8 00489224     fps.obj
 0002:0000c240       ??_R4cmd_entlink@?2???0entities@fpsclient@@QAE@AAU2@@Z@6B@ 00489240     fps.obj
 0002:0000c254       ??_R3cmd_entlink@?2???0entities@fpsclient@@QAE@AAU2@@Z@8 00489254     fps.obj
 0002:0000c264       ??_R2cmd_entlink@?2???0entities@fpsclient@@QAE@AAU2@@Z@8 00489264     fps.obj
 0002:0000c270       ??_R1A@?0A@EA@cmd_entlink@?2???0entities@fpsclient@@QAE@AAU2@@Z@8 00489270     fps.obj
 0002:0000c28c       ??_R4?$tident@Uentities@fpsclient@@@@6B@ 0048928c     fps.obj
 0002:0000c2a0       ??_R4cmd_entdelink@?1???0entities@fpsclient@@QAE@AAU2@@Z@6B@ 004892a0     fps.obj
 0002:0000c2b4       ??_R3cmd_entdelink@?1???0entities@fpsclient@@QAE@AAU2@@Z@8 004892b4     fps.obj
 0002:0000c2c4       ??_R2cmd_entdelink@?1???0entities@fpsclient@@QAE@AAU2@@Z@8 004892c4     fps.obj
 0002:0000c2d0       ??_R1A@?0A@EA@?$tident@Uentities@fpsclient@@@@8 004892d0     fps.obj
 0002:0000c2ec       ??_R3?$tident@Uentities@fpsclient@@@@8 004892ec     fps.obj
 0002:0000c2fc       ??_R2?$tident@Uentities@fpsclient@@@@8 004892fc     fps.obj
 0002:0000c304       ??_R1A@?0A@EA@cmd_entdelink@?1???0entities@fpsclient@@QAE@AAU2@@Z@8 00489304     fps.obj
 0002:0000c320       ??_R4?$tident@Uscoreboard@fpsclient@@@@6B@ 00489320     fps.obj
 0002:0000c334       ??_R4cmd_showscores@?1???0scoreboard@fpsclient@@QAE@AAU2@@Z@6B@ 00489334     fps.obj
 0002:0000c348       ??_R3cmd_showscores@?1???0scoreboard@fpsclient@@QAE@AAU2@@Z@8 00489348     fps.obj
 0002:0000c358       ??_R2cmd_showscores@?1???0scoreboard@fpsclient@@QAE@AAU2@@Z@8 00489358     fps.obj
 0002:0000c364       ??_R1A@?0A@EA@?$tident@Uscoreboard@fpsclient@@@@8 00489364     fps.obj
 0002:0000c380       ??_R3?$tident@Uscoreboard@fpsclient@@@@8 00489380     fps.obj
 0002:0000c390       ??_R2?$tident@Uscoreboard@fpsclient@@@@8 00489390     fps.obj
 0002:0000c398       ??_R1A@?0A@EA@cmd_showscores@?1???0scoreboard@fpsclient@@QAE@AAU2@@Z@8 00489398     fps.obj
 0002:0000c3b4       ??_R4cmd_getweapon@?2???0weaponstate@fpsclient@@QAE@AAU2@@Z@6B@ 004893b4     fps.obj
 0002:0000c3c8       ??_R3cmd_getweapon@?2???0weaponstate@fpsclient@@QAE@AAU2@@Z@8 004893c8     fps.obj
 0002:0000c3d8       ??_R2cmd_getweapon@?2???0weaponstate@fpsclient@@QAE@AAU2@@Z@8 004893d8     fps.obj
 0002:0000c3e4       ??_R1A@?0A@EA@cmd_getweapon@?2???0weaponstate@fpsclient@@QAE@AAU2@@Z@8 004893e4     fps.obj
 0002:0000c400       ??_R4?$tident@Uweaponstate@fpsclient@@@@6B@ 00489400     fps.obj
 0002:0000c414       ??_R4cmd_weapon@?1???0weaponstate@fpsclient@@QAE@AAU2@@Z@6B@ 00489414     fps.obj
 0002:0000c428       ??_R3cmd_weapon@?1???0weaponstate@fpsclient@@QAE@AAU2@@Z@8 00489428     fps.obj
 0002:0000c438       ??_R2cmd_weapon@?1???0weaponstate@fpsclient@@QAE@AAU2@@Z@8 00489438     fps.obj
 0002:0000c444       ??_R1A@?0A@EA@?$tident@Uweaponstate@fpsclient@@@@8 00489444     fps.obj
 0002:0000c460       ??_R3?$tident@Uweaponstate@fpsclient@@@@8 00489460     fps.obj
 0002:0000c470       ??_R2?$tident@Uweaponstate@fpsclient@@@@8 00489470     fps.obj
 0002:0000c478       ??_R1A@?0A@EA@cmd_weapon@?1???0weaponstate@fpsclient@@QAE@AAU2@@Z@8 00489478     fps.obj
 0002:0000c494       ??_R4var_hudgunsway@fpsclient@@6B@ 00489494     fps.obj
 0002:0000c4a8       ??_R3var_hudgunsway@fpsclient@@8 004894a8     fps.obj
 0002:0000c4b8       ??_R2var_hudgunsway@fpsclient@@8 004894b8     fps.obj
 0002:0000c4c4       ??_R1A@?0A@EA@var_hudgunsway@fpsclient@@8 004894c4     fps.obj
 0002:0000c4e0       ??_R4var_hudgun@fpsclient@@6B@ 004894e0     fps.obj
 0002:0000c4f4       ??_R3var_hudgun@fpsclient@@8 004894f4     fps.obj
 0002:0000c504       ??_R2var_hudgun@fpsclient@@8 00489504     fps.obj
 0002:0000c510       ??_R1A@?0A@EA@var_hudgun@fpsclient@@8 00489510     fps.obj
 0002:0000c52c       ??_R4var_ranktime@fpsclient@@6B@ 0048952c     fps.obj
 0002:0000c540       ??_R3var_ranktime@fpsclient@@8 00489540     fps.obj
 0002:0000c550       ??_R2var_ranktime@fpsclient@@8 00489550     fps.obj
 0002:0000c55c       ??_R1A@?0A@EA@var_ranktime@fpsclient@@8 0048955c     fps.obj
 0002:0000c578       ??_R4var_rankhud@fpsclient@@6B@ 00489578     fps.obj
 0002:0000c58c       ??_R3var_rankhud@fpsclient@@8 0048958c     fps.obj
 0002:0000c59c       ??_R2var_rankhud@fpsclient@@8 0048959c     fps.obj
 0002:0000c5a8       ??_R1A@?0A@EA@var_rankhud@fpsclient@@8 004895a8     fps.obj
 0002:0000c5c4       ??_R4var_hudstyle@fpsclient@@6B@ 004895c4     fps.obj
 0002:0000c5d8       ??_R3var_hudstyle@fpsclient@@8 004895d8     fps.obj
 0002:0000c5e8       ??_R2var_hudstyle@fpsclient@@8 004895e8     fps.obj
 0002:0000c5f4       ??_R1A@?0A@EA@var_hudstyle@fpsclient@@8 004895f4     fps.obj
 0002:0000c610       ??_R4var_wobbleroll@fpsclient@@6B@ 00489610     fps.obj
 0002:0000c624       ??_R3var_wobbleroll@fpsclient@@8 00489624     fps.obj
 0002:0000c634       ??_R2var_wobbleroll@fpsclient@@8 00489634     fps.obj
 0002:0000c640       ??_R1A@?0A@EA@var_wobbleroll@fpsclient@@8 00489640     fps.obj
 0002:0000c65c       ??_R4var_wobblepitch@fpsclient@@6B@ 0048965c     fps.obj
 0002:0000c670       ??_R3var_wobblepitch@fpsclient@@8 00489670     fps.obj
 0002:0000c680       ??_R2var_wobblepitch@fpsclient@@8 00489680     fps.obj
 0002:0000c68c       ??_R1A@?0A@EA@var_wobblepitch@fpsclient@@8 0048968c     fps.obj
 0002:0000c6a8       ??_R4var_wobbleyaw@fpsclient@@6B@ 004896a8     fps.obj
 0002:0000c6bc       ??_R3var_wobbleyaw@fpsclient@@8 004896bc     fps.obj
 0002:0000c6cc       ??_R2var_wobbleyaw@fpsclient@@8 004896cc     fps.obj
 0002:0000c6d8       ??_R1A@?0A@EA@var_wobbleyaw@fpsclient@@8 004896d8     fps.obj
 0002:0000c6f4       ??_R4var_wobblescale@fpsclient@@6B@ 004896f4     fps.obj
 0002:0000c708       ??_R3var_wobblescale@fpsclient@@8 00489708     fps.obj
 0002:0000c718       ??_R2var_wobblescale@fpsclient@@8 00489718     fps.obj
 0002:0000c724       ??_R1A@?0A@EA@var_wobblescale@fpsclient@@8 00489724     fps.obj
 0002:0000c740       ??_R4var_crosshair@fpsclient@@6B@ 00489740     fps.obj
 0002:0000c754       ??_R3var_crosshair@fpsclient@@8 00489754     fps.obj
 0002:0000c764       ??_R2var_crosshair@fpsclient@@8 00489764     fps.obj
 0002:0000c770       ??_R1A@?0A@EA@var_crosshair@fpsclient@@8 00489770     fps.obj
 0002:0000c78c       ??_R4var_cameracycle@fpsclient@@6B@ 0048978c     fps.obj
 0002:0000c7a0       ??_R3var_cameracycle@fpsclient@@8 004897a0     fps.obj
 0002:0000c7b0       ??_R2var_cameracycle@fpsclient@@8 004897b0     fps.obj
 0002:0000c7bc       ??_R1A@?0A@EA@var_cameracycle@fpsclient@@8 004897bc     fps.obj
 0002:0000c7d8       ??_R4var_capturespawn@fpsclient@@6B@ 004897d8     fps.obj
 0002:0000c7ec       ??_R3var_capturespawn@fpsclient@@8 004897ec     fps.obj
 0002:0000c7fc       ??_R2var_capturespawn@fpsclient@@8 004897fc     fps.obj
 0002:0000c808       ??_R1A@?0A@EA@var_capturespawn@fpsclient@@8 00489808     fps.obj
 0002:0000c824       ??_R4botcom@fpsclient@@6B@ 00489824     fps.obj
 0002:0000c838       ??_R3botcom@fpsclient@@8   00489838     fps.obj
 0002:0000c848       ??_R2botcom@fpsclient@@8   00489848     fps.obj
 0002:0000c854       ??_R1A@?0A@EA@botcom@fpsclient@@8 00489854     fps.obj
 0002:0000c870       ??_R4physics@fpsclient@@6B@ 00489870     fps.obj
 0002:0000c884       ??_R3physics@fpsclient@@8  00489884     fps.obj
 0002:0000c894       ??_R2physics@fpsclient@@8  00489894     fps.obj
 0002:0000c8a0       ??_R1A@?0A@EA@physics@fpsclient@@8 004898a0     fps.obj
 0002:0000c8bc       ??_R4var_maxradarscale@captureclient@fpsclient@@6B@ 004898bc     fps.obj
 0002:0000c8d0       ??_R3var_maxradarscale@captureclient@fpsclient@@8 004898d0     fps.obj
 0002:0000c8e0       ??_R2var_maxradarscale@captureclient@fpsclient@@8 004898e0     fps.obj
 0002:0000c8ec       ??_R1A@?0A@EA@var_maxradarscale@captureclient@fpsclient@@8 004898ec     fps.obj
 0002:0000c908       ??_R4var_centerchat@clientcom@fpsclient@@6B@ 00489908     fps.obj
 0002:0000c91c       ??_R3var_centerchat@clientcom@fpsclient@@8 0048991c     fps.obj
 0002:0000c92c       ??_R2var_centerchat@clientcom@fpsclient@@8 0048992c     fps.obj
 0002:0000c938       ??_R1A@?0A@EA@var_centerchat@clientcom@fpsclient@@8 00489938     fps.obj
 0002:0000c954       ??_R4clientcom@fpsclient@@6B@ 00489954     fps.obj
 0002:0000c968       ??_R3clientcom@fpsclient@@8 00489968     fps.obj
 0002:0000c978       ??_R2clientcom@fpsclient@@8 00489978     fps.obj
 0002:0000c984       ??_R1A@?0A@EA@clientcom@fpsclient@@8 00489984     fps.obj
 0002:0000c9a0       ??_R4var_showallwp@entities@fpsclient@@6B@ 004899a0     fps.obj
 0002:0000c9b4       ??_R3var_showallwp@entities@fpsclient@@8 004899b4     fps.obj
 0002:0000c9c4       ??_R2var_showallwp@entities@fpsclient@@8 004899c4     fps.obj
 0002:0000c9d0       ??_R1A@?0A@EA@var_showallwp@entities@fpsclient@@8 004899d0     fps.obj
 0002:0000c9ec       ??_R4entities@fpsclient@@6B@ 004899ec     fps.obj
 0002:0000ca00       ??_R3entities@fpsclient@@8 00489a00     fps.obj
 0002:0000ca10       ??_R2entities@fpsclient@@8 00489a10     fps.obj
 0002:0000ca1c       ??_R1A@?0A@EA@entities@fpsclient@@8 00489a1c     fps.obj
 0002:0000ca38       ??_R4var_teamskins@fpsrender@fpsclient@@6B@ 00489a38     fps.obj
 0002:0000ca4c       ??_R3var_teamskins@fpsrender@fpsclient@@8 00489a4c     fps.obj
 0002:0000ca5c       ??_R2var_teamskins@fpsrender@fpsclient@@8 00489a5c     fps.obj
 0002:0000ca68       ??_R1A@?0A@EA@var_teamskins@fpsrender@fpsclient@@8 00489a68     fps.obj
 0002:0000ca84       ??_R4var_showconnecting@scoreboard@fpsclient@@6B@ 00489a84     fps.obj
 0002:0000ca98       ??_R3var_showconnecting@scoreboard@fpsclient@@8 00489a98     fps.obj
 0002:0000caa8       ??_R2var_showconnecting@scoreboard@fpsclient@@8 00489aa8     fps.obj
 0002:0000cab4       ??_R1A@?0A@EA@var_showconnecting@scoreboard@fpsclient@@8 00489ab4     fps.obj
 0002:0000cad0       ??_R4var_highlightscore@scoreboard@fpsclient@@6B@ 00489ad0     fps.obj
 0002:0000cae4       ??_R3var_highlightscore@scoreboard@fpsclient@@8 00489ae4     fps.obj
 0002:0000caf4       ??_R2var_highlightscore@scoreboard@fpsclient@@8 00489af4     fps.obj
 0002:0000cb00       ??_R1A@?0A@EA@var_highlightscore@scoreboard@fpsclient@@8 00489b00     fps.obj
 0002:0000cb1c       ??_R4var_showspectators@scoreboard@fpsclient@@6B@ 00489b1c     fps.obj
 0002:0000cb30       ??_R3var_showspectators@scoreboard@fpsclient@@8 00489b30     fps.obj
 0002:0000cb40       ??_R2var_showspectators@scoreboard@fpsclient@@8 00489b40     fps.obj
 0002:0000cb4c       ??_R1A@?0A@EA@var_showspectators@scoreboard@fpsclient@@8 00489b4c     fps.obj
 0002:0000cb68       ??_R4var_showping@scoreboard@fpsclient@@6B@ 00489b68     fps.obj
 0002:0000cb7c       ??_R3var_showping@scoreboard@fpsclient@@8 00489b7c     fps.obj
 0002:0000cb8c       ??_R2var_showping@scoreboard@fpsclient@@8 00489b8c     fps.obj
 0002:0000cb98       ??_R1A@?0A@EA@var_showping@scoreboard@fpsclient@@8 00489b98     fps.obj
 0002:0000cbb4       ??_R4var_showpj@scoreboard@fpsclient@@6B@ 00489bb4     fps.obj
 0002:0000cbc8       ??_R3var_showpj@scoreboard@fpsclient@@8 00489bc8     fps.obj
 0002:0000cbd8       ??_R2var_showpj@scoreboard@fpsclient@@8 00489bd8     fps.obj
 0002:0000cbe4       ??_R1A@?0A@EA@var_showpj@scoreboard@fpsclient@@8 00489be4     fps.obj
 0002:0000cc00       ??_R4var_showclientnum@scoreboard@fpsclient@@6B@ 00489c00     fps.obj
 0002:0000cc14       ??_R3var_showclientnum@scoreboard@fpsclient@@8 00489c14     fps.obj
 0002:0000cc24       ??_R2var_showclientnum@scoreboard@fpsclient@@8 00489c24     fps.obj
 0002:0000cc30       ??_R1A@?0A@EA@var_showclientnum@scoreboard@fpsclient@@8 00489c30     fps.obj
 0002:0000cc4c       ??_R4var_scoresinfo@scoreboard@fpsclient@@6B@ 00489c4c     fps.obj
 0002:0000cc60       ??_R3var_scoresinfo@scoreboard@fpsclient@@8 00489c60     fps.obj
 0002:0000cc70       ??_R2var_scoresinfo@scoreboard@fpsclient@@8 00489c70     fps.obj
 0002:0000cc7c       ??_R1A@?0A@EA@var_scoresinfo@scoreboard@fpsclient@@8 00489c7c     fps.obj
 0002:0000cc98       ??_R4scoreboard@fpsclient@@6B@ 00489c98     fps.obj
 0002:0000ccac       ??_R3scoreboard@fpsclient@@8 00489cac     fps.obj
 0002:0000ccbc       ??_R2scoreboard@fpsclient@@8 00489cbc     fps.obj
 0002:0000ccc8       ??_R1A@?0A@EA@scoreboard@fpsclient@@8 00489cc8     fps.obj
 0002:0000cce4       ??_R4var_dmsprounds@monsterset@fpsclient@@6B@ 00489ce4     fps.obj
 0002:0000ccf8       ??_R3var_dmsprounds@monsterset@fpsclient@@8 00489cf8     fps.obj
 0002:0000cd08       ??_R2var_dmsprounds@monsterset@fpsclient@@8 00489d08     fps.obj
 0002:0000cd14       ??_R1A@?0A@EA@var_dmsprounds@monsterset@fpsclient@@8 00489d14     fps.obj
 0002:0000cd30       ??_R4var_skill@monsterset@fpsclient@@6B@ 00489d30     fps.obj
 0002:0000cd44       ??_R3var_skill@monsterset@fpsclient@@8 00489d44     fps.obj
 0002:0000cd54       ??_R2var_skill@monsterset@fpsclient@@8 00489d54     fps.obj
 0002:0000cd60       ??_R1A@?0A@EA@var_skill@monsterset@fpsclient@@8 00489d60     fps.obj
 0002:0000cd7c       ??_R4var_blood@weaponstate@fpsclient@@6B@ 00489d7c     fps.obj
 0002:0000cd90       ??_R3var_blood@weaponstate@fpsclient@@8 00489d90     fps.obj
 0002:0000cda0       ??_R2var_blood@weaponstate@fpsclient@@8 00489da0     fps.obj
 0002:0000cdac       ??_R1A@?0A@EA@var_blood@weaponstate@fpsclient@@8 00489dac     fps.obj
 0002:0000cdc8       ??_R4var_weaponswitchstyle@weaponstate@fpsclient@@6B@ 00489dc8     fps.obj
 0002:0000cddc       ??_R3var_weaponswitchstyle@weaponstate@fpsclient@@8 00489ddc     fps.obj
 0002:0000cdec       ??_R2var_weaponswitchstyle@weaponstate@fpsclient@@8 00489dec     fps.obj
 0002:0000cdf8       ??_R1A@?0A@EA@var_weaponswitchstyle@weaponstate@fpsclient@@8 00489df8     fps.obj
 0002:0000ce14       ??_R4var_maxdebris@weaponstate@fpsclient@@6B@ 00489e14     fps.obj
 0002:0000ce28       ??_R3var_maxdebris@weaponstate@fpsclient@@8 00489e28     fps.obj
 0002:0000ce38       ??_R2var_maxdebris@weaponstate@fpsclient@@8 00489e38     fps.obj
 0002:0000ce44       ??_R1A@?0A@EA@var_maxdebris@weaponstate@fpsclient@@8 00489e44     fps.obj
 0002:0000ce60       ??_R4fpsclient@@6B@        00489e60     fps.obj
 0002:0000ce74       ??_R3fpsclient@@8          00489e74     fps.obj
 0002:0000ce84       ??_R2fpsclient@@8          00489e84     fps.obj
 0002:0000ce90       ??_R1A@?0A@EA@fpsclient@@8 00489e90     fps.obj
 0002:0000ceac       ??_R4cmd_spawnstate@?9???0fpsserver@@QAE@XZ@6B@ 00489eac     fps.obj
 0002:0000cec0       ??_R3cmd_spawnstate@?9???0fpsserver@@QAE@XZ@8 00489ec0     fps.obj
 0002:0000ced0       ??_R2cmd_spawnstate@?9???0fpsserver@@QAE@XZ@8 00489ed0     fps.obj
 0002:0000cedc       ??_R1A@?0A@EA@cmd_spawnstate@?9???0fpsserver@@QAE@XZ@8 00489edc     fps.obj
 0002:0000cef8       ??_R4cmd_powerup@?8???0fpsserver@@QAE@XZ@6B@ 00489ef8     fps.obj
 0002:0000cf0c       ??_R3cmd_powerup@?8???0fpsserver@@QAE@XZ@8 00489f0c     fps.obj
 0002:0000cf1c       ??_R2cmd_powerup@?8???0fpsserver@@QAE@XZ@8 00489f1c     fps.obj
 0002:0000cf28       ??_R1A@?0A@EA@cmd_powerup@?8???0fpsserver@@QAE@XZ@8 00489f28     fps.obj
 0002:0000cf44       ??_R4cmd_teamdamage@?7???0fpsserver@@QAE@XZ@6B@ 00489f44     fps.obj
 0002:0000cf58       ??_R3cmd_teamdamage@?7???0fpsserver@@QAE@XZ@8 00489f58     fps.obj
 0002:0000cf68       ??_R2cmd_teamdamage@?7???0fpsserver@@QAE@XZ@8 00489f68     fps.obj
 0002:0000cf74       ??_R1A@?0A@EA@cmd_teamdamage@?7???0fpsserver@@QAE@XZ@8 00489f74     fps.obj
 0002:0000cf90       ??_R4cmd_instakill@?6???0fpsserver@@QAE@XZ@6B@ 00489f90     fps.obj
 0002:0000cfa4       ??_R3cmd_instakill@?6???0fpsserver@@QAE@XZ@8 00489fa4     fps.obj
 0002:0000cfb4       ??_R2cmd_instakill@?6???0fpsserver@@QAE@XZ@8 00489fb4     fps.obj
 0002:0000cfc0       ??_R1A@?0A@EA@cmd_instakill@?6???0fpsserver@@QAE@XZ@8 00489fc0     fps.obj
 0002:0000cfdc       ??_R4cmd_damagescale@?5???0fpsserver@@QAE@XZ@6B@ 00489fdc     fps.obj
 0002:0000cff0       ??_R3cmd_damagescale@?5???0fpsserver@@QAE@XZ@8 00489ff0     fps.obj
 0002:0000d000       ??_R2cmd_damagescale@?5???0fpsserver@@QAE@XZ@8 0048a000     fps.obj
 0002:0000d00c       ??_R1A@?0A@EA@cmd_damagescale@?5???0fpsserver@@QAE@XZ@8 0048a00c     fps.obj
 0002:0000d028       ??_R4cmd_duelgame@?4???0fpsserver@@QAE@XZ@6B@ 0048a028     fps.obj
 0002:0000d03c       ??_R3cmd_duelgame@?4???0fpsserver@@QAE@XZ@8 0048a03c     fps.obj
 0002:0000d04c       ??_R2cmd_duelgame@?4???0fpsserver@@QAE@XZ@8 0048a04c     fps.obj
 0002:0000d058       ??_R1A@?0A@EA@cmd_duelgame@?4???0fpsserver@@QAE@XZ@8 0048a058     fps.obj
 0002:0000d074       ??_R4cmd_fraglimit@?3???0fpsserver@@QAE@XZ@6B@ 0048a074     fps.obj
 0002:0000d088       ??_R3cmd_fraglimit@?3???0fpsserver@@QAE@XZ@8 0048a088     fps.obj
 0002:0000d098       ??_R2cmd_fraglimit@?3???0fpsserver@@QAE@XZ@8 0048a098     fps.obj
 0002:0000d0a4       ??_R1A@?0A@EA@cmd_fraglimit@?3???0fpsserver@@QAE@XZ@8 0048a0a4     fps.obj
 0002:0000d0c0       ??_R4cmd_timelimit@?2???0fpsserver@@QAE@XZ@6B@ 0048a0c0     fps.obj
 0002:0000d0d4       ??_R3cmd_timelimit@?2???0fpsserver@@QAE@XZ@8 0048a0d4     fps.obj
 0002:0000d0e4       ??_R2cmd_timelimit@?2???0fpsserver@@QAE@XZ@8 0048a0e4     fps.obj
 0002:0000d0f0       ??_R1A@?0A@EA@cmd_timelimit@?2???0fpsserver@@QAE@XZ@8 0048a0f0     fps.obj
 0002:0000d10c       ??_R4?$tident@Ufpsserver@@@@6B@ 0048a10c     fps.obj
 0002:0000d120       ??_R4cmd_version@?1???0fpsserver@@QAE@XZ@6B@ 0048a120     fps.obj
 0002:0000d134       ??_R3cmd_version@?1???0fpsserver@@QAE@XZ@8 0048a134     fps.obj
 0002:0000d144       ??_R2cmd_version@?1???0fpsserver@@QAE@XZ@8 0048a144     fps.obj
 0002:0000d150       ??_R1A@?0A@EA@?$tident@Ufpsserver@@@@8 0048a150     fps.obj
 0002:0000d16c       ??_R3?$tident@Ufpsserver@@@@8 0048a16c     fps.obj
 0002:0000d17c       ??_R2?$tident@Ufpsserver@@@@8 0048a17c     fps.obj
 0002:0000d184       ??_R1A@?0A@EA@cmd_version@?1???0fpsserver@@QAE@XZ@8 0048a184     fps.obj
 0002:0000d1a0       ??_R4var_serversplit@fpsserver@@6B@ 0048a1a0     fps.obj
 0002:0000d1b4       ??_R3var_serversplit@fpsserver@@8 0048a1b4     fps.obj
 0002:0000d1c4       ??_R2var_serversplit@fpsserver@@8 0048a1c4     fps.obj
 0002:0000d1d0       ??_R1A@?0A@EA@var_serversplit@fpsserver@@8 0048a1d0     fps.obj
 0002:0000d1ec       ??_R4duelservmode@fpsserver@@6B@ 0048a1ec     fps.obj
 0002:0000d200       ??_R3duelservmode@fpsserver@@8 0048a200     fps.obj
 0002:0000d210       ??_R2duelservmode@fpsserver@@8 0048a210     fps.obj
 0002:0000d21c       ??_R1A@?0A@EA@duelservmode@fpsserver@@8 0048a21c     fps.obj
 0002:0000d238       ??_R4captureservmode@fpsserver@@6B@ 0048a238     fps.obj
 0002:0000d24c       ??_R3captureservmode@fpsserver@@8 0048a24c     fps.obj
 0002:0000d25c       ??_R2captureservmode@fpsserver@@8 0048a25c     fps.obj
 0002:0000d26c       ??_R17?0A@EA@capturestate@fpsserver@@8 0048a26c     fps.obj
 0002:0000d288       ??_R3capturestate@fpsserver@@8 0048a288     fps.obj
 0002:0000d298       ??_R2capturestate@fpsserver@@8 0048a298     fps.obj
